;--------------------------------------------------
;8085 DISASSEMBLER LISTING Olivetti M10 ROM (AZERTY)
;Line   Addr Opcodes     Label   Instruction
;--------------------------------------------------
;Disassembly made with 8085 Simulator IDE v1.91 Author: Vladimir Soso
;Comments added from ROM listings:
;http://www.club100.org/library/libref.html (RCMAP0-7)
;http://www.xibalba.com/website100/software.html (romap.do)
;
;F.J. Kraan 2004-01-16


;0000H -  System Reset
0001   0000 C3 23 7A    L1877:  JMP L0001
; 'MENU'
0002   0003 4D                  MOV C,L
0003   0004 45                  MOV B,L
0004   0005 4E                  MOV C,M
0005   0006 55                  MOV D,L
0006   0007 00                  NOP
;0008H -  Compare character following RST 8H with the character pointed 
;        to by HL.
;         Entry:
;               HL - Points to the buffer to be used for the 
;                    comparison.  The character after call is compared 
;                    with the character pointed to by HL.
;         Exit:
;               If compare is successful a RST 10H is issued
;               If compare is unsuccessful, a SYNTAX ERROR is generated
0007   0008 7E                  MOV A,M
0008   0009 E3                  XTHL
0009   000A BE                  CMP M
0010   000B C2 4D 04            JNZ L0002
0011   000E 23                  INX H
0012   000F E3                  XTHL
;0010H -  Get the next character in the buffer pointed to by HL and 
;        place it in the A register.  HL is incremented prior to the 
;        load.  Spaces and tabs in the buffer are skipped.
;         Entry:
;               HL - Points to buffer
;         Exit:
;               A  - Character loaded from buffer
;               HL - Incremented
;           C flag - Set if character is a digit
;           Z flag - Set if character is a colon or null
0013   0010 C3 5F 08            JMP L0003
0014   0013 EB          L1600:  XCHG
0015   0014 2A F2 F6            LHLD 0F6F2H
0016   0017 EB                  XCHG
;0018H -  Compare DE and HL
;         Entry:
;               HL - Number to compare
;               DE - Number to compare
;         Exit:
;           C flag - Set if HL<DE
;           Z flag - Set if HL=DE
;                A - Destroyed
0017   0018 7C          L0066:  MOV A,H
0018   0019 92                  SUB D
0019   001A C0                  RNZ
0020   001B 7D                  MOV A,L
0021   001C 93                  SUB E
0022   001D C9                  RET
;001EH -  Send a space to the screen or printer depending on the output 
;        flag at F675H.
;         Entry:
;            F675H - Device to output space to (0-screen, 1-printer)
;         Exit:
;                A - 20H
0023   001E 3E 20       L1157:  MVI A,20H
;0020H -  Print character in A on the screen or printer depending on 
;        the output flag F675H.
;         Entry:
;                A - Character to print
;            F675H - Device to output character to (0-screen, 
;                    1-printer)
0024   0020 C3 12 4B            JMP L0004
;0024H -  8085 TRAP interrupt vector.  This non maskable interrupt is 
;        generated if the CPU does not have enough power to operate.  
;        When the interrupt occurs, the CPU jumps to F602H.
0025   0023 00                  NOP
0026   0024 C3 02 F6            JMP L0005
0027   0027 00                  NOP
;0028H -  Determine the type of the last variable used.
;        Exit:
;                A - Destroyed
;           Z flag - Set if string
;           C flag - Reset if double precision
;           S flag - Set (M) if integer
;           P flag - Odd if single precision
0028   0028 C3 70 10            JMP L0006
0029   002B 00                  NOP
;002CH -  8085 RST 5.5 interrupt vector.  This interrrupt is generated 
;        by the data being present on the Bar Code Reader port.  This 
;        interrupt jumps to F5F9H.
0030   002C F3                  DI
0031   002D C3 F9 F5            JMP L0007
;0030H -  Returns sign of FAC1
;         Exit:
;                A - Destroyed
0032   0030 C3 B5 33            JMP L0008
0033   0033 00                  NOP
;0034H -  8085 RST 6.5 interrupt vector.  This interrupt is generated 
;        if a character is pending on the RS232 UART.  The RAM vector 
;        F5FCH is called on each interrupt.
0034   0034 F3                  DI
0035   0035 C3 DC 6A            JMP L0009
;0038H -  RAM vector table driver.  The byte after the call determines 
;        the offset index for the highmem vector table starting at 
;        FADAH.  This routine calls the contents of the address 
;        computed by adding the offset to FADAH.
0036   0038 C3 C3 7C            JMP L0010
0037   003B 00                  NOP
;003CH -  8085 RST 7.5 interrupt vector.  This interrupt is generated 
;        by the internal timer normally at regular 4 microsecond 
;        intervals (255 times per second).  On each interrupt, the 
;        Model 100 performs a keyboard scan and updates the typeahead 
;        buffer if nescessary.  The RAM vector F5FFH is called on each 
;        interrupt.
0038   003C F3                  DI
0039   003D C3 FB 1A            JMP L0011
;0040H -  Start of function vector table for SGN to MID$
0040   0040 E0                  RPO
0041   0041 33                  INX SP
0042   0042 2D                  DCR L
0043   0043 36 CB               MVI M,0CBH
0044   0045 33                  INX SP
0045   0046 25                  DCR H
0046   0047 2B                  DCX H
0047   0048 07                  RLC
0048   0049 11 CF 10            LXI D,10CFH
0049   004C D5                  PUSH D
0050   004D 10                  UNRECOGNIZED
0051   004E 33                  INX SP
0052   004F 30                  SIM
0053   0050 17                  RAL
0054   0051 31 A8 2F            LXI SP,2FA8H
0055   0054 7D                  MOV A,L
0056   0055 30                  SIM
0057   0056 C8                  RZ
0058   0057 2E E2               MVI L,0E2H
0059   0059 2E 31               MVI L,31H
0060   005B 2F                  CMA
0061   005C 4A                  MOV C,D
0062   005D 2F                  CMA
0063   005E 8D                  ADC L
0064   005F 12                  STAX D
0065   0060 56                  MOV D,M
0066   0061 18                  UNRECOGNIZED
0067   0062 34                  INR M
0068   0063 50                  MOV D,B
0069   0064 32 50 DA            STA 0DA50H
0070   0067 34                  INR M
0071   0068 03                  INX B
0072   0069 35                  DCR M
0073   006A 93                  SUB E
0074   006B 35                  DCR M
0075   006C 1E 36               MVI E,36H
0076   006E 1C                  INR E
0077   006F 29                  DAD H
0078   0070 13                  INX D
0079   0071 27                  DAA
0080   0072 E0                  RPO
0081   0073 29                  DAD H
0082   0074 28                  UNRECOGNIZED
0083   0075 29                  DAD H
0084   0076 38                  UNRECOGNIZED
0085   0077 29                  DAD H
0086   0078 67                  MOV H,A
0087   0079 29                  DAD H
0088   007A 84                  ADD H
0089   007B 29                  DAD H
0090   007C B5                  ORA L
0091   007D 29                  DAD H
0092   007E BF                  CMP A
0093   007F 29                  DAD H
;007FH -  End of function vector table
;0080H -  Start of BASIC statement keyword table END to NEW
; END
0094   0080 C5                  0XC5 ; 'E'
0095   0081 4E                  0X4E ; 'N'
0096   0082 44                  0X44 ; 'D'
; FOR
0097   0083 C6                  0XC6 ; 'F'
0097   0084 4F                  0X4F ; 'O'
0098   0085 52                  0X52 ; 'R'
; NEXT
0099   0086 CE                  0XCE ; 'N'
0099   0087 45                  0X45 ; 'E'
0100   0088 58                  0X58 ; 'X'
0101   0089 54                  0X54 ; 'T'
; DATA
0102   008A C4                  0XC4 ; 'D'
0102   008b 41                  0X41 ; 'A'
0102   008c 54                  0X54 ; 'T'
0103   008D 41                  0X41 ; 'A'
; INPUT
0104   008E C9                  0XC9 ; 'I'
0105   008F 4E                  0X4E ; 'N'
0106   0090 50                  0X50 ; 'P'
0107   0091 55                  0X55 ; 'U'
0108   0092 54                  0X54 ; 'T'
; DIM
0109   0093 C4                  0XC4 ; 'D'
0109   0094 49                  0X49 ; 'I'
0109   0095 4D                  0X4D ; 'M'
; READ
0110   0096 D2                  0XD2 ; 'R'
0110   0097 45                  0X45 ; 'E'
0110   0098 41                  0X41 ; 'A'
0111   0099 44                  0X44 ; 'D'
; LET
0112   009A CC                  0XCC ; 'L'
0112   009b 45                  0X45 ; 'E'
0112   009c 54                  0X54 ; 'T'
; GOTO
0113   009D C7                  0XC7 ; 'G'
0114   009E 4F                  0X4F ; 'O'
0115   009F 54                  0X54 ; 'T'
0116   00A0 4F                  0X4F ; 'O'
; RUN
0117   00A1 D2                  0XD2 ; 'R'
0117   00a2 55                  0X55 ; 'U'
0117   00a3 4E                  0X4E ; 'N'
; IF
0118   00A4 C9                  0XC9 ; 'I'
0119   00A5 46                  0X46 ; 'F'
; RESTORE
0120   00A6 D2                  0XD2 ; 'R'
0120   00a7 45                  0X45 ; 'E'
0120   00a8 53                  0X53 ; 'S'
0121   00A9 54                  0X54 ; 'T'
0122   00AA 4F                  0X4F ; 'O'
0123   00AB 52                  0X52 ; 'R'
0124   00AC 45                  0X45 ; 'E'
; GOSUB
0125   00AD C7                  0XC7 ; 'G'
0126   00AE 4F                  0X4F ; 'O'
0127   00AF 53                  0X53 ; 'S'
0128   00B0 55                  0X55 ; 'U'
0129   00B1 42                  0X42 ; 'B'
; RETURN
0130   00B2 D2                  0XD2 ; 'R'
0130   00b3 45                  0X45 ; 'E'
0130   00b4 54                  0X54 ; 'T'
0131   00B5 55                  0X55 ; 'U'
0132   00B6 52                  0X52 ; 'R'
0133   00B7 4E                  0X4E ; 'N'
; REM
0134   00B8 D2                  0XD2 ; 'R'
0134   00b9 45                  0X45 ; 'E'
0134   00ba 4D                  0X4D ; 'M'
; STOP
0135   00BB D3                  0XD3 ; 'S'
0135   00bc 54                  0X54 ; 'T'
0136   00BD 4F                  0X4F ; 'O'
0137   00BE 50                  0X50 ; 'P'
; WIDTH
0138   00BF D7                  0XD7 ; 'W'
0139   00C0 49                  0X49 ; 'I'
0140   00C1 44                  0X44 ; 'D'
0141   00C2 54                  0X54 ; 'T'
0142   00C3 48                  0X48 ; 'H'
; ELSE
0143   00C4 C5                  0XC5 ; 'E'
0144   00C5 4C                  0X4C ; 'L'
0145   00C6 53                  0X53 ; 'S'
0146   00C7 45                  0X45 ; 'E'
; LINE
0147   00C8 CC                  0XCC ; 'L'
0147   00c9 49                  0X49 ; 'I'
0147   00ca 4E                  0X4E ; 'N'
0148   00CB 45                  0X45 ; 'E'
; EDIT
0149   00CC C5                  0XC5 ; 'E'
0150   00CD 44                  0X44 ; 'D'
0151   00CE 49                  0X49 ; 'I'
0152   00CF 54                  0X54 ; 'T'
; ERROR
0153   00D0 C5                  0XC5 ; 'E'
0154   00D1 52                  0X52 ; 'R'
0155   00D2 52                  0X52 ; 'R'
0156   00D3 4F                  0X4F ; 'O'
0157   00D4 52                  0X52 ; 'R'
; RESUME
0158   00D5 D2                  0XD2 ; 'R'
0158   00d6 45                  0X45 ; 'E'
0158   00d7 53                  0X53 ; 'S'
0159   00D8 55                  0X55 ; 'U'
0160   00D9 4D                  0X4D ; 'M'
0161   00DA 45                  0X45 ; 'E'
; OUT
0162   00DB CF                  0XCF ; 'O'
0163   00DC 55                  0X55 ; 'U'
0164   00DD 54                  0X54 ; 'T'
; ON
0165   00DE CF                  0XCF ; 'O'
0166   00DF 4E                  0X4E ; 'N'
; DSKO$
0167   00E0 C4                  0XC4 ; 'D'
0167   00e1 53                  0X53 ; 'S'
0167   00e2 4B                  0X4B ; 'K'
0168   00E3 4F                  0X4F ; 'O'
0169   00E4 24                  0X24 ; '$'
; OPEN
0170   00E5 CF                  0XCF ; 'O'
0171   00E6 50                  0X50 ; 'P'
0172   00E7 45                  0X45 ; 'E'
0173   00E8 4E                  0X4E ; 'N'
; CLOSE
0174   00E9 C3                  0XC3 ; 'C'
0174   00ea 4C                  0X4C ; 'L'
0174   00eb 4F                  0X4F ; 'O'
0175   00EC 53                  0X53 ; 'S'
0176   00ED 45                  0X45 ; 'E'
; LOAD
0177   00EE CC                  0XCC ; 'L'
0177   00ef 4F                  0X4F ; 'O'
0177   00f0 41                  0X41 ; 'A'
0178   00F1 44                  0X44 ; 'D'
; MERGE
0179   00F2 CD                  0XCD ; 'M'
0179   00f3 45                  0X45 ; 'E'
0179   00f4 52                  0X52 ; 'R'
0180   00F5 47                  0X47 ; 'G'
0181   00F6 45                  0X45 ; 'E'
; FILES
0182   00F7 C6                  0XC6 ; 'F'
0182   00f8 49                  0X49 ; 'I'
0183   00F9 4C                  0X4C ; 'L'
0184   00FA 45                  0X45 ; 'E'
0185   00FB 53                  0X53 ; 'S'
; SAVE
0186   00FC D3                  0XD3 ; 'S'
0186   00fd 41                  0X41 ; 'A'
0187   00FE 56                  0X56 ; 'V'
0188   00FF 45                  0X45 ; 'E'
; LFILES
0189   0100 CC                  0XCC ; 'L'
0189   0101 46                  0X46 ; 'F'
0189   0102 49                  0X49 ; 'I'
0190   0103 4C                  0X4C ; 'L'
0191   0104 45                  0X45 ; 'E'
0192   0105 53                  0X53 ; 'S'
; LPRINT
0193   0106 CC                  0XCC ; 'L'
0193   0107 50                  0X50 ; 'P'
0193   0108 52                  0X52 ; 'R'
0194   0109 49                  0X49 ; 'I'
0195   010A 4E                  0X4E ; 'N'
0196   010B 54                  0X54 ; 'T'
; DEF
0197   010C C4                  0XC4 ; 'D'
0197   010d 45                  0X45 ; 'E'
0197   010e 46                  0X46 ; 'F'
0198   010F D0                  0XD0 ; 'P'
0199   0110 4F                  0X4F ; 'O'
0200   0111 4B                  0X4B ; 'K'
0201   0112 45                  0X45 ; 'E'
; POKE
0202   0113 D0                  0XD0 ; 'P'
0203   0114 52                  0X52 ; 'R'
0204   0115 49                  0X49 ; 'I'
0205   0116 4E                  0X4E ; 'N'
0206   0117 54                  0X54 ; 'T'
; PRINT
0207   0118 C3                  0XC3 ; 'C'
0207   0119 4F                  0X4F ; 'O'
0207   011a 4E                  0X4E ; 'N'
0208   011B 54                  0X54 ; 'T'
; CONT
0209   011C CC                  0XCC ; 'L'
0209   011d 49                  0X49 ; 'I'
0209   011e 53                  0X53 ; 'S'
0210   011F 54                  0X54 ; 'T'
; LIST
0211   0120 CC                  0XCC ; 'L'
0211   0121 4C                  0X4C ; 'L'
0211   0122 49                  0X49 ; 'I'
0212   0123 53                  0X53 ; 'S'
0213   0124 54                  0X54 ; 'T'
; LLIST
0214   0125 C3                  0XC3 ; 'C'
0214   0126 4C                  0X4C ; 'L'
0214   0127 45                  0X45 ; 'E'
0215   0128 41                  0X41 ; 'A'
0216   0129 52                  0X52 ; 'R'
; CLEAR
0217   012A C3                  0XC3 ; 'C'
0217   012b 4C                  0X4C ; 'L'
0217   012c 4F                  0X4F ; 'O'
0218   012D 41                  0X41 ; 'A'
0219   012E 44                  0X44 ; 'D'
; CLOAD
0220   012F C3                  0XC3 ; 'C'
0220   0130 53                  0X53 ; 'S'
0220   0131 41                  0X41 ; 'A'
0221   0132 56                  0X56 ; 'V'
0222   0133 45                  0X45 ; 'E'
; CSAVE
0223   0134 D4                  0XD4 ; 'T'
0223   0135 49                  0X49 ; 'I'
0223   0136 4D                  0X4D ; 'M'
0224   0137 45                  0X45 ; 'E'
0225   0138 24                  0X24 ; '$'
; TIME$
0226   0139 C4                  0XC4 ; 'D'
0226   013a 41                  0X41 ; 'A'
0226   013b 54                  0X54 ; 'T'
0227   013C 45                  0X45 ; 'E'
0228   013D 24                  0X24 ; '$'
; DATE$
0229   013E C4                  0XC4 ; 'D'
0229   013f 41                  0X41 ; 'A'
0229   0140 59                  0X59 ; 'Y'
0230   0141 24                  0X24 ; '$'
; DAY$
0231   0142 C3                  0XC3 ; 'C'
0231   0143 4F                  0X4F ; 'O'
0231   0144 4D                  0X4D ; 'M'
; COM
0232   0145 CD                  0XCD ; 'M'
0232   0146 44                  0X44 ; 'D'
0232   0147 4D                  0X4D ; 'M'
;
0233   0148 CB                  0XCB ; 'K'
0234   0149 45                  0X45 ; 'E'
0235   014A 59                  0X59 ; 'Y'
;
0236   014B C3                  0XC3 ; 'C'
0236   014c 4C                  0X4C ; 'L'
0236   014d 53                  0X53 ; 'S'
;
0237   014E C2                  0XC2 ; 'B'
0237   014f 45                  0X45 ; 'E'
0237   0150 45                  0X45 ; 'E'
0238   0151 50                  0X50 ; 'P'
;
0239   0152 D3                  0XD3 ; 'S'
0239   0153 4F                  0X4F ; 'O'
0240   0154 55                  0X55 ; 'U'
0241   0155 4E                  0X4E ; 'N'
0242   0156 44                  0X44 ; 'D'
;
0243   0157 CC                  0XCC ; 'L'
0243   0158 43                  0X43 ; 'C'
0243   0159 4F                  0X4F ; 'O'
0244   015A 50                  0X50 ; 'P'
0245   015B 59                  0X59 ; 'Y'
;
0246   015C D0                  0XD0 ; 'P'
0247   015D 53                  0X53 ; 'S'
0248   015E 45                  0X45 ; 'E'
0249   015F 54                  0X54 ; 'T'
;
0250   0160 D0                  0XD0 ; 'P'
0251   0161 52                  0X52 ; 'R'
0252   0162 45                  0X45 ; 'E'
0253   0163 53                  0X53 ; 'S'
0254   0164 45                  0X45 ; 'E'
0255   0165 54                  0X54 ; 'T'
;
0256   0166 CD                  0XCD ; 'M'
0256   0167 4F                  0X4F ; 'O'
0256   0168 54                  0X54 ; 'T'
;
0257   0169 4F                  0X4F ; 'O'
0258   016A 52                  0X52 ; 'R'
;
0259   016B CD                  0XCD ; 'M'
0259   016c 41                  0X41 ; 'A'
0259   016d 58                  0X58 ; 'X'
;
0260   016E D0                  0XD0 ; 'P'
0261   016F 4F                  0X4F ; 'O'
0262   0170 57                  0X57 ; 'W'
0263   0171 45                  0X45 ; 'E'
0264   0172 52                  0X52 ; 'R'
;
0265   0173 C3                  0XC3 ; 'C'
0265   0174 41                  0X41 ; 'A'
0265   0175 4C                  0X4C ; 'L'
0266   0176 4C                  0X4C ; 'L'
;
0267   0177 CD                  0XCD ; 'M'
0267   0178 45                  0X45 ; 'E'
0267   0179 4E                  0X4E ; 'N'
0268   017A 55                  0X55 ; 'U'
;
0269   017B C9                  0XC9 ; 'I'
0270   017C 50                  0X50 ; 'P'
0271   017D 4C                  0X4C ; 'L'
;
0272   017E CE                  0XCE ; 'N'
0272   017f 41                  0X41 ; 'A'
0273   0180 4D                  0X4D ; 'M'
0274   0181 45                  0X45 ; 'E'
;
0275   0182 CB                  0XCB ; 'K'
0276   0183 49                  0X49 ; 'I'
0277   0184 4C                  0X4C ; 'L'
0278   0185 4C                  0X4C ; 'L'
;
0279   0186 D3                  0XD3 ; 'S'
0279   0187 43                  0X43 ; 'C'
0280   0188 52                  0X52 ; 'R'
0281   0189 45                  0X45 ; 'E'
0282   018A 45                  0X45 ; 'E'
0283   018B 4E                  0X4E ; 'N'
;
0284   018C CE                  0XCE ; 'N'
0284   018d 45                  0X45 ; 'E'
0285   018E 57                  0X57 ; 'W'
;
0286   018F D4                  0XD4 ; 'T'
0286   0190 41                  0X41 ; 'A'
0286   0191 42                  0X42 ; 'B'
0287   0192 28                  0X28 ; '('
;
0288   0193 D4                  0XD4 ; 'T'
0288   0194 4F                  0X4F ; 'O'
;
0288   0195 D5                  0XD5 ; 'U'
0289   0196 53                  0X53 ; 'S'
0290   0197 49                  0X49 ; 'I'
0291   0198 4E                  0X4E ; 'N'
0292   0199 47                  0X47 ; 'G'
;
0293   019A D6                  0XD6 ; 'V'
0293   019b 41                  0X41 ; 'A'
0294   019C 52                  0X52 ; 'R'
0295   019D 50                  0X50 ; 'P'
0296   019E 54                  0X54 ; 'T'
0297   019F 52                  0X52 ; 'R'
;
0298   01A0 C5                  0XC5 ; 'E'
0299   01A1 52                  0X52 ; 'R'
0300   01A2 4C                  0X4C ; 'L'
;
0301   01A3 C5                  0XC5 ; 'E'
0302   01A4 52                  0X52 ; 'R'
0303   01A5 52                  0X52 ; 'R'
;
0304   01A6 D3                  0XD3 ; 'S'
0304   01a7 54                  0X54 ; 'T'
0305   01A8 52                  0X52 ; 'R'
0306   01A9 49                  0X49 ; 'I'
0307   01AA 4E                  0X4E ; 'N'
0308   01AB 47                  0X47 ; 'G'
0309   01AC 24                  0X24 ; '$'
;
0310   01AD C9                  0XC9 ; 'I'
0311   01AE 4E                  0X4E ; 'N'
0312   01AF 53                  0X53 ; 'S'
0313   01B0 54                  0X54 ; 'T'
0314   01B1 52                  0X52 ; 'R'
;
0315   01B2 C4                  0XC4 ; 'D'
0315   01b3 53                  0X53 ; 'S'
0315   01b4 4B                  0X4B ; 'K'
0316   01B5 49                  0X49 ; 'I'
0317   01B6 24                  0X24 ; '$'
;
0318   01B7 C9                  0XC9 ; 'I'
0319   01B8 4E                  0X4E ; 'N'
0320   01B9 4B                  0X4B ; 'K'
0321   01BA 45                  0X45 ; 'E'
0322   01BB 59                  0X59 ; 'Y'
0323   01BC 24                  0X24 ; '$'
;
0324   01BD C3                  0XC3 ; 'C'
0324   01be 53                  0X53 ; 'S'
0324   01bf 52                  0X52 ; 'R'
0325   01C0 4C                  0X4C ; 'L'
;
0326   01C1 49                  0X49 ; 'I'
0327   01C2 4E                  0X4E ; 'N'
;
0328   01C3 CF                  0XCF ; 'O'
0329   01C4 46                  0X46 ; 'F'
0330   01C5 46                  0X46 ; 'F'
;
0331   01C6 C8                  0XC8 ; 'H'
0332   01C7 49                  0X49 ; 'I'
0333   01C8 4D                  0X4D ; 'M'
0334   01C9 45                  0X45 ; 'E'
0335   01CA 4D                  0X4D ; 'M'
;
0336   01CB D4                  0XD4 ; 'T'
0336   01cc 48                  0X48 ; 'H'
0336   01cd 45                  0X45 ; 'E'
0337   01CE 4E                  0X4E ; 'N'
;
0338   01CF CE                  0XCE ; 'N'
0338   01d0 4F                  0X4F ; 'O'
0339   01D1 54                  0X54 ; 'T'
;
0340   01D2 D3                  0XD3 ; 'S'
0340   01d3 54                  0X54 ; 'T'
0341   01D4 45                  0X45 ; 'E'
0342   01D5 50                  0X50 ; 'P'
;
0343   01D6 AB                  0XAB ; '+'
;
0344   01D7 AD                  0XAD ; '-'
;
0345   01D8 AA                  0XAA ; '*'
;
0346   01D9 AF                  0XAF ; '/'
;
0347   01DA DE                  0XDE ; '^'
;
0347   01db C1                  0XC1 ; 'A'
0348   01DC 4E                  0X4E ; 'N'
0349   01DD 44                  0X44 ; 'D'
;
0350   01DE CF                  0XCF ; 'O'
0351   01DF 52                  0X52 ; 'R'
;
0352   01E0 D8                  0XD8 ; 'X'
0353   01E1 4F                  0X4F ; 'O'
0354   01E2 52                  0X52 ; 'R'
;
0355   01E3 C5                  0XC5 ; 'E'
0356   01E4 51                  0X51 ; 'Q'
0357   01E5 56                  0X56 ; 'V'
;
0358   01E6 C9                  0XC9 ; 'I'
0359   01E7 4D                  0X4D ; 'M'
0360   01E8 50                  0X50 ; 'P'
;
0361   01E9 CD                  0XCD ; 'M'
0361   01ea 4F                  0X4F ; 'O'
0361   01eb 44                  0X44 ; 'D'
;
0362   01EC DC                  0XDC ; '\'
;
0362   01ed BE                  0XBE ; '>'
;
0362   01ee BD                  0XBD ; '='
;
0363   01EF BC                  0XBC ; '<'
;
0364   01F0 D3                  0XD3 ; 'S'
0364   01f1 47                  0X47 ; 'G'
0365   01F2 4E                  0X4E ; 'N'
;
0366   01F3 C9                  0XC9 ; 'I'
0367   01F4 4E                  0X4E ; 'N'
;
0368   01F5 54                  0X54 ; 'T'
0369   01F6 C1                  0XC1 ; 'A'
0370   01F7 42                  0X42 ; 'B'
0371   01F8 53                  0X53 ; 'S'
;
0372   01F9 C6                  0XC6 ; 'F'
0372   01fa 52                  0X52 ; 'R'
0373   01FB 45                  0X45 ; 'E'
;
0374   01FC C9                  0XC9 ; 'I'
0375   01FD 4E                  0X4E ; 'N'
0376   01FE 50                  0X50 ; 'P'
;
0377   01FF CC                  0XCC ; 'L'
0377   0200 50                  0X50 ; 'P'
0377   0201 4F                  0X4F ; 'O'
0378   0202 53                  0X53 ; 'S'
;
0379   0203 D0                  0XD0 ; 'P'
0380   0204 4F                  0X4F ; 'O'
0381   0205 53                  0X53 ; 'S'
;
0382   0206 D3                  0XD3 ; 'S'
0382   0207 51                  0X51 ; 'Q'
0383   0208 52                  0X52 ; 'R'
;
0384   0209 D2                  0XD2 ; 'R'
0384   020a 4E                  0X4E ; 'N'
0384   020b 44                  0X44 ; 'D'
;
0385   020C CC                  0XCC ; 'L'
0385   020d 4F                  0X4F ; 'O'
0385   020e 47                  0X47 ; 'G'
;
0386   020F C5                  0XC5 ; 'E'
0387   0210 58                  0X58 ; 'X'
0388   0211 50                  0X50 ; 'P'
;
0389   0212 C3                  0XC3 ; 'C'
0389   0213 4F                  0X4F ; 'O'
0389   0214 53                  0X53 ; 'S'
;
0390   0215 D3                  0XD3 ; 'S'
0390   0216 49                  0X49 ; 'I'
0391   0217 4E                  0X4E ; 'N'
;
0392   0218 D4                  0XD4 ; 'T'
0392   0219 41                  0X41 ; 'A'
0392   021a 4E                  0X4E ; 'N'
;
0393   021B C1                  0XC1 ; 'A'
0394   021C 54                  0X54 ; 'T'
0395   021D 4E                  0X4E ; 'N'
;
0396   021E D0                  0XD0 ; 'P'
0397   021F 45                  0X45 ; 'E'
0398   0220 45                  0X45 ; 'E'
0399   0221 4B                  0X4B ; 'K'
;
0400   0222 C5                  0XC5 ; 'E'
0401   0223 4F                  0X4F ; 'O'
0402   0224 46                  0X46 ; 'F'
;
0403   0225 CC                  0XCC ; 'L'
0403   0226 4F                  0X4F ; 'O'
0403   0227 43                  0X43 ; 'C'
;
0404   0228 CC                  0XCC ; 'L'
0404   0229 4F                  0X4F ; 'O'
0404   022a 46                  0X46 ; 'F'
;
0405   022B C3                  0XC3 ; 'C'
0405   022c 49                  0X49 ; 'I'
0405   022d 4E                  0X4E ; 'N'
0406   022E 54                  0X54 ; 'T'
;
0407   022F C3                  0XC3 ; 'C'
0407   0230 53                  0X53 ; 'S'
0407   0231 4E                  0X4E ; 'N'
0408   0232 47                  0X47 ; 'G'
;
0409   0233 C3                  0XC3 ; 'C'
0409   0234 44                  0X44 ; 'D'
0409   0235 42                  0X42 ; 'B'
0410   0236 4C                  0X4C ; 'L'
;
0411   0237 C6                  0XC6 ; 'F'
0411   0238 49                  0X49 ; 'I'
0412   0239 58                  0X58 ; 'X'
;
0413   023A CC                  0XCC ; 'L'
0413   023b 45                  0X45 ; 'E'
0413   023c 4E                  0X4E ; 'N'
;
0414   023D D3                  0XD3 ; 'S'
0414   023e 54                  0X54 ; 'T'
0415   023F 52                  0X52 ; 'R'
0416   0240 24                  0X24 ; '$'
;
0417   0241 D6                  0XD6 ; 'V'
0417   0242 41                  0X41 ; 'A'
0418   0243 4C                  0X4C ; 'L'
;
0419   0244 C1                  0XC1 ; 'A'
0420   0245 53                  0X53 ; 'S'
0421   0246 43                  0X43 ; 'C'
;
0422   0247 C3                  0XC3 ; 'C'
0422   0248 48                  0X48 ; 'H'
0422   0249 52                  0X52 ; 'R'
0423   024A 24                  0X24 ; '$'
;
0424   024B D3                  0XD3 ; 'S'
0424   024c 50                  0X50 ; 'P'
0425   024D 41                  0X41 ; 'A'
0426   024E 43                  0X43 ; 'C'
0427   024F 45                  0X45 ; 'E'
0428   0250 24                  0X24 ; '$'
;
0429   0251 CC                  0XCC ; 'L'
0429   0252 45                  0X45 ; 'E'
0429   0253 46                  0X46 ; 'F'
0430   0254 54                  0X54 ; 'T'
0431   0255 24                  0X24 ; '$'
;
0432   0256 D2                  0XD2 ; 'R'
0432   0257 49                  0X49 ; 'I'
0432   0258 47                  0X47 ; 'G'
0433   0259 48                  0X48 ; 'H'
0434   025A 54                  0X54 ; 'T'
0435   025B 24                  0X24 ; '$'
;
0436   025C CD                  0XCD ; 'M'
0436   025d 49                  0X49 ; 'I'
0436   025e 44                  0X44 ; 'D'
0437   025F 24                  0X24 ; '$'
;025FH -  End of function keywords SGN to MID$
0438   0260 A7                  ANA A
0439   0261 80                  ADD B
0440   0262 7B                  MOV A,E
0441   0263 40                  MOV B,B
0442   0264 2D                  DCR L
0443   0265 07                  RLC
0444   0266 50                  MOV D,B
0445   0267 41                  MOV B,C
0446   0268 A5                  ANA L
0447   0269 09                  DAD B
0448   026A AA                  XRA D
0449   026B 0C                  INR C
0450   026C 41                  MOV B,C
0451   026D 47                  MOV B,A
0452   026E E0                  RPO
0453   026F 0C                  INR C
0454   0270 CA 09 3D            JZ L0060
0455   0273 09                  DAD B
0456   0274 16 09               MVI D,09H
0457   0276 21 0B 5B            LXI H,5B0BH
0458   0279 40                  MOV B,B
0459   027A 25                  DCR H
0460   027B 09                  DAD B
0461   027C 6D                  MOV L,L
0462   027D 09                  DAD B
0463   027E A7                  ANA A
0464   027F 09                  DAD B
0465   0280 76                  HLT
0466   0281 40                  MOV B,B
0467   0282 8C                  ADC H
0468   0283 1D                  DCR E
0469   0284 A7                  ANA A
0470   0285 09                  DAD B
0471   0286 4C                  MOV C,H
0472   0287 0C                  INR C
0473   0288 71                  MOV M,C
0474   0289 5B                  MOV E,E
0475   028A 16 0B               MVI D,0BH
0476   028C B7                  ORA A
0477   028D 0A                  LDAX B
0478   028E 13                  INX D
0479   028F 11 36 0A            LXI D,0A36H
0480   0292 38                  UNRECOGNIZED
0481   0293 50                  MOV D,B
0482   0294 99                  SBB C
0483   0295 4C                  MOV C,H
0484   0296 F6 4D               ORI 4DH
0485   0298 3E 4D               MVI A,4DH
0486   029A 3F                  CMC
0487   029B 4D                  MOV C,L
0488   029C 05                  DCR B
0489   029D 1F                  RAR
0490   029E 9D                  SBB L
0491   029F 4D                  MOV C,L
0492   02A0 36 50               MVI M,50H
0493   02A2 55                  MOV D,L
0494   02A3 0B                  DCX B
0495   02A4 79                  MOV A,C
0496   02A5 08                  UNRECOGNIZED
0497   02A6 94                  SUB H
0498   02A7 12                  STAX D
0499   02A8 5D                  MOV E,L
0500   02A9 0B                  DCX B
0501   02AA B6                  ORA M
0502   02AB 40                  MOV B,B
0503   02AC 47                  MOV B,A
0504   02AD 11 42 11            LXI D,1142H
0505   02B0 D5                  PUSH D
0506   02B1 40                  MOV B,B
0507   02B2 4F                  MOV C,A
0508   02B3 23                  INX H
0509   02B4 58                  MOV E,B
0510   02B5 22 75 19            SHLD 1975H
0511   02B8 87                  ADD A
0512   02B9 19                  DAD D
0513   02BA BD                  CMP L
0514   02BB 19                  DAD D
0515   02BC 6A                  MOV L,D
0516   02BD 1A                  LDAX D
0517   02BE 6A                  MOV L,D
0518   02BF 1A                  LDAX D
0519   02C0 81                  ADD C
0520   02C1 1B                  DCX D
0521   02C2 0D                  DCR C
0522   02C3 42                  MOV B,D
0523   02C4 05                  DCR B
0524   02C5 42                  MOV B,D
0525   02C6 8E                  ADC M
0526   02C7 1D                  DCR E
0527   02C8 29                  DAD H
0528   02C9 1E 20               MVI E,20H
0529   02CB 1C                  INR E
0530   02CC 2F                  CMA
0531   02CD 1C                  INR E
0532   02CE B5                  ORA L
0533   02CF 1D                  DCR E
0534   02D0 FD                  UNRECOGNIZED
0535   02D1 7B                  MOV A,E
0536   02D2 22 14 C3            SHLD 0C314H
0537   02D5 1D                  DCR E
0538   02D6 BC                  CMP H
0539   02D7 54                  MOV D,H
0540   02D8 44                  MOV B,H
0541   02D9 1A                  LDAX D
0542   02DA 08                  UNRECOGNIZED
0543   02DB 20                  RIM
0544   02DC 63                  MOV H,E
0545   02DD 1F                  RAR
0546   02DE EB                  XCHG
0547   02DF 1D                  DCR E
0548   02E0 CF                  RST 1
0549   02E1 20                  RIM
0550   02E2 79                  MOV A,C
0551   02E3 79                  MOV A,C
0552   02E4 7C                  MOV A,H
0553   02E5 7C                  MOV A,H
0554   02E6 7F                  MOV A,A
0555   02E7 50                  MOV D,B
0556   02E8 46                  MOV B,M
0557   02E9 3C                  INR A
0558   02EA 32 28 7A            STA 7A28H
0559   02ED 7B                  MOV A,E
0560   02EE 93                  SUB E
0561   02EF 35                  DCR M
0562   02F0 00                  NOP
0563   02F1 00                  NOP
0564   02F2 DA 34 B2            JC L0061
0565   02F5 35                  DCR M
0566   02F6 03                  INX B
0567   02F7 35                  DCR M
0568   02F8 51                  MOV D,C
0569   02F9 2B                  DCX H
0570   02FA 42                  MOV B,D
0571   02FB 2B                  DCX H
0572   02FC D8                  RC
0573   02FD 2C                  INR L
0574   02FE A0                  ANA B
0575   02FF 2D                  DCR L
0576   0300 67                  MOV H,A
0577   0301 3D                  DCR A
0578   0302 D3 34               OUT 34H
0579   0304 CD 37 D6            CALL L0062
0580   0307 37                  STC
0581   0308 DC 37 E7            CC L0063
0582   030B 37                  STC
0583   030C 58                  MOV E,B
0584   030D 3D                  DCR A
0585   030E 71                  MOV M,C
0586   030F 34                  INR M
0587   0310 DD                  UNRECOGNIZED
0588   0311 36 D1               MVI M,0D1H
0589   0313 36 FE               MVI M,0FEH
0590   0315 36 14               MVI M,14H
0591   0317 0F                  RRC
0592   0318 D0                  RNC
0593   0319 3D                  DCR A
0594   031A 9B                  SBB E
0595   031B 34                  INR M
;025FH -  End of function keywords SGN to MID$
; Start of two character error messages
; NF
0596   031C 4E                  0X4E ; 'N'
0597   031D 46                  0X46 ; 'F'
;
0598   031E 53                  0X53 ; 'S'
0599   031F 4E                  0X4E ; 'N'
;
0600   0320 52                  0X52 ; 'R'
0601   0321 47                  0X47 ; 'G'
;
0602   0322 4F                  0X4F ; 'O'
0603   0323 44                  0X44 ; 'D'
;
0604   0324 46                  0X46 ; 'F'
0605   0325 43                  0X43 ; 'C'
;
0606   0326 4F                  0X4F ; 'O'
0607   0327 56                  0X56 ; 'V'
;
0608   0328 4F                  0X4F ; 'O'
0609   0329 4D                  0X4D ; 'M'
;
0610   032A 55                  0X55 ; 'U'
0611   032B 4C                  0X4C ; 'L'
;
0612   032C 42                  0X42 ; 'B'
0613   032D 53                  0X53 ; 'S'
;
0614   032E 44                  0X44 ; 'D'
0615   032F 44                  0X44 ; 'D'
;
0616   0330 2F                  0X2F ; '/'
0617   0331 30                  0X30 ; '0'
;
0618   0332 49                  0X49 ; 'I'
0619   0333 44                  0X44 ; 'D'
;
0620   0334 54                  0X54 ; 'T'
0621   0335 4D                  0X4D ; 'M'
;
0622   0336 4F                  0X4F ; 'O'
0623   0337 53                  0X53 ; 'S'
;
0624   0338 4C                  0X4C ; 'L'
0625   0339 53                  0X53 ; 'S'
;
0626   033A 53                  0X53 ; 'S'
0627   033B 54                  0X54 ; 'T'
;
0628   033C 43                  0X43 ; 'C'
0629   033D 4E                  0X4E ; 'N'
;
0630   033E 49                  0X49 ; 'I'
0631   033F 4F                  0X4F ; 'O'
;
0632   0340 4E                  0X4E ; 'N'
0633   0341 52                  0X52 ; 'R'
;
0634   0342 52                  0X52 ; 'R'
0635   0343 57                  0X57 ; 'W'
;
0636   0344 55                  0X55 ; 'U'
0637   0345 45                  0X45 ; 'E'
;
0638   0346 4D                  0X4D ; 'M'
0639   0347 4F                  0X4F ; 'O'
;
0640   0348 49                  0X49 ; 'I'
0641   0349 45                  0X45 ; 'E'
;
0642   034A 42                  0X42 ; 'B'
0643   034B 4E                  0X4E ; 'N'
;
0644   034C 46                  0X46 ; 'F'
0645   034D 46                  0X46 ; 'F'
;
0646   034E 41                  0X41 ; 'A'
0647   034F 4F                  0X4F ; 'O'
;
0648   0350 45                  0X45 ; 'E'
0649   0351 46                  0X46 ; 'F'
;
0650   0352 4E                  0X4E ; 'N'
0651   0353 4D                  0X4D ; 'M'
;
0652   0354 44                  0X44 ; 'D'
0653   0355 53                  0X53 ; 'S'
;
0654   0356 46                  0X46 ; 'F'
0655   0357 4C                  0X4C ; 'L'
;
0656   0358 43                  0X43 ; 'C'
0657   0359 46                  0X46 ; 'F'
;0359H -  End of error message text
;035AH -  Initialization image loaded at F5F0H-F76FH on cold boot
0658   035A 4D                  MOV C,L
0659   035B 8A                  ADC D
0660   035C 00                  NOP
0661   035D 00                  NOP
0662   035E F0                  RP
0663   035F F5                  PUSH PSW
0664   0360 C9                  RET
0665   0361 00                  NOP
0666   0362 00                  NOP
0667   0363 FB                  EI
0668   0364 C9                  RET
0669   0365 00                  NOP
0670   0366 C9                  RET
0671   0367 00                  NOP
0672   0368 00                  NOP
0673   0369 C9                  RET
0674   036A 00                  NOP
0675   036B 00                  NOP
0676   036C C3 3C 14            JMP L0064
;036FH -  Code loaded at F605H on boot to detect external ROM
0677   036F 3E 01               MVI A,01H
0678   0371 D3 E8               OUT 0E8H
0679   0373 21 40 00            LXI H,0040H
0680   0376 11 AB FA            LXI D,0FAABH
0681   0379 7E                  MOV A,M
0682   037A 12                  STAX D
0683   037B 23                  INX H
0684   037C 13                  INX D
0685   037D 7D                  MOV A,L
0686   037E D6 48               SUI 48H
0687   0380 C2 0F F6            JNZ L0065
0688   0383 D3 E8               OUT 0E8H
0689   0385 2A AB FA            LHLD 0FAABH
0690   0388 11 41 42            LXI D,4241H
0691   038B C3 18 00            JMP L0066
0692   038E F3                  DI
0693   038F 3E 01               MVI A,01H
0694   0391 D3 E8               OUT 0E8H
0695   0393 C7                  RST 0
0696   0394 00                  NOP
0697   0395 01 4C 51            LXI B,514CH
0698   0398 65                  MOV H,L
0699   0399 52                  MOV D,D
0700   039A C9                  RET
0701   039B 00                  NOP
0702   039C 00                  NOP
0703   039D 00                  NOP
0704   039E 00                  NOP
0705   039F FF                  RST 7
0706   03A0 FF                  RST 7
0707   03A1 00                  NOP
0708   03A2 00                  NOP
0709   03A3 00                  NOP
0710   03A4 00                  NOP
0711   03A5 00                  NOP
0712   03A6 00                  NOP
0713   03A7 00                  NOP
0714   03A8 00                  NOP
0715   03A9 00                  NOP
0716   03AA 01 01 08            LXI B,0801H
0717   03AD 28                  UNRECOGNIZED
0718   03AE 00                  NOP
0719   03AF 00                  NOP
0720   03B0 00                  NOP
0721   03B1 01 01 01            LXI B,0101H
0722   03B4 01 19 28            LXI B,2819H
0723   03B7 00                  NOP
0724   03B8 00                  NOP
0725   03B9 00                  NOP
0726   03BA 50                  MOV D,B
0727   03BB 38                  UNRECOGNIZED
0728   03BC 30                  SIM
0729   03BD 00                  NOP
0730   03BE 00                  NOP
0731   03BF 00                  NOP
0732   03C0 00                  NOP
0733   03C1 00                  NOP
0734   03C2 00                  NOP
0735   03C3 00                  NOP
0736   03C4 00                  NOP
0737   03C5 00                  NOP
0738   03C6 00                  NOP
0739   03C7 00                  NOP
0740   03C8 64                  MOV H,H
0741   03C9 FF                  RST 7
0742   03CA 00                  NOP
0743   03CB 00                  NOP
0744   03CC 33                  INX SP
0745   03CD 37                  STC
0746   03CE 49                  MOV C,C
0747   03CF 31 45 C3            LXI SP,0C345H
0748   03D2 00                  NOP
0749   03D3 00                  NOP
0750   03D4 00                  NOP
0751   03D5 C9                  RET
0752   03D6 00                  NOP
0753   03D7 C9                  RET
0754   03D8 D3 00               OUT 00H
0755   03DA C9                  RET
0756   03DB DB 00               IN 00H
0757   03DD C9                  RET
0758   03DE 3A 00 00            LDA 0000H
0759   03E1 00                  NOP
0760   03E2 00                  NOP
0761   03E3 00                  NOP
0762   03E4 00                  NOP
0763   03E5 00                  NOP
0764   03E6 00                  NOP
0765   03E7 0E 00               MVI C,00H
0766   03E9 27                  DAA
0767   03EA FD                  UNRECOGNIZED
0768   03EB FE FF               CPI 0FFH
0769   03ED C4 FC 00            CNZ L0067
0770   03F0 00                  NOP
;03E9H -  End of initialization image
; ' Error'
0771   03F1 20                  RIM
0772   03F2 45                  MOV B,L
0773   03F3 72                  MOV M,D
0774   03F4 72                  MOV M,D
0775   03F5 6F                  MOV L,A
0776   03F6 72                  MOV M,D
0777   03F7 00                  NOP
; ' in '
0778   03F8 20                  RIM
0779   03F9 69                  MOV L,C
0780   03FA 6E                  MOV L,M
0781   03FB 20                  RIM
0782   03FC 00                  NOP
; 'Ok' CR LF
0783   03FD 4F                  MOV C,A
0784   03FE 6B                  MOV L,E
0785   03FF 0D                  DCR C
0786   0400 0A                  LDAX B
0787   0401 00                  NOP
; 'Break'
0788   0402 42                  MOV B,D
0789   0403 72                  MOV M,D
0790   0404 65                  MOV H,L
0791   0405 61                  MOV H,C
0792   0406 6B                  MOV L,E
0793   0407 00                  NOP
;0401H -  Pop the return address for a NEXT or RETURN off the stack.
0794   0408 21 04 00    L0173:  LXI H,0004H
0795   040B 39                  DAD SP
0796   040C 7E          L0069:  MOV A,M
0797   040D 23                  INX H
0798   040E FE 81               CPI 81H
0799   0410 C0                  RNZ
0800   0411 4E                  MOV C,M
0801   0412 23                  INX H
0802   0413 46                  MOV B,M
0803   0414 23                  INX H
0804   0415 E5                  PUSH H
0805   0416 60                  MOV H,B
0806   0417 69                  MOV L,C
0807   0418 7A                  MOV A,D
0808   0419 B3                  ORA E
0809   041A EB                  XCHG
0810   041B CA 20 04            JZ L0068
0811   041E EB                  XCHG
0812   041F DF                  RST 3
0813   0420 01 16 00    L0068:  LXI B,0016H
0814   0423 E1                  POP H
0815   0424 C8                  RZ
0816   0425 09                  DAD B
0817   0426 C3 0C 04            JMP L0069
;0422H -  Initialize system and go to BASIC ready
0818   0429 01 08 05    L1360:  LXI B,0508H
0819   042C C3 94 04            JMP L0070
0820   042F 2A 81 F6    L0156:  LHLD 0F681H
0821   0432 7C                  MOV A,H
0822   0433 A5                  ANA L
0823   0434 3C                  INR A
0824   0435 CA 41 04            JZ L0071
0825   0438 3A B9 FB            LDA 0FBB9H
0826   043B B7                  ORA A
0827   043C 1E 13               MVI E,13H
0828   043E C2 64 04            JNZ L0072
0829   0441 C3 92 40    L0071:  JMP L0073
0830   0444 C3 64 04            JMP L0072
0831   0447 2A A6 FB    L0255:  LHLD 0FBA6H
0832   044A 22 81 F6            SHLD 0F681H
;0446H -  Generate Syntax error
0833   044D 1E 02       L0002:  MVI E,02H
0834   044F 01 1E 0B            LXI B,0B1EH
;0449H -  Generate /0 error
0835   0452 01 1E 01            LXI B,011EH
;044CH -  Generate NF error
0836   0455 01 1E 0A            LXI B,0A1EH
;044FH -  Generate DD error
0837   0458 01 1E 14            LXI B,141EH
;0452H -  Generate RW error
0838   045B 01 1E 06            LXI B,061EH
;0455H -  Generate OV error
0839   045E 01 1E 16            LXI B,161EH
;0458H -  Generate MO error
0840   0461 01 1E 0D            LXI B,0D1EH
;045BH -  Generate TM error
;045DH -  Generate error number E
;         Entry:
;                E - Contains error number
0841   0464 AF                  XRA A
0842   0465 32 B9 FC            STA 0FCB9H
0843   0468 2A 85 F6            LHLD 0F685H
0844   046B 7C                  MOV A,H
0845   046C B5                  ORA L
0846   046D CA 7A 04            JZ L0074
0847   0470 3A F8 FB            LDA 0FBF8H
0848   0473 77                  MOV M,A
0849   0474 21 00 00            LXI H,0000H
0850   0477 22 85 F6            SHLD 0F685H
0851   047A FB          L0074:  EI
0852   047B 2A 59 F6            LHLD 0F659H
0853   047E E5                  PUSH H
0854   047F 7C                  MOV A,H
0855   0480 B5                  ORA L
0856   0481 C0                  RNZ
0857   0482 2A 81 F6            LHLD 0F681H
0858   0485 22 B1 FB            SHLD 0FBB1H
0859   0488 7C                  MOV A,H
0860   0489 A5                  ANA L
0861   048A 3C                  INR A
0862   048B CA 91 04            JZ L0075
0863   048E 22 B3 FB            SHLD 0FBB3H
0864   0491 01 9A 04    L0075:  LXI B,049AH
;048DH -  Restore old stack and runtime pointers and jump to the 
;        address in BC.
;         Entry:
;               BC - Address to jump to following the call
;         Exit:
;               HL - Contains the contents of FB99H
0865   0494 2A AF FB    L0070:  LHLD 0FBAFH
0866   0497 C3 54 3F            JMP L0076
0867   049A C1                  POP B
0868   049B 7B                  MOV A,E
0869   049C 4B                  MOV C,E
0870   049D 32 79 F6            STA 0F679H
0871   04A0 2A AD FB            LHLD 0FBADH
0872   04A3 22 B5 FB            SHLD 0FBB5H
0873   04A6 EB                  XCHG
0874   04A7 2A B1 FB            LHLD 0FBB1H
0875   04AA 7C                  MOV A,H
0876   04AB A5                  ANA L
0877   04AC 3C                  INR A
0878   04AD CA BD 04            JZ L0077
0879   04B0 22 BC FB            SHLD 0FBBCH
0880   04B3 EB                  XCHG
0881   04B4 22 BE FB            SHLD 0FBBEH
0882   04B7 2A B7 FB            LHLD 0FBB7H
0883   04BA 7C                  MOV A,H
0884   04BB B5                  ORA L
0885   04BC EB                  XCHG
0886   04BD 21 B9 FB    L0077:  LXI H,0FBB9H
0887   04C0 CA CC 04            JZ L0078
0888   04C3 A6                  ANA M
0889   04C4 C2 CC 04            JNZ L0078
0890   04C7 35                  DCR M
0891   04C8 EB                  XCHG
0892   04C9 C3 32 08            JMP L0079
0893   04CC AF          L0078:  XRA A
0894   04CD 77                  MOV M,A
0895   04CE 59                  MOV E,C
0896   04CF CD 86 4B            CALL L0080
0897   04D2 7B                  MOV A,E
0898   04D3 FE 3B               CPI 3BH
0899   04D5 D2 E2 04            JNC L0081
0900   04D8 FE 32               CPI 32H
0901   04DA D2 E4 04            JNC L0082
0902   04DD FE 17               CPI 17H
0903   04DF DA E7 04            JC L0083
0904   04E2 3E 30       L0081:  MVI A,30H
0905   04E4 D6 1B       L0082:  SUI 1BH
0906   04E6 5F                  MOV E,A
0907   04E7 16 00       L0083:  MVI D,00H
0908   04E9 21 1A 03            LXI H,031AH
0909   04EC 19                  DAD D
0910   04ED 19                  DAD D
0911   04EE 3E 3F               MVI A,3FH
0912   04F0 E7                  RST 4
0913   04F1 7E                  MOV A,M
0914   04F2 E7                  RST 4
0915   04F3 D7                  RST 2
0916   04F4 E7                  RST 4
0917   04F5 21 F1 03            LXI H,03F1H
0918   04F8 E5                  PUSH H
0919   04F9 2A B1 FB            LHLD 0FBB1H
0920   04FC E3                  XTHL
0921   04FD CD 8A 27    L1127:  CALL L0084
0922   0500 E1                  POP H
0923   0501 7C                  MOV A,H
0924   0502 A5                  ANA L
0925   0503 3C                  INR A
0926   0504 C4 A5 39            CNZ L0085
0927   0507 3E C1               MVI A,0C1H
;0501H -  Vector to BASIC Ready (Ok).  Pops the last address off the 
;        stack to maintain stack integrity.
;0502H -  Vector to BASIC Ready (Ok). Jump.
0928   0509 CD 65 4B            CALL L0086
0929   050C CD 0C 4F            CALL L0087
0930   050F CD 86 4B            CALL L0080
0931   0512 21 FD 03            LXI H,03FDH
0932   0515 CD 8A 27            CALL L0084
;0511H -  Vector to BASIC ready that does not reinitialize the system 
;        or print Ok.  This is primarily used inside the BASIC ready 
;        routine if a blank or illegal line was entered and control 
;        must return back to BASIC ready.
0933   0518 21 FF FF    L0089:  LXI H,0FFFFH
0934   051B 22 81 F6            SHLD 0F681H
0935   051E 21 74 F6            LXI H,0F674H
0936   0521 22 AD FB            SHLD 0FBADH
0937   0524 CD F8 45            CALL L0088
0938   0527 DA 18 05            JC L0089
;0523H -  Perform operation in (HL) buffer and return to BASIC ready.
;         Entry:
;               HL - Points to the BASIC command line terminated with 
;                    a carriage return (0DH)
0939   052A D7                  RST 2
0940   052B 3C                  INR A
0941   052C 3D                  DCR A
0942   052D CA 18 05            JZ L0089
0943   0530 F5                  PUSH PSW
0944   0531 CD F2 08            CALL L0090
0945   0534 D2 3D 05            JNC L0091
0946   0537 CD F6 41            CALL L0092
0947   053A CA 4D 04            JZ L0002
0948   053D 2B          L0091:  DCX H
0949   053E 7E                  MOV A,M
0950   053F FE 20               CPI 20H
0951   0541 CA 3D 05            JZ L0091
0952   0544 FE 09               CPI 09H
0953   0546 CA 3D 05            JZ L0091
0954   0549 23                  INX H
0955   054A 7E                  MOV A,M
0956   054B FE 20               CPI 20H
0957   054D CC 30 34            CZ L0093
0958   0550 D5                  PUSH D
0959   0551 CD 4D 06            CALL L0094
0960   0554 D1                  POP D
0961   0555 F1                  POP PSW
0962   0556 22 AD FB            SHLD 0FBADH
0963   0559 D2 E3 4E            JNC L0095
0964   055C D5                  PUSH D
0965   055D C5                  PUSH B
0966   055E AF                  XRA A
0967   055F 32 A9 FB            STA 0FBA9H
0968   0562 D7                  RST 2
0969   0563 B7                  ORA A
0970   0564 F5                  PUSH PSW
0971   0565 EB                  XCHG
0972   0566 22 B3 FB            SHLD 0FBB3H
0973   0569 EB                  XCHG
0974   056A CD 2F 06            CALL L0096
0975   056D DA 76 05            JC L0097
0976   0570 F1                  POP PSW
0977   0571 F5                  PUSH PSW
0978   0572 CA 54 09            JZ L0098
0979   0575 B7                  ORA A
0980   0576 C5          L0097:  PUSH B
0981   0577 D2 98 05            JNC L0099
0982   057A CD 75 12            CALL L0100
0983   057D 79                  MOV A,C
0984   057E 93                  SUB E
0985   057F 4F                  MOV C,A
0986   0580 78                  MOV A,B
0987   0581 9A                  SBB D
0988   0582 47                  MOV B,A
0989   0583 2A C0 FB            LHLD 0FBC0H
0990   0586 09                  DAD B
0991   0587 22 C0 FB            SHLD 0FBC0H
0992   058A 2A C2 FB            LHLD 0FBC2H
0993   058D 09                  DAD B
0994   058E 22 C2 FB            SHLD 0FBC2H
0995   0591 2A DE FA            LHLD 0FADEH
0996   0594 09                  DAD B
0997   0595 22 DE FA            SHLD 0FADEH
0998   0598 D1          L0099:  POP D
0999   0599 F1                  POP PSW
1000   059A D5                  PUSH D
1001   059B CA E1 05            JZ L0101
1002   059E D1                  POP D
1003   059F 21 00 00            LXI H,0000H
1004   05A2 22 B7 FB            SHLD 0FBB7H
1005   05A5 2A C4 FB            LHLD 0FBC4H
1006   05A8 E3                  XTHL
1007   05A9 C1                  POP B
1008   05AA E5                  PUSH H
1009   05AB 09                  DAD B
1010   05AC E5                  PUSH H
1011   05AD CD CC 3E            CALL L0102
1012   05B0 E1                  POP H
1013   05B1 22 C4 FB            SHLD 0FBC4H
1014   05B4 EB                  XCHG
1015   05B5 74                  MOV M,H
1016   05B6 C1                  POP B
1017   05B7 D1                  POP D
1018   05B8 E5                  PUSH H
1019   05B9 23                  INX H
1020   05BA 23                  INX H
1021   05BB 73                  MOV M,E
1022   05BC 23                  INX H
1023   05BD 72                  MOV M,D
1024   05BE 23                  INX H
1025   05BF 11 88 F6            LXI D,0F688H
1026   05C2 E5                  PUSH H
1027   05C3 2A C0 FB            LHLD 0FBC0H
1028   05C6 09                  DAD B
1029   05C7 22 C0 FB            SHLD 0FBC0H
1030   05CA 2A C2 FB            LHLD 0FBC2H
1031   05CD 09                  DAD B
1032   05CE 22 C2 FB            SHLD 0FBC2H
1033   05D1 2A DE FA            LHLD 0FADEH
1034   05D4 09                  DAD B
1035   05D5 22 DE FA            SHLD 0FADEH
1036   05D8 E1                  POP H
1037   05D9 1A          L0103:  LDAX D
1038   05DA 77                  MOV M,A
1039   05DB 23                  INX H
1040   05DC 13                  INX D
1041   05DD B7                  ORA A
1042   05DE C2 D9 05            JNZ L0103
1043   05E1 D1          L0101:  POP D
1044   05E2 CD FB 05            CALL L0104
1045   05E5 2A 9E FC            LHLD 0FC9EH
1046   05E8 22 BA FB            SHLD 0FBBAH
1047   05EB CD 04 3F            CALL L0105
1048   05EE 2A BA FB            LHLD 0FBBAH
1049   05F1 22 9E FC            SHLD 0FC9EH
1050   05F4 C3 18 05            JMP L0089
;05F0H -  Update in memory line addresses for the current BASIC program 
;        lines.  Address calculations start with the start of BASIC 
;        pointer.  This routine is primarily used if a program has 
;        been loaded off tape or if the current program has been 
;        edited.
;         Exit:
;            HL, DE, and AF are destroyed
1051   05F7 2A 83 F6    L0616:  LHLD 0F683H
1052   05FA EB                  XCHG
1053   05FB 62          L0104:  MOV H,D
1054   05FC 6B                  MOV L,E
1055   05FD 7E                  MOV A,M
1056   05FE 23                  INX H
1057   05FF B6                  ORA M
1058   0600 C8                  RZ
1059   0601 23                  INX H
1060   0602 23                  INX H
1061   0603 23                  INX H
1062   0604 AF                  XRA A
1063   0605 BE          L0106:  CMP M
1064   0606 23                  INX H
1065   0607 C2 05 06            JNZ L0106
1066   060A EB                  XCHG
1067   060B 73                  MOV M,E
1068   060C 23                  INX H
1069   060D 72                  MOV M,D
1070   060E C3 FB 05            JMP L0104
1071   0611 11 00 00    L0357:  LXI D,0000H
1072   0614 D5                  PUSH D
1073   0615 CA 22 06            JZ L0107
1074   0618 D1                  POP D
1075   0619 CD E7 08            CALL L0108
1076   061C D5                  PUSH D
1077   061D CA 2B 06            JZ L0109
1078   0620 CF                  RST 1
1079   0621 D1                  POP D
1080   0622 11 FA FF    L0107:  LXI D,0FFFAH
1081   0625 C4 E7 08            CNZ L0108
1082   0628 C2 4D 04            JNZ L0002
1083   062B EB          L0109:  XCHG
1084   062C D1                  POP D
;0626H -  Put the contents of HL on the stack (to save it) and find the 
;        line number in DE via 0628H.  On return from this routine, 
;        you must POP HL off the stack to return it to its original 
;        value and to preserve stack balance.
1085   062D E3          L0194:  XTHL
1086   062E E5                  PUSH H
;0628H -  Find line # DE starting at the beginning of the current BASIC 
;        program.
;         Entry:
;               DE - Line number to find
;         Exit:
;               BC - Address of line
;               HL - Address of next line
;           C flag - Set if line found
;           Z flag - Set if line not found
1087   062F 2A 83 F6    L0096:  LHLD 0F683H
;062BH -  Find the line number in DE via 0628H but start at the address 
;        in HL instead at the start of the BASIC program.
;         Entry:
;               HL - Location to start line number search
;               DE - Line number to find
;         Exit:
;               See 0628H
1088   0632 44          L0110:  MOV B,H
1089   0633 4D                  MOV C,L
1090   0634 7E                  MOV A,M
1091   0635 23                  INX H
1092   0636 B6                  ORA M
1093   0637 2B                  DCX H
1094   0638 C8                  RZ
1095   0639 23                  INX H
1096   063A 23                  INX H
1097   063B 7E                  MOV A,M
1098   063C 23                  INX H
1099   063D 66                  MOV H,M
1100   063E 6F                  MOV L,A
1101   063F DF                  RST 3
1102   0640 60                  MOV H,B
1103   0641 69                  MOV L,C
1104   0642 7E                  MOV A,M
1105   0643 23                  INX H
1106   0644 66                  MOV H,M
1107   0645 6F                  MOV L,A
1108   0646 3F                  CMC
1109   0647 C8                  RZ
1110   0648 3F                  CMC
1111   0649 D0                  RNC
1112   064A C3 32 06            JMP L0110
;0646H -  Token compression routine
1113   064D AF          L0094:  XRA A
1114   064E 32 78 FB            STA 0FB78H
1115   0651 4F                  MOV C,A
1116   0652 11 88 F6            LXI D,0F688H
1117   0655 7E          L0114:  MOV A,M
1118   0656 FE 20               CPI 20H
1119   0658 CA F1 06            JZ L0111
1120   065B 47                  MOV B,A
1121   065C FE 22               CPI 22H
1122   065E CA 16 07            JZ L0112
1123   0661 B7                  ORA A
1124   0662 CA 1D 07            JZ L0113
1125   0665 23                  INX H
1126   0666 B7                  ORA A
1127   0667 FA 55 06            JM L0114
1128   066A 2B                  DCX H
1129   066B 3A 78 FB            LDA 0FB78H
1130   066E B7                  ORA A
1131   066F 7E                  MOV A,M
1132   0670 C2 F1 06            JNZ L0111
1133   0673 FE 3F               CPI 3FH
1134   0675 3E A3               MVI A,0A3H
1135   0677 CA F1 06            JZ L0111
1136   067A 7E                  MOV A,M
1137   067B FE 30               CPI 30H
1138   067D DA 85 06            JC L0115
1139   0680 FE 3C               CPI 3CH
1140   0682 DA F1 06            JC L0111
1141   0685 D5          L0115:  PUSH D
1142   0686 11 7F 00            LXI D,007FH
1143   0689 C5                  PUSH B
1144   068A 01 D4 06            LXI B,06D4H
1145   068D C5                  PUSH B
1146   068E 06 7F               MVI B,7FH
1147   0690 7E                  MOV A,M
1148   0691 FE 61               CPI 61H
1149   0693 DA 9E 06            JC L0116
1150   0696 FE 7B               CPI 7BH
1151   0698 D2 9E 06            JNC L0116
1152   069B E6 5F               ANI 5FH
1153   069D 77                  MOV M,A
1154   069E 4E          L0116:  MOV C,M
1155   069F EB                  XCHG
1156   06A0 23          L0117:  INX H
1157   06A1 B6                  ORA M
1158   06A2 F2 A0 06            JP L0117
1159   06A5 04                  INR B
1160   06A6 7E                  MOV A,M
1161   06A7 E6 7F               ANI 7FH
1162   06A9 C8                  RZ
1163   06AA B9                  CMP C
1164   06AB C2 A0 06            JNZ L0117
1165   06AE EB                  XCHG
1166   06AF E5                  PUSH H
1167   06B0 13          L0121:  INX D
1168   06B1 1A                  LDAX D
1169   06B2 B7                  ORA A
1170   06B3 FA D0 06            JM L0118
1171   06B6 4F                  MOV C,A
1172   06B7 78                  MOV A,B
1173   06B8 FE 88               CPI 88H
1174   06BA C2 BF 06            JNZ L0119
1175   06BD D7                  RST 2
1176   06BE 2B                  DCX H
1177   06BF 23          L0119:  INX H
1178   06C0 7E                  MOV A,M
1179   06C1 FE 61               CPI 61H
1180   06C3 DA C8 06            JC L0120
1181   06C6 E6 5F               ANI 5FH
1182   06C8 B9          L0120:  CMP C
1183   06C9 CA B0 06            JZ L0121
1184   06CC E1                  POP H
1185   06CD C3 9E 06            JMP L0116
1186   06D0 48          L0118:  MOV C,B
1187   06D1 F1                  POP PSW
1188   06D2 EB                  XCHG
1189   06D3 C9                  RET
1190   06D4 EB                  XCHG
1191   06D5 79                  MOV A,C
1192   06D6 C1                  POP B
1193   06D7 D1                  POP D
1194   06D8 EB                  XCHG
1195   06D9 FE 91               CPI 91H
1196   06DB 36 3A               MVI M,3AH
1197   06DD C2 E2 06            JNZ L0122
1198   06E0 0C                  INR C
1199   06E1 23                  INX H
1200   06E2 FE FF       L0122:  CPI 0FFH
1201   06E4 C2 F0 06            JNZ L0123
1202   06E7 36 3A               MVI M,3AH
1203   06E9 23                  INX H
1204   06EA 06 8E               MVI B,8EH
1205   06EC 70                  MOV M,B
1206   06ED 23                  INX H
1207   06EE 0C                  INR C
1208   06EF 0C                  INR C
1209   06F0 EB          L0123:  XCHG
1210   06F1 23          L0111:  INX H
1211   06F2 12                  STAX D
1212   06F3 13                  INX D
1213   06F4 0C                  INR C
1214   06F5 D6 3A               SUI 3AH
1215   06F7 CA FF 06            JZ L0124
1216   06FA FE 49               CPI 49H
1217   06FC C2 02 07            JNZ L0125
1218   06FF 32 78 FB    L0124:  STA 0FB78H
1219   0702 D6 54       L0125:  SUI 54H
1220   0704 CA 0C 07            JZ L0126
1221   0707 D6 71               SUI 71H
1222   0709 C2 55 06            JNZ L0114
1223   070C 47          L0126:  MOV B,A
1224   070D 7E          L0127:  MOV A,M
1225   070E B7                  ORA A
1226   070F CA 1D 07            JZ L0113
1227   0712 B8                  CMP B
1228   0713 CA F1 06            JZ L0111
1229   0716 23          L0112:  INX H
1230   0717 12                  STAX D
1231   0718 0C                  INR C
1232   0719 13                  INX D
1233   071A C3 0D 07            JMP L0127
1234   071D 21 05 00    L0113:  LXI H,0005H
1235   0720 44                  MOV B,H
1236   0721 09                  DAD B
1237   0722 44                  MOV B,H
1238   0723 4D                  MOV C,L
1239   0724 21 87 F6            LXI H,0F687H
1240   0727 12                  STAX D
1241   0728 13                  INX D
1242   0729 12                  STAX D
1243   072A 13                  INX D
1244   072B 12                  STAX D
1245   072C C9                  RET
;0726H -  FOR Statement
1246   072D 3E 64               MVI A,64H
1247   072F 32 A8 FB            STA 0FBA8H
1248   0732 CD CA 09            CALL L0128
1249   0735 C1                  POP B
1250   0736 E5                  PUSH H
1251   0737 CD A5 09            CALL L0129
1252   073A 22 A4 FB            SHLD 0FBA4H
1253   073D 21 02 00            LXI H,0002H
1254   0740 39                  DAD SP
1255   0741 CD 0C 04    L0131:  CALL L0069
1256   0744 C2 5F 07            JNZ L0130
1257   0747 09                  DAD B
1258   0748 D5                  PUSH D
1259   0749 2B                  DCX H
1260   074A 56                  MOV D,M
1261   074B 2B                  DCX H
1262   074C 5E                  MOV E,M
1263   074D 23                  INX H
1264   074E 23                  INX H
1265   074F E5                  PUSH H
1266   0750 2A A4 FB            LHLD 0FBA4H
1267   0753 DF                  RST 3
1268   0754 E1                  POP H
1269   0755 D1                  POP D
1270   0756 C2 41 07            JNZ L0131
1271   0759 D1                  POP D
1272   075A F9                  SPHL
1273   075B 22 AF FB            SHLD 0FBAFH
1274   075E 0E D1               MVI C,0D1H
1275   0760 EB                  XCHG
1276   0761 0E 0C               MVI C,0CH
1277   0763 CD DB 3E            CALL L0132
1278   0766 E5                  PUSH H
1279   0767 2A A4 FB            LHLD 0FBA4H
1280   076A E3                  XTHL
1281   076B E5                  PUSH H
1282   076C 2A 81 F6            LHLD 0F681H
1283   076F E3                  XTHL
1284   0770 CF                  RST 1
1285   0771 C1                  POP B
;076BH -  TO Statement
1286   0772 EF                  RST 5
1287   0773 CA 62 04            JZ L0133
1288   0776 F5                  PUSH PSW
1289   0777 CD B2 0D            CALL L0134
1290   077A F1                  POP PSW
1291   077B E5                  PUSH H
1292   077C D2 98 07            JNC L0135
1293   077F F2 CF 07            JP L0136
1294   0782 CD DA 34            CALL L0137
1295   0785 E3                  XTHL
1296   0786 11 01 00            LXI D,0001H
1297   0789 7E                  MOV A,M
;0783H -  STEP Statement
1298   078A FE CF               CPI 0CFH
1299   078C CC 19 11            CZ L0138
1300   078F D5                  PUSH D
1301   0790 E5                  PUSH H
1302   0791 EB                  XCHG
1303   0792 CD F4 33            CALL L0139
1304   0795 C3 F1 07            JMP L0140
1305   0798 CD 93 35    L0135:  CALL L0141
1306   079B D1                  POP D
1307   079C 21 F8 FF            LXI H,0FFF8H
1308   079F 39                  DAD SP
1309   07A0 F9                  SPHL
1310   07A1 D5                  PUSH D
1311   07A2 CD 60 34            CALL L0142
1312   07A5 E1                  POP H
1313   07A6 7E                  MOV A,M
1314   07A7 FE CF               CPI 0CFH
1315   07A9 11 5F 32            LXI D,325FH
1316   07AC 3E 01               MVI A,01H
1317   07AE C2 BE 07            JNZ L0143
1318   07B1 D7                  RST 2
1319   07B2 CD B2 0D            CALL L0134
1320   07B5 E5                  PUSH H
1321   07B6 CD 93 35            CALL L0141
1322   07B9 F7                  RST 6
1323   07BA 11 2A FC            LXI D,0FC2AH
1324   07BD E1                  POP H
1325   07BE 44          L0143:  MOV B,H
1326   07BF 4D                  MOV C,L
1327   07C0 21 F8 FF            LXI H,0FFF8H
1328   07C3 39                  DAD SP
1329   07C4 F9                  SPHL
1330   07C5 F5                  PUSH PSW
1331   07C6 C5                  PUSH B
1332   07C7 CD 3E 34            CALL L0144
1333   07CA E1                  POP H
1334   07CB F1                  POP PSW
1335   07CC C3 F8 07            JMP L0145
1336   07CF CD 03 35    L0136:  CALL L0146
1337   07D2 CD 16 34            CALL L0147
1338   07D5 E1                  POP H
1339   07D6 C5                  PUSH B
1340   07D7 D5                  PUSH D
1341   07D8 01 41 10            LXI B,1041H
1342   07DB 11 00 00            LXI D,0000H
1343   07DE 7E                  MOV A,M
1344   07DF FE CF               CPI 0CFH
1345   07E1 3E 01               MVI A,01H
1346   07E3 C2 F2 07            JNZ L0148
1347   07E6 CD B3 0D            CALL L0149
1348   07E9 E5                  PUSH H
1349   07EA CD 03 35            CALL L0146
1350   07ED CD 16 34            CALL L0147
1351   07F0 F7                  RST 6
1352   07F1 E1          L0140:  POP H
1353   07F2 D5          L0148:  PUSH D
1354   07F3 C5                  PUSH B
1355   07F4 C5                  PUSH B
1356   07F5 C5                  PUSH B
1357   07F6 C5                  PUSH B
1358   07F7 C5                  PUSH B
1359   07F8 B7          L0145:  ORA A
1360   07F9 C2 FE 07            JNZ L0150
1361   07FC 3E 02               MVI A,02H
1362   07FE 4F          L0150:  MOV C,A
1363   07FF EF                  RST 5
1364   0800 47                  MOV B,A
1365   0801 C5                  PUSH B
1366   0802 E5                  PUSH H
1367   0803 2A AB FB            LHLD 0FBABH
1368   0806 E3                  XTHL
1369   0807 06 81       L1143:  MVI B,81H
1370   0809 C5                  PUSH B
1371   080A 33                  INX SP
;0804H -  BASIC program execution routine.  This routine evaluates the 
;        compressed BASIC code and executes the appropriate 
;        instructions.  Upon return from most instructions, this 
;        address is placed on the top of the stack.  Routines which 
;        wish to continue program execution should vector here if the 
;        stack becomes unbalanced.
;         Entry:
;               HL - Points to compressed BASIC code to execute
1372   080B CD 9D 6A    L0700:  CALL L0151
1373   080E C4 04 40            CNZ L0152
1374   0811 3A 5B F6            LDA 0F65BH
1375   0814 B7                  ORA A
1376   0815 C4 07 40            CNZ L0153
1377   0818 CD FC 13    L0543:  CALL L0154
1378   081B 22 AD FB            SHLD 0FBADH
1379   081E EB                  XCHG
1380   081F 21 00 00            LXI H,0000H
1381   0822 39                  DAD SP
1382   0823 22 AF FB            SHLD 0FBAFH
1383   0826 EB                  XCHG
1384   0827 7E                  MOV A,M
1385   0828 FE 3A               CPI 3AH
1386   082A CA 41 08            JZ L0155
1387   082D B7                  ORA A
1388   082E C2 4D 04            JNZ L0002
1389   0831 23                  INX H
1390   0832 7E          L0079:  MOV A,M
1391   0833 23                  INX H
1392   0834 B6                  ORA M
1393   0835 CA 2F 04            JZ L0156
1394   0838 23                  INX H
1395   0839 5E                  MOV E,M
1396   083A 23                  INX H
1397   083B 56                  MOV D,M
1398   083C EB                  XCHG
1399   083D 22 81 F6            SHLD 0F681H
1400   0840 EB                  XCHG
;083AH -  Start executing a program at the address in HL.  This routine 
;        starts the 0804H program executer routine.
;         Entry:
;               HL - Points to location where program exectution is to 
;                    begin.
1401   0841 D7          L0155:  RST 2
1402   0842 11 0B 08            LXI D,080BH
1403   0845 D5                  PUSH D
1404   0846 C8          L0220:  RZ
;0840H -  Execute the compressed instruction token in the A register. 
;        Any parameters for the instruction must be in the buffer 
;        pointed to by HL.  If the contents of the A register are less 
;        than 128 then a LET is executed.
;         Entry:
;                A - Compressed BASIC token for the instruction that 
;                    is to be executed.
;               HL - Points to the buffer which contains the 
;                    parameters to the BASIC statement.
1405   0847 D6 80       L0202:  SUI 80H
1406   0849 DA CA 09            JC L0128
1407   084C FE 40               CPI 40H
1408   084E D2 FB 10            JNC L0157
1409   0851 07                  RLC
1410   0852 4F                  MOV C,A
1411   0853 06 00               MVI B,00H
1412   0855 EB                  XCHG
1413   0856 21 62 02            LXI H,0262H
1414   0859 09                  DAD B
1415   085A 4E                  MOV C,M
1416   085B 23                  INX H
1417   085C 46                  MOV B,M
1418   085D C5                  PUSH B
1419   085E EB                  XCHG
;0858H -  RST 10H routine (see 10H).
1420   085F 23          L0003:  INX H
;0859H -  Same as RST 10H but with no pre-increment of HL (see 10H).
1421   0860 7E                  MOV A,M
1422   0861 FE 3A               CPI 3AH
1423   0863 D0                  RNC
1424   0864 FE 20               CPI 20H
1425   0866 CA 5F 08            JZ L0003
1426   0869 FE 0B               CPI 0BH
1427   086B D2 73 08            JNC L0158
1428   086E FE 09               CPI 09H
1429   0870 D2 5F 08            JNC L0003
1430   0873 FE 30       L0158:  CPI 30H
1431   0875 3F                  CMC
1432   0876 3C                  INR A
1433   0877 3D                  DCR A
1434   0878 C9                  RET
;0872H -  DEF Statement
1435   0879 FE E0               CPI 0E0H
1436   087B CA 8D 08            JZ L0159
1437   087E FE 44               CPI 44H
1438   0880 C2 93 08            JNZ L0160
1439   0883 D7                  RST 2
1440   0884 CF                  RST 1
1441   0885 42                  MOV B,D
1442   0886 CF                  RST 1
1443   0887 4C                  MOV C,H
;0881H -  DEFDBL statement
1444   0888 1E 08               MVI E,08H
1445   088A C3 A8 08            JMP L0161
;0886H -  DEFINT statement
1446   088D D7          L0159:  RST 2
1447   088E 1E 02               MVI E,02H
1448   0890 C3 A8 08            JMP L0161
1449   0893 CF          L0160:  RST 1
1450   0894 53                  MOV D,E
1451   0895 FE 4E               CPI 4EH
1452   0897 C2 A2 08            JNZ L0162
1453   089A D7                  RST 2
1454   089B CF                  RST 1
1455   089C 47                  MOV B,A
;0896H -  DEFSNG statement
1456   089D 1E 04               MVI E,04H
1457   089F C3 A8 08            JMP L0161
1458   08A2 CF          L0162:  RST 1
1459   08A3 54                  MOV D,H
1460   08A4 CF                  RST 1
1461   08A5 52                  MOV D,D
;089FH -  DEFSTR statement
1462   08A6 1E 03               MVI E,03H
;08A1H -  Declare the variables in the buffer pointed to by HL to the 
;        type in the E register.  The variables in the buffer pointed 
;        to by HL must be in the same form as those used for a 
;        DEF(type) statement in BASIC.
;         Entry:
;                E - Type of variable (2-integer, 3-string, 4-single 
;                    precision, 8-double precision)
;               HL - Points to buffer containing variables to declare.
1463   08A8 CD CD 40    L0161:  CALL L0163
1464   08AB 01 4D 04            LXI B,044DH
1465   08AE C5                  PUSH B
1466   08AF D8                  RC
1467   08B0 D6 41               SUI 41H
1468   08B2 4F                  MOV C,A
1469   08B3 47                  MOV B,A
1470   08B4 D7                  RST 2
1471   08B5 FE D1               CPI 0D1H
1472   08B7 C2 C3 08            JNZ L0164
1473   08BA D7                  RST 2
1474   08BB CD CD 40            CALL L0163
1475   08BE D8                  RC
1476   08BF D6 41               SUI 41H
1477   08C1 47                  MOV B,A
1478   08C2 D7                  RST 2
1479   08C3 78          L0164:  MOV A,B
1480   08C4 91                  SUB C
1481   08C5 D8                  RC
1482   08C6 3C                  INR A
1483   08C7 E3                  XTHL
1484   08C8 21 CC FB            LXI H,0FBCCH
1485   08CB 06 00               MVI B,00H
1486   08CD 09                  DAD B
1487   08CE 73          L0165:  MOV M,E
1488   08CF 23                  INX H
1489   08D0 3D                  DCR A
1490   08D1 C2 CE 08            JNZ L0165
1491   08D4 E1                  POP H
1492   08D5 7E                  MOV A,M
1493   08D6 FE 2C               CPI 2CH
1494   08D8 C0                  RNZ
1495   08D9 D7                  RST 2
1496   08DA C3 A8 08            JMP L0161
1497   08DD D7          L1256:  RST 2
1498   08DE CD 1A 11    L1129:  CALL L0166
1499   08E1 F0                  RP
;08DBH -  Generate FC Error
1500   08E2 1E 05       L0214:  MVI E,05H
1501   08E4 C3 64 04            JMP L0072
;08E0H -  Evaluate line number text pointed to by HL.  This routine 
;        will evaluate an ASCII line number or a "."
;         Entry:
;               HL - Points to buffer where line number describer is.  
;                    The buffer is terminated by any non-number other 
;                    than a ".".
;         Exit:
;               Same as 08EBH
1502   08E7 7E          L0108:  MOV A,M
1503   08E8 FE 2E               CPI 2EH
1504   08EA EB                  XCHG
1505   08EB 2A B3 FB            LHLD 0FBB3H
1506   08EE EB                  XCHG
1507   08EF CA 5F 08            JZ L0003
;08EBH -  Convert the ASCII number pointed to by HL to binary.  Number 
;        must be less than 65529 and be an integer.
;         Entry:
;               HL - Points to the ASCII number buffer.  The buffer is 
;                    terminated by any non-number.
;         Exit:
;               DE - Contains the binary equivalent of buffer
;                A - Destroyed
;           C flag - Set if a number was present
1508   08F2 2B          L0090:  DCX H
;08ECH -  Same as 08EBH except that conversion starts at HL+1
1509   08F3 11 00 00    L0203:  LXI D,0000H
1510   08F6 D7          L0168:  RST 2
1511   08F7 D0                  RNC
1512   08F8 E5                  PUSH H
1513   08F9 F5                  PUSH PSW
1514   08FA 21 98 19            LXI H,1998H
1515   08FD DF                  RST 3
1516   08FE DA 13 09            JC L0167
1517   0901 62                  MOV H,D
1518   0902 6B                  MOV L,E
1519   0903 19                  DAD D
1520   0904 29                  DAD H
1521   0905 19                  DAD D
1522   0906 29                  DAD H
1523   0907 F1                  POP PSW
1524   0908 D6 30               SUI 30H
1525   090A 5F                  MOV E,A
1526   090B 16 00               MVI D,00H
1527   090D 19                  DAD D
1528   090E EB                  XCHG
1529   090F E1                  POP H
1530   0910 C3 F6 08            JMP L0168
1531   0913 F1          L0167:  POP PSW
1532   0914 E1                  POP H
1533   0915 C9          L0916:  RET
;090FH -  RUN Statement
1534   0916 CA 04 3F            JZ L0105
1535   0919 D2 3C 4D            JNC L0169
1536   091C CD 08 3F            CALL L0170
1537   091F 01 0B 08            LXI B,080BH
1538   0922 C3 3C 09            JMP L0171
;091EH -  GOSUB Statement
1539   0925 0E 03               MVI C,03H
1540   0927 CD DB 3E            CALL L0132
1541   092A C1                  POP B
1542   092B E5                  PUSH H
1543   092C E5                  PUSH H
1544   092D 2A 81 F6            LHLD 0F681H
1545   0930 E3                  XTHL
1546   0931 01 00 00            LXI B,0000H
1547   0934 C5                  PUSH B
1548   0935 01 0B 08            LXI B,080BH
1549   0938 3E 8C               MVI A,8CH
1550   093A F5                  PUSH PSW
1551   093B 33                  INX SP
1552   093C C5          L0171:  PUSH B
;0936H -  GOTO Statement
1553   093D CD F2 08    L0219:  CALL L0090
1554   0940 CD A7 09    L0209:  CALL L0172
1555   0943 23                  INX H
1556   0944 E5                  PUSH H
1557   0945 2A 81 F6            LHLD 0F681H
1558   0948 DF                  RST 3
1559   0949 E1                  POP H
1560   094A DC 32 06            CC L0110
1561   094D D4 2F 06            CNC L0096
1562   0950 60                  MOV H,B
1563   0951 69                  MOV L,C
1564   0952 2B                  DCX H
1565   0953 D8                  RC
;094DH -  Generate UL error
1566   0954 1E 08       L0098:  MVI E,08H
1567   0956 C3 64 04            JMP L0072
1568   0959 E5          L1123:  PUSH H
1569   095A E5                  PUSH H
1570   095B 2A 81 F6            LHLD 0F681H
1571   095E E3                  XTHL
1572   095F C5                  PUSH B
1573   0960 3E 8C               MVI A,8CH
1574   0962 F5                  PUSH PSW
1575   0963 33                  INX SP
1576   0964 EB                  XCHG
1577   0965 2B                  DCX H
1578   0966 22 AD FB            SHLD 0FBADH
1579   0969 23                  INX H
1580   096A C3 32 08            JMP L0079
;0966H -  RETURN Statement
1581   096D C0                  RNZ
1582   096E 16 FF               MVI D,0FFH
1583   0970 CD 08 04            CALL L0173
1584   0973 FE 8C               CPI 8CH
1585   0975 CA 79 09            JZ L0174
1586   0978 2B                  DCX H
1587   0979 F9          L0174:  SPHL
1588   097A 22 AF FB            SHLD 0FBAFH
1589   097D 1E 03               MVI E,03H
1590   097F C2 64 04            JNZ L0072
1591   0982 E1                  POP H
1592   0983 7C                  MOV A,H
1593   0984 B5                  ORA L
1594   0985 CA 8E 09            JZ L0175
1595   0988 7E                  MOV A,M
1596   0989 E6 01               ANI 01H
1597   098B C4 A3 3F            CNZ L0176
1598   098E E1          L0175:  POP H
1599   098F 22 81 F6            SHLD 0F681H
1600   0992 23                  INX H
1601   0993 7C                  MOV A,H
1602   0994 B5                  ORA L
1603   0995 C2 9F 09            JNZ L0177
1604   0998 3A A9 FB            LDA 0FBA9H
1605   099B B7                  ORA A
1606   099C C2 08 05            JNZ L0178
1607   099F 21 0B 08    L0177:  LXI H,080BH
1608   09A2 E3                  XTHL
1609   09A3 3E E1               MVI A,0E1H
;099EH -  DATA Statement
1610   09A5 01 3A 0E            LXI B,0E3AH
;09A0H -  REM Statement
1611   09A8 00                  NOP
1612   09A9 06 00               MVI B,00H
1613   09AB 79          L0179:  MOV A,C
1614   09AC 48                  MOV C,B
1615   09AD 47                  MOV B,A
1616   09AE 7E          L0180:  MOV A,M
1617   09AF B7                  ORA A
1618   09B0 C8                  RZ
1619   09B1 B8                  CMP B
1620   09B2 C8                  RZ
1621   09B3 23                  INX H
1622   09B4 FE 22               CPI 22H
1623   09B6 CA AB 09            JZ L0179
1624   09B9 D6 8A               SUI 8AH
1625   09BB C2 AE 09            JNZ L0180
1626   09BE B8                  CMP B
1627   09BF 8A                  ADC D
1628   09C0 57                  MOV D,A
1629   09C1 C3 AE 09            JMP L0180
1630   09C4 F1                  POP PSW
1631   09C5 C6 03               ADI 03H
1632   09C7 C3 DD 09            JMP L0181
;09C3H -  LET Statement.  Perform the variable assignment in the buffer 
;        pointed to by HL.
;         Entry:
;               HL - Points to the variable assignment to evaluate.
1633   09CA CD 46 47    L0128:  CALL L0182
1634   09CD CF                  RST 1
1635   09CE DD                  UNRECOGNIZED
1636   09CF EB                  XCHG
1637   09D0 22 AB FB            SHLD 0FBABH
1638   09D3 EB                  XCHG
1639   09D4 D5                  PUSH D
1640   09D5 3A 77 FB            LDA 0FB77H
1641   09D8 F5                  PUSH PSW
1642   09D9 CD B2 0D            CALL L0134
1643   09DC F1                  POP PSW
1644   09DD E3          L0181:  XTHL
1645   09DE 47          L0271:  MOV B,A
1646   09DF 3A 77 FB            LDA 0FB77H
1647   09E2 B8                  CMP B
1648   09E3 78                  MOV A,B
1649   09E4 CA ED 09            JZ L0183
1650   09E7 CD DE 10            CALL L0184
1651   09EA 3A 77 FB            LDA 0FB77H
1652   09ED 11 2A FC    L0183:  LXI D,0FC2AH
1653   09F0 FE 02               CPI 02H
1654   09F2 C2 F8 09            JNZ L0185
1655   09F5 11 2C FC            LXI D,0FC2CH
1656   09F8 E5          L0185:  PUSH H
1657   09F9 FE 03               CPI 03H
1658   09FB C2 30 0A            JNZ L0186
1659   09FE 2A 2C FC            LHLD 0FC2CH
1660   0A01 E5                  PUSH H
1661   0A02 23                  INX H
1662   0A03 5E                  MOV E,M
1663   0A04 23                  INX H
1664   0A05 56                  MOV D,M
1665   0A06 21 87 F6            LXI H,0F687H
1666   0A09 DF                  RST 3
1667   0A0A DA 24 0A            JC L0187
1668   0A0D 2A C8 FB            LHLD 0FBC8H
1669   0A10 DF                  RST 3
1670   0A11 D1                  POP D
1671   0A12 D2 2C 0A            JNC L0188
1672   0A15 21 9A FB            LXI H,0FB9AH
1673   0A18 DF                  RST 3
1674   0A19 DA 23 0A            JC L0189
1675   0A1C 21 7C FB            LXI H,0FB7CH
1676   0A1F DF                  RST 3
1677   0A20 DA 2C 0A            JC L0188
1678   0A23 3E D1       L0189:  MVI A,0D1H
1679   0A25 CD 0E 29            CALL L0190
1680   0A28 EB                  XCHG
1681   0A29 CD 20 27            CALL L0191
1682   0A2C CD 0E 29    L0188:  CALL L0190
1683   0A2F E3                  XTHL
1684   0A30 CD 3E 34    L0186:  CALL L0144
1685   0A33 D1                  POP D
1686   0A34 E1                  POP H
1687   0A35 C9                  RET
;0A2FH -  ON Statement
1688   0A36 FE 94               CPI 94H
1689   0A38 C2 62 0A            JNZ L0192
;0A34H -  ON ERROR Statement
1690   0A3B D7                  RST 2
1691   0A3C CF                  RST 1
1692   0A3D 88                  ADC B
1693   0A3E CD F2 08            CALL L0090
1694   0A41 7A                  MOV A,D
1695   0A42 B3                  ORA E
1696   0A43 CA 4F 0A            JZ L0193
1697   0A46 CD 2D 06            CALL L0194
1698   0A49 50                  MOV D,B
1699   0A4A 59                  MOV E,C
1700   0A4B E1                  POP H
1701   0A4C D2 54 09            JNC L0098
1702   0A4F EB          L0193:  XCHG
1703   0A50 22 B7 FB            SHLD 0FBB7H
1704   0A53 EB                  XCHG
1705   0A54 D8                  RC
1706   0A55 3A B9 FB            LDA 0FBB9H
1707   0A58 B7                  ORA A
1708   0A59 7B                  MOV A,E
1709   0A5A C8                  RZ
1710   0A5B 3A 79 F6            LDA 0F679H
1711   0A5E 5F                  MOV E,A
1712   0A5F C3 91 04            JMP L0075
1713   0A62 CD C8 1A    L0192:  CALL L0195
1714   0A65 DA 9B 0A            JC L0196
1715   0A68 C5                  PUSH B
1716   0A69 D7                  RST 2
1717   0A6A CF                  RST 1
1718   0A6B 8C                  ADC H
1719   0A6C AF                  XRA A
1720   0A6D C1          L0199:  POP B
1721   0A6E C5                  PUSH B
1722   0A6F B9                  CMP C
1723   0A70 D2 4D 04            JNC L0002
1724   0A73 F5                  PUSH PSW
1725   0A74 CD F2 08            CALL L0090
1726   0A77 7A                  MOV A,D
1727   0A78 B3                  ORA E
1728   0A79 CA 85 0A            JZ L0197
1729   0A7C CD 2D 06            CALL L0194
1730   0A7F 50                  MOV D,B
1731   0A80 59                  MOV E,C
1732   0A81 E1                  POP H
1733   0A82 D2 54 09            JNC L0098
1734   0A85 F1          L0197:  POP PSW
1735   0A86 C1                  POP B
1736   0A87 F5                  PUSH PSW
1737   0A88 80                  ADD B
1738   0A89 C5                  PUSH B
1739   0A8A CD EB 1A            CALL L0198
1740   0A8D 2B                  DCX H
1741   0A8E D7                  RST 2
1742   0A8F C1                  POP B
1743   0A90 D1                  POP D
1744   0A91 C8                  RZ
1745   0A92 C5                  PUSH B
1746   0A93 D5                  PUSH D
1747   0A94 CF                  RST 1
1748   0A95 2C                  INR L
1749   0A96 F1                  POP PSW
1750   0A97 3C                  INR A
1751   0A98 C3 6D 0A            JMP L0199
1752   0A9B CD 35 11    L0196:  CALL L0200
1753   0A9E 7E                  MOV A,M
1754   0A9F 47                  MOV B,A
1755   0AA0 FE 8C               CPI 8CH
1756   0AA2 CA A8 0A            JZ L0201
1757   0AA5 CF                  RST 1
1758   0AA6 88                  ADC B
1759   0AA7 2B                  DCX H
1760   0AA8 4B          L0201:  MOV C,E
1761   0AA9 0D          L0204:  DCR C
1762   0AAA 78                  MOV A,B
1763   0AAB CA 47 08            JZ L0202
1764   0AAE CD F3 08            CALL L0203
1765   0AB1 FE 2C               CPI 2CH
1766   0AB3 C0                  RNZ
1767   0AB4 C3 A9 0A            JMP L0204
;0AB0H -  RESUME Statement
1768   0AB7 3A B9 FB            LDA 0FBB9H
1769   0ABA B7                  ORA A
1770   0ABB C2 C7 0A            JNZ L0205
1771   0ABE 32 B7 FB            STA 0FBB7H
1772   0AC1 32 B8 FB            STA 0FBB8H
1773   0AC4 C3 59 04            JMP L0206
1774   0AC7 3C          L0205:  INR A
1775   0AC8 32 79 F6            STA 0F679H
1776   0ACB 7E                  MOV A,M
1777   0ACC FE 82               CPI 82H
1778   0ACE CA E2 0A            JZ L0207
1779   0AD1 CD F2 08            CALL L0090
1780   0AD4 C0                  RNZ
1781   0AD5 7A                  MOV A,D
1782   0AD6 B3                  ORA E
1783   0AD7 CA E7 0A            JZ L0208
1784   0ADA CD 40 09            CALL L0209
1785   0ADD AF                  XRA A
1786   0ADE 32 B9 FB            STA 0FBB9H
1787   0AE1 C9                  RET
1788   0AE2 D7          L0207:  RST 2
1789   0AE3 C0                  RNZ
1790   0AE4 C3 EC 0A            JMP L0210
1791   0AE7 AF          L0208:  XRA A
1792   0AE8 32 B9 FB            STA 0FBB9H
1793   0AEB 3C                  INR A
1794   0AEC 2A B5 FB    L0210:  LHLD 0FBB5H
1795   0AEF EB                  XCHG
1796   0AF0 2A B1 FB            LHLD 0FBB1H
1797   0AF3 22 81 F6            SHLD 0F681H
1798   0AF6 EB                  XCHG
1799   0AF7 C0                  RNZ
1800   0AF8 7E                  MOV A,M
1801   0AF9 B7                  ORA A
1802   0AFA C2 01 0B            JNZ L0211
1803   0AFD 23                  INX H
1804   0AFE 23                  INX H
1805   0AFF 23                  INX H
1806   0B00 23                  INX H
1807   0B01 23          L0211:  INX H
1808   0B02 7A                  MOV A,D
1809   0B03 A3                  ANA E
1810   0B04 3C                  INR A
1811   0B05 C2 0F 0B            JNZ L0212
1812   0B08 3A A9 FB            LDA 0FBA9H
1813   0B0B 3D                  DCR A
1814   0B0C CA 8F 40            JZ L0213
1815   0B0F AF          L0212:  XRA A
1816   0B10 32 B9 FB            STA 0FBB9H
1817   0B13 C3 A5 09            JMP L0129
;0B0FH -  ERROR Statement
1818   0B16 CD 35 11            CALL L0200
1819   0B19 C0                  RNZ
1820   0B1A B7                  ORA A
1821   0B1B CA E2 08            JZ L0214
1822   0B1E C3 64 04            JMP L0072
;0B1AH -  IF Statement
1823   0B21 CD B2 0D            CALL L0134
1824   0B24 7E                  MOV A,M
1825   0B25 FE 2C               CPI 2CH
1826   0B27 CC 5F 08            CZ L0003
1827   0B2A FE 88               CPI 88H
1828   0B2C CA 32 0B            JZ L0215
1829   0B2F CF                  RST 1
1830   0B30 CD 2B E5            CALL L0216
1831   0B33 CD EA 33            CALL L0217
1832   0B36 E1                  POP H
1833   0B37 CA 41 0B            JZ L0218
1834   0B3A D7          L0222:  RST 2
1835   0B3B DA 3D 09            JC L0219
1836   0B3E C3 46 08            JMP L0220
1837   0B41 16 01       L0218:  MVI D,01H
1838   0B43 CD A5 09    L0221:  CALL L0129
1839   0B46 B7                  ORA A
1840   0B47 C8                  RZ
1841   0B48 D7                  RST 2
1842   0B49 FE 91               CPI 91H
1843   0B4B C2 43 0B            JNZ L0221
1844   0B4E 15                  DCR D
1845   0B4F C2 43 0B            JNZ L0221
1846   0B52 C3 3A 0B            JMP L0222
;0B4EH -  LPRINT Statement
1847   0B55 3E 01               MVI A,01H
1848   0B57 32 7C F6            STA 0F67CH
1849   0B5A C3 67 0B            JMP L0223
;0B56H -  PRINT Statement
1850   0B5D 0E 02               MVI C,02H
1851   0B5F CD F2 4E            CALL L0224
1852   0B62 FE 40               CPI 40H
1853   0B64 CC 28 1D            CZ L0225
1854   0B67 2B          L0223:  DCX H
1855   0B68 D7                  RST 2
1856   0B69 CC 99 4B            CZ L0226
1857   0B6C CA 40 0C    L0248:  JZ L0227
1858   0B6F FE C2               CPI 0C2H
1859   0B71 CA 5F 49            JZ L0228
1860   0B74 FE C0               CPI 0C0H
1861   0B76 CA 08 0C            JZ L0229
1862   0B79 E5                  PUSH H
1863   0B7A FE 2C               CPI 2CH
1864   0B7C CA D4 0B            JZ L0230
1865   0B7F FE 3B               CPI 3BH
1866   0B81 CA 3B 0C            JZ L0231
1867   0B84 C1                  POP B
1868   0B85 CD B2 0D            CALL L0134
1869   0B88 E5                  PUSH H
1870   0B89 EF                  RST 5
1871   0B8A CA CD 0B            JZ L0232
1872   0B8D CD C1 39            CALL L0233
1873   0B90 CD 44 27            CALL L0234
1874   0B93 36 20               MVI M,20H
1875   0B95 2A 2C FC            LHLD 0FC2CH
1876   0B98 34                  INR M
1877   0B99 CD F6 41            CALL L0092
1878   0B9C C2 C9 0B            JNZ L0235
1879   0B9F 2A 2C FC            LHLD 0FC2CH
1880   0BA2 3A 7C F6            LDA 0F67CH
1881   0BA5 B7                  ORA A
1882   0BA6 CA B2 0B            JZ L0236
1883   0BA9 3A 7B F6            LDA 0F67BH
1884   0BAC 86                  ADD M
1885   0BAD FE FF               CPI 0FFH
1886   0BAF C3 C0 0B            JMP L0237
1887   0BB2 3A 43 F6    L0236:  LDA 0F643H
1888   0BB5 47                  MOV B,A
1889   0BB6 3C                  INR A
1890   0BB7 CA C9 0B            JZ L0235
1891   0BBA 3A 8F F7            LDA 0F78FH
1892   0BBD 86                  ADD M
1893   0BBE 3D                  DCR A
1894   0BBF B8                  CMP B
1895   0BC0 DA C9 0B    L0237:  JC L0235
1896   0BC3 CC 9F 4B            CZ L0238
1897   0BC6 C4 99 4B            CNZ L0226
1898   0BC9 CD 8D 27    L0235:  CALL L0239
1899   0BCC B7                  ORA A
1900   0BCD CC 8D 27    L0232:  CZ L0239
1901   0BD0 E1                  POP H
1902   0BD1 C3 67 0B            JMP L0223
1903   0BD4 01 08 00    L0230:  LXI B,0008H
1904   0BD7 2A 9E FC            LHLD 0FC9EH
1905   0BDA 09                  DAD B
1906   0BDB CD F6 41            CALL L0092
1907   0BDE 7E                  MOV A,M
1908   0BDF C2 FF 0B            JNZ L0240
1909   0BE2 3A 7C F6            LDA 0F67CH
1910   0BE5 B7                  ORA A
1911   0BE6 CA F1 0B            JZ L0241
1912   0BE9 3A 7B F6            LDA 0F67BH
1913   0BEC FE EE               CPI 0EEH
1914   0BEE C3 F9 0B            JMP L0242
1915   0BF1 3A 7D F6    L0241:  LDA 0F67DH
1916   0BF4 47                  MOV B,A
1917   0BF5 3A 8F F7            LDA 0F78FH
1918   0BF8 B8                  CMP B
1919   0BF9 D4 99 4B    L0242:  CNC L0226
1920   0BFC D2 3B 0C            JNC L0231
1921   0BFF D6 0E       L0240:  SUI 0EH
1922   0C01 D2 FF 0B            JNC L0240
1923   0C04 2F                  CMA
1924   0C05 C3 32 0C            JMP L0243
;0C01H -  TAB Statement
1925   0C08 CD 34 11    L0229:  CALL L0244
1926   0C0B CF                  RST 1
1927   0C0C 29                  DAD H
1928   0C0D 2B                  DCX H
1929   0C0E E5                  PUSH H
1930   0C0F 01 08 00            LXI B,0008H
1931   0C12 2A 9E FC            LHLD 0FC9EH
1932   0C15 09                  DAD B
1933   0C16 CD F6 41            CALL L0092
1934   0C19 7E                  MOV A,M
1935   0C1A C2 2D 0C            JNZ L0245
1936   0C1D 3A 7C F6            LDA 0F67CH
1937   0C20 B7                  ORA A
1938   0C21 CA 2A 0C            JZ L0246
1939   0C24 3A 7B F6            LDA 0F67BH
1940   0C27 C3 2D 0C            JMP L0245
1941   0C2A 3A 8F F7    L0246:  LDA 0F78FH
1942   0C2D 2F          L0245:  CMA
1943   0C2E 83                  ADD E
1944   0C2F D2 3B 0C            JNC L0231
1945   0C32 3C          L0243:  INR A
1946   0C33 47                  MOV B,A
1947   0C34 3E 20               MVI A,20H
1948   0C36 E7          L0247:  RST 4
1949   0C37 05                  DCR B
1950   0C38 C2 36 0C            JNZ L0247
1951   0C3B E1          L0231:  POP H
1952   0C3C D7                  RST 2
1953   0C3D C3 6C 0B            JMP L0248
1954   0C40 AF          L0227:  XRA A
1955   0C41 32 7C F6            STA 0F67CH
1956   0C44 E5                  PUSH H
1957   0C45 67                  MOV H,A
1958   0C46 6F                  MOV L,A
1959   0C47 22 9E FC            SHLD 0FC9EH
1960   0C4A E1                  POP H
1961   0C4B C9                  RET
;0C45H -  LINE Statement
1962   0C4C FE 84               CPI 84H
1963   0C4E C2 36 1C            JNZ L0249
1964   0C51 D7                  RST 2
1965   0C52 FE 23               CPI 23H
1966   0C54 CA 22 4F            JZ L0250
1967   0C57 CD ED 10            CALL L0251
1968   0C5A 7E                  MOV A,M
1969   0C5B CD BB 0C            CALL L0252
1970   0C5E CD 46 47            CALL L0182
1971   0C61 CD B2 35            CALL L0253
1972   0C64 D5                  PUSH D
1973   0C65 E5                  PUSH H
1974   0C66 CD F8 45            CALL L0088
1975   0C69 D1                  POP D
1976   0C6A C1                  POP B
1977   0C6B DA 8F 40            JC L0213
1978   0C6E C5                  PUSH B
1979   0C6F D5                  PUSH D
1980   0C70 06 00               MVI B,00H
1981   0C72 CD 47 27            CALL L0254
1982   0C75 E1                  POP H
1983   0C76 3E 03               MVI A,03H
1984   0C78 C3 DD 09            JMP L0181
1985   0C7B 3F                  CMC
1986   0C7C 52                  MOV D,D
1987   0C7D 65                  MOV H,L
1988   0C7E 64                  MOV H,H
1989   0C7F 6F                  MOV L,A
1990   0C80 20                  RIM
1991   0C81 66                  MOV H,M
1992   0C82 72                  MOV M,D
1993   0C83 6F                  MOV L,A
1994   0C84 6D                  MOV L,L
1995   0C85 20                  RIM
1996   0C86 73                  MOV M,E
1997   0C87 74                  MOV M,H
1998   0C88 61                  MOV H,C
1999   0C89 72                  MOV M,D
2000   0C8A 74                  MOV M,H
2001   0C8B 0D                  DCR C
2002   0C8C 0A                  LDAX B
2003   0C8D 00                  NOP
2004   0C8E 3A AA FB    L0274:  LDA 0FBAAH
2005   0C91 B7                  ORA A
2006   0C92 C2 47 04            JNZ L0255
2007   0C95 C1                  POP B
2008   0C96 21 7B 0C            LXI H,0C7BH
2009   0C99 CD 8A 27            CALL L0084
2010   0C9C 2A AD FB            LHLD 0FBADH
2011   0C9F C9                  RET
;0C99H -  INPUT # Statement
2012   0CA0 CD F0 4E    L0258:  CALL L0256
2013   0CA3 E5                  PUSH H
2014   0CA4 21 8B F6            LXI H,0F68BH
2015   0CA7 C3 DB 0C            JMP L0257
;0CA3H -  INPUT Statement
2016   0CAA CD ED 10            CALL L0251
2017   0CAD 7E                  MOV A,M
2018   0CAE FE 23               CPI 23H
2019   0CB0 CA A0 0C            JZ L0258
2020   0CB3 CD ED 10            CALL L0251
2021   0CB6 7E                  MOV A,M
2022   0CB7 01 CB 0C            LXI B,0CCBH
2023   0CBA C5                  PUSH B
2024   0CBB FE 22       L0252:  CPI 22H
2025   0CBD 3E 00               MVI A,00H
2026   0CBF C0                  RNZ
2027   0CC0 CD 45 27            CALL L0259
2028   0CC3 CF                  RST 1
2029   0CC4 3B                  DCX SP
2030   0CC5 E5                  PUSH H
2031   0CC6 CD 8D 27            CALL L0239
2032   0CC9 E1                  POP H
2033   0CCA C9                  RET
2034   0CCB E5                  PUSH H
2035   0CCC CD F2 45            CALL L0260
2036   0CCF C1                  POP B
2037   0CD0 DA 8F 40            JC L0213
2038   0CD3 23                  INX H
2039   0CD4 7E                  MOV A,M
2040   0CD5 B7                  ORA A
2041   0CD6 2B                  DCX H
2042   0CD7 C5                  PUSH B
2043   0CD8 CA A4 09            JZ L0261
2044   0CDB 36 2C       L0257:  MVI M,2CH
2045   0CDD C3 E5 0C            JMP L0262
2046   0CE0 E5                  PUSH H
;0CD9H -  READ Statement
2047   0CE1 2A CA FB            LHLD 0FBCAH
2048   0CE4 F6 AF               ORI 0AFH
2049   0CE6 32 AA FB            STA 0FBAAH
2050   0CE9 E3                  XTHL
2051   0CEA C3 EF 0C            JMP L0263
2052   0CED CF          L0275:  RST 1
2053   0CEE 2C                  INR L
2054   0CEF CD 46 47    L0263:  CALL L0182
2055   0CF2 E3                  XTHL
2056   0CF3 D5                  PUSH D
2057   0CF4 7E                  MOV A,M
2058   0CF5 FE 2C               CPI 2CH
2059   0CF7 CA 15 0D            JZ L0264
2060   0CFA 3A AA FB            LDA 0FBAAH
2061   0CFD B7                  ORA A
2062   0CFE C2 89 0D            JNZ L0265
2063   0D01 3E 3F               MVI A,3FH
2064   0D03 E7                  RST 4
2065   0D04 CD F2 45            CALL L0260
2066   0D07 D1                  POP D
2067   0D08 C1                  POP B
2068   0D09 DA 8F 40            JC L0213
2069   0D0C 23                  INX H
2070   0D0D 7E                  MOV A,M
2071   0D0E 2B                  DCX H
2072   0D0F B7                  ORA A
2073   0D10 C5                  PUSH B
2074   0D11 CA A4 09            JZ L0261
2075   0D14 D5                  PUSH D
2076   0D15 CD F6 41    L0264:  CALL L0092
2077   0D18 C2 14 4F            JNZ L0266
2078   0D1B EF                  RST 5
2079   0D1C F5                  PUSH PSW
2080   0D1D C2 44 0D            JNZ L0267
2081   0D20 D7                  RST 2
2082   0D21 57                  MOV D,A
2083   0D22 47                  MOV B,A
2084   0D23 FE 22               CPI 22H
2085   0D25 CA 35 0D            JZ L0268
2086   0D28 3A AA FB            LDA 0FBAAH
2087   0D2B B7                  ORA A
2088   0D2C 57                  MOV D,A
2089   0D2D CA 32 0D            JZ L0269
2090   0D30 16 3A               MVI D,3AH
2091   0D32 06 2C       L0269:  MVI B,2CH
2092   0D34 2B                  DCX H
2093   0D35 CD 48 27    L0268:  CALL L0270
2094   0D38 F1                  POP PSW
2095   0D39 C6 03               ADI 03H
2096   0D3B EB                  XCHG
2097   0D3C 21 4C 0D            LXI H,0D4CH
2098   0D3F E3                  XTHL
2099   0D40 D5                  PUSH D
2100   0D41 C3 DE 09            JMP L0271
2101   0D44 D7          L0267:  RST 2
2102   0D45 01 38 0D            LXI B,0D38H
2103   0D48 C5                  PUSH B
2104   0D49 C3 19 38            JMP L0272
2105   0D4C 2B                  DCX H
2106   0D4D D7                  RST 2
2107   0D4E CA 56 0D            JZ L0273
2108   0D51 FE 2C               CPI 2CH
2109   0D53 C2 8E 0C            JNZ L0274
2110   0D56 E3          L0273:  XTHL
2111   0D57 2B                  DCX H
2112   0D58 D7                  RST 2
2113   0D59 C2 ED 0C            JNZ L0275
2114   0D5C D1                  POP D
2115   0D5D 3A AA FB            LDA 0FBAAH
2116   0D60 B7                  ORA A
2117   0D61 EB                  XCHG
2118   0D62 C2 71 40            JNZ L0276
2119   0D65 D5                  PUSH D
2120   0D66 CD F6 41            CALL L0092
2121   0D69 C2 74 0D            JNZ L0277
2122   0D6C 7E                  MOV A,M
2123   0D6D B7                  ORA A
2124   0D6E 21 78 0D            LXI H,0D78H
2125   0D71 C4 8A 27            CNZ L0084
2126   0D74 E1          L0277:  POP H
2127   0D75 C3 40 0C            JMP L0227
; '?Extra ignored' CR LF
2128   0D78 3F                  CMC
2129   0D79 45                  MOV B,L
2130   0D7A 78                  MOV A,B
2131   0D7B 74                  MOV M,H
2132   0D7C 72                  MOV M,D
2133   0D7D 61                  MOV H,C
2134   0D7E 20                  RIM
2135   0D7F 69                  MOV L,C
2136   0D80 67                  MOV H,A
2137   0D81 6E                  MOV L,M
2138   0D82 6F                  MOV L,A
2139   0D83 72                  MOV M,D
2140   0D84 65                  MOV H,L
2141   0D85 64                  MOV H,H
2142   0D86 0D                  DCR C
2143   0D87 0A                  LDAX B
2144   0D88 00                  NOP
;
2145   0D89 CD A5 09    L0265:  CALL L0129
2146   0D8C B7                  ORA A
2147   0D8D C2 A2 0D            JNZ L0278
2148   0D90 23                  INX H
2149   0D91 7E                  MOV A,M
2150   0D92 23                  INX H
2151   0D93 B6                  ORA M
2152   0D94 1E 04               MVI E,04H
2153   0D96 CA 64 04            JZ L0072
2154   0D99 23                  INX H
2155   0D9A 5E                  MOV E,M
2156   0D9B 23                  INX H
2157   0D9C 56                  MOV D,M
2158   0D9D EB                  XCHG
2159   0D9E 22 A6 FB            SHLD 0FBA6H
2160   0DA1 EB                  XCHG
2161   0DA2 D7          L0278:  RST 2
2162   0DA3 FE 83               CPI 83H
2163   0DA5 C2 89 0D            JNZ L0265
2164   0DA8 C3 15 0D            JMP L0264
2165   0DAB CF          L0790:  RST 1
2166   0DAC DD                  UNRECOGNIZED
2167   0DAD C3 B2 0D            JMP L0134
2168   0DB0 CF          L0334:  RST 1
2169   0DB1 28                  UNRECOGNIZED
;0DABH -  Main Evaluation Routine.  This routine handles all 
;        evaluations of math operations and functions.
;         Entry:
;               HL - Points to text to evaluate plus 1.  This routine 
;                    assumes that an RST 10H was executed prior to 
;                    entering the routine.  To adjust for this, either 
;                    execute a RST 10H or INC HL prior to entering the 
;                    routine.
;         Exit:
;               HL - Incremented past evaluated expression
;             FAC1 - Usually contains the result of the evaluated 
;                    expression.
2170   0DB2 2B          L0134:  DCX H
2171   0DB3 16 00       L0149:  MVI D,00H
2172   0DB5 D5          L0285:  PUSH D
2173   0DB6 0E 01               MVI C,01H
2174   0DB8 CD DB 3E            CALL L0132
2175   0DBB CD 23 0F            CALL L0279
2176   0DBE 22 BA FB            SHLD 0FBBAH
2177   0DC1 2A BA FB    L0343:  LHLD 0FBBAH
2178   0DC4 C1                  POP B
2179   0DC5 7E                  MOV A,M
2180   0DC6 22 A0 FB            SHLD 0FBA0H
2181   0DC9 FE D0               CPI 0D0H
2182   0DCB D8                  RC
2183   0DCC FE DF               CPI 0DFH
2184   0DCE D0                  RNC
2185   0DCF FE DC               CPI 0DCH
2186   0DD1 D2 30 0E            JNC L0280
2187   0DD4 D6 D0               SUI 0D0H
2188   0DD6 5F                  MOV E,A
2189   0DD7 C2 E3 0D            JNZ L0281
2190   0DDA 3A 77 FB            LDA 0FB77H
2191   0DDD FE 03               CPI 03H
2192   0DDF 7B                  MOV A,E
2193   0DE0 CA A5 28            JZ L0282
2194   0DE3 21 E2 02    L0281:  LXI H,02E2H
2195   0DE6 16 00               MVI D,00H
2196   0DE8 19                  DAD D
2197   0DE9 78                  MOV A,B
2198   0DEA 56                  MOV D,M
2199   0DEB BA                  CMP D
2200   0DEC D0                  RNC
2201   0DED C5                  PUSH B
2202   0DEE 01 C1 0D            LXI B,0DC1H
2203   0DF1 C5                  PUSH B
2204   0DF2 7A                  MOV A,D
2205   0DF3 FE 51               CPI 51H
2206   0DF5 DA 4C 0E            JC L0283
2207   0DF8 E6 FE               ANI 0FEH
2208   0DFA FE 7A               CPI 7AH
2209   0DFC CA 4C 0E            JZ L0283
2210   0DFF 21 2C FC    L0289:  LXI H,0FC2CH
2211   0E02 3A 77 FB            LDA 0FB77H
2212   0E05 D6 03               SUI 03H
2213   0E07 CA 62 04            JZ L0133
2214   0E0A B7                  ORA A
2215   0E0B 2A 2C FC            LHLD 0FC2CH
2216   0E0E E5                  PUSH H
2217   0E0F FA 21 0E            JM L0284
2218   0E12 2A 2A FC            LHLD 0FC2AH
2219   0E15 E5                  PUSH H
2220   0E16 E2 21 0E            JPO L0284
2221   0E19 2A 30 FC            LHLD 0FC30H
2222   0E1C E5                  PUSH H
2223   0E1D 2A 2E FC            LHLD 0FC2EH
2224   0E20 E5                  PUSH H
2225   0E21 C6 03       L0284:  ADI 03H
2226   0E23 4B                  MOV C,E
2227   0E24 47                  MOV B,A
2228   0E25 C5                  PUSH B
2229   0E26 01 73 0E            LXI B,0E73H
2230   0E29 C5          L0288:  PUSH B
2231   0E2A 2A A0 FB            LHLD 0FBA0H
2232   0E2D C3 B5 0D            JMP L0285
2233   0E30 16 00       L0280:  MVI D,00H
2234   0E32 D6 DC       L0287:  SUI 0DCH
2235   0E34 DA 58 0E            JC L0286
2236   0E37 FE 03               CPI 03H
2237   0E39 D2 58 0E            JNC L0286
2238   0E3C FE 01               CPI 01H
2239   0E3E 17                  RAL
2240   0E3F AA                  XRA D
2241   0E40 BA                  CMP D
2242   0E41 57                  MOV D,A
2243   0E42 DA 4D 04            JC L0002
2244   0E45 22 A0 FB            SHLD 0FBA0H
2245   0E48 D7                  RST 2
2246   0E49 C3 32 0E            JMP L0287
2247   0E4C D5          L0283:  PUSH D
2248   0E4D CD DA 34            CALL L0137
2249   0E50 D1                  POP D
2250   0E51 E5                  PUSH H
2251   0E52 01 79 10            LXI B,1079H
2252   0E55 C3 29 0E            JMP L0288
2253   0E58 78          L0286:  MOV A,B
2254   0E59 FE 64               CPI 64H
2255   0E5B D0                  RNC
2256   0E5C C5                  PUSH B
2257   0E5D D5                  PUSH D
2258   0E5E 11 05 64            LXI D,6405H
2259   0E61 21 4E 10            LXI H,104EH
2260   0E64 E5                  PUSH H
2261   0E65 EF                  RST 5
2262   0E66 C2 FF 0D            JNZ L0289
2263   0E69 2A 2C FC            LHLD 0FC2CH
2264   0E6C E5                  PUSH H
2265   0E6D 01 E5 26            LXI B,26E5H
2266   0E70 C3 29 0E            JMP L0288
2267   0E73 C1                  POP B
2268   0E74 79                  MOV A,C
2269   0E75 32 78 FB            STA 0FB78H
2270   0E78 3A 77 FB            LDA 0FB77H
2271   0E7B B8                  CMP B
2272   0E7C C2 8C 0E            JNZ L0290
2273   0E7F FE 02               CPI 02H
2274   0E81 CA A8 0E            JZ L0291
2275   0E84 FE 04               CPI 04H
2276   0E86 CA F7 0E            JZ L0292
2277   0E89 D2 BB 0E            JNC L0293
2278   0E8C 57          L0290:  MOV D,A
2279   0E8D 78                  MOV A,B
2280   0E8E FE 08               CPI 08H
2281   0E90 CA B8 0E            JZ L0294
2282   0E93 7A                  MOV A,D
2283   0E94 FE 08               CPI 08H
2284   0E96 CA DF 0E            JZ L0295
2285   0E99 78                  MOV A,B
2286   0E9A FE 04               CPI 04H
2287   0E9C CA F4 0E            JZ L0296
2288   0E9F 7A                  MOV A,D
2289   0EA0 FE 03               CPI 03H
2290   0EA2 CA 62 04            JZ L0133
2291   0EA5 D2 FF 0E            JNC L0297
2292   0EA8 21 10 03    L0291:  LXI H,0310H
2293   0EAB 06 00               MVI B,00H
2294   0EAD 09                  DAD B
2295   0EAE 09                  DAD B
2296   0EAF 4E                  MOV C,M
2297   0EB0 23                  INX H
2298   0EB1 46                  MOV B,M
2299   0EB2 D1                  POP D
2300   0EB3 2A 2C FC            LHLD 0FC2CH
2301   0EB6 C5                  PUSH B
2302   0EB7 C9                  RET
2303   0EB8 CD 93 35    L0294:  CALL L0141
2304   0EBB CD 5D 34    L0293:  CALL L0298
2305   0EBE E1                  POP H
2306   0EBF 22 2E FC            SHLD 0FC2EH
2307   0EC2 E1                  POP H
2308   0EC3 22 30 FC            SHLD 0FC30H
2309   0EC6 C1          L0300:  POP B
2310   0EC7 D1                  POP D
2311   0EC8 CD 0B 34            CALL L0299
2312   0ECB CD 93 35    L0301:  CALL L0141
2313   0ECE 21 F8 02            LXI H,02F8H
2314   0ED1 3A 78 FB    L0302:  LDA 0FB78H
2315   0ED4 07                  RLC
2316   0ED5 85                  ADD L
2317   0ED6 6F                  MOV L,A
2318   0ED7 8C                  ADC H
2319   0ED8 95                  SUB L
2320   0ED9 67                  MOV H,A
2321   0EDA 7E                  MOV A,M
2322   0EDB 23                  INX H
2323   0EDC 66                  MOV H,M
2324   0EDD 6F                  MOV L,A
2325   0EDE E9                  PCHL
2326   0EDF 78          L0295:  MOV A,B
2327   0EE0 F5                  PUSH PSW
2328   0EE1 CD 5D 34            CALL L0298
2329   0EE4 F1                  POP PSW
2330   0EE5 32 77 FB            STA 0FB77H
2331   0EE8 FE 04               CPI 04H
2332   0EEA CA C6 0E            JZ L0300
2333   0EED E1                  POP H
2334   0EEE 22 2C FC            SHLD 0FC2CH
2335   0EF1 C3 CB 0E            JMP L0301
2336   0EF4 CD 03 35    L0296:  CALL L0146
2337   0EF7 C1          L0292:  POP B
2338   0EF8 D1                  POP D
2339   0EF9 21 04 03    L0305:  LXI H,0304H
2340   0EFC C3 D1 0E            JMP L0302
2341   0EFF E1          L0297:  POP H
2342   0F00 CD FB 33            CALL L0303
2343   0F03 CD 1C 35            CALL L0304
2344   0F06 CD 16 34            CALL L0147
2345   0F09 E1                  POP H
2346   0F0A 22 2A FC            SHLD 0FC2AH
2347   0F0D E1                  POP H
2348   0F0E 22 2C FC            SHLD 0FC2CH
2349   0F11 C3 F9 0E            JMP L0305
;0F0DH -  Integer Divide (FAC1=DE/HL)
2350   0F14 E5                  PUSH H
2351   0F15 EB                  XCHG
2352   0F16 CD 1C 35            CALL L0304
2353   0F19 E1                  POP H
2354   0F1A CD FB 33            CALL L0303
2355   0F1D CD 1C 35            CALL L0304
2356   0F20 C3 E5 37            JMP L0306
;0F1CH -  Evaluate the function in the buffer pointed to by HL.
;         Entry:
;               HL - Points to the buffer containing the compressed 
;                    function and parameters.
;         Exit:
;             FAC1 - Usually contains the result of the function.
2357   0F23 D7          L0279:  RST 2
2358   0F24 CA 5F 04            JZ L0307
2359   0F27 DA 19 38            JC L0272
2360   0F2A CD CE 40            CALL L0308
2361   0F2D D2 E1 0F            JNC L0309
2362   0F30 FE D0               CPI 0D0H
2363   0F32 CA 23 0F            JZ L0279
2364   0F35 FE 2E               CPI 2EH
2365   0F37 CA 19 38            JZ L0272
2366   0F3A FE D1               CPI 0D1H
2367   0F3C CA D3 0F            JZ L0310
2368   0F3F FE 22               CPI 22H
2369   0F41 CA 45 27            JZ L0259
2370   0F44 FE CE               CPI 0CEH
2371   0F46 CA 5B 10            JZ L0311
2372   0F49 FE C5               CPI 0C5H
2373   0F4B C2 58 0F            JNZ L0312
;0F47H -  ERR Function
2374   0F4E D7                  RST 2
2375   0F4F 3A 79 F6            LDA 0F679H
2376   0F52 E5                  PUSH H
2377   0F53 CD D8 10            CALL L0313
2378   0F56 E1                  POP H
2379   0F57 C9                  RET
2380   0F58 FE C4       L0312:  CPI 0C4H
2381   0F5A C2 67 0F            JNZ L0314
;0F56H -  ERL Function
2382   0F5D D7                  RST 2
2383   0F5E E5                  PUSH H
2384   0F5F 2A B1 FB            LHLD 0FBB1H
2385   0F62 CD B4 37            CALL L0315
2386   0F65 E1                  POP H
2387   0F66 C9                  RET
2388   0F67 FE AA       L0314:  CPI 0AAH
2389   0F69 CA CC 18            JZ L0316
2390   0F6C FE AB               CPI 0ABH
2391   0F6E CA EC 18            JZ L0317
2392   0F71 FE AC               CPI 0ACH
2393   0F73 CA 1F 19            JZ L0318
2394   0F76 FE B7               CPI 0B7H
2395   0F78 CA 64 1D            JZ L0319
2396   0F7B FE CC               CPI 0CCH
2397   0F7D CA 82 1D            JZ L0320
2398   0F80 FE C3               CPI 0C3H
2399   0F82 C2 AA 0F            JNZ L0321
;0F7EH -  VARPTR Function
2400   0F85 D7                  RST 2
2401   0F86 CF                  RST 1
2402   0F87 28                  UNRECOGNIZED
2403   0F88 FE 23               CPI 23H
2404   0F8A C2 99 0F            JNZ L0322
;0F86H -  VARPTR(#buffer) Function
2405   0F8D CD 34 11            CALL L0244
2406   0F90 E5                  PUSH H
2407   0F91 CD 52 4C            CALL L0323
2408   0F94 EB                  XCHG
2409   0F95 E1                  POP H
2410   0F96 C3 9C 0F            JMP L0324
;0F92H -  VARPTR(variable) Function
2411   0F99 CD 03 48    L0322:  CALL L0325
2412   0F9C CF          L0324:  RST 1
2413   0F9D 29                  DAD H
2414   0F9E E5                  PUSH H
2415   0F9F EB                  XCHG
2416   0FA0 7C                  MOV A,H
2417   0FA1 B5                  ORA L
2418   0FA2 CA E2 08            JZ L0214
2419   0FA5 CD E9 34            CALL L0326
2420   0FA8 E1                  POP H
2421   0FA9 C9                  RET
2422   0FAA FE C7       L0321:  CPI 0C7H
2423   0FAC CA 10 2A            JZ L0327
2424   0FAF FE C9               CPI 0C9H
2425   0FB1 CA B8 4B            JZ L0328
2426   0FB4 FE C6               CPI 0C6H
2427   0FB6 CA 46 29            JZ L0329
2428   0FB9 FE 84               CPI 84H
2429   0FBB CA 5A 4E            JZ L0330
2430   0FBE FE CA               CPI 0CAH
2431   0FC0 CA 59 1D            JZ L0331
2432   0FC3 FE C8               CPI 0C8H
2433   0FC5 CA 3A 50            JZ L0332
2434   0FC8 D6 DF               SUI 0DFH
2435   0FCA D2 F9 0F            JNC L0333
2436   0FCD CD B0 0D    L0339:  CALL L0334
2437   0FD0 CF                  RST 1
2438   0FD1 29                  DAD H
2439   0FD2 C9                  RET
2440   0FD3 16 7D       L0310:  MVI D,7DH
2441   0FD5 CD B5 0D            CALL L0285
2442   0FD8 2A BA FB            LHLD 0FBBAH
2443   0FDB E5                  PUSH H
2444   0FDC CD CF 33            CALL L0335
2445   0FDF E1                  POP H
2446   0FE0 C9                  RET
;0FDAH -  Variable evaluation routine
2447   0FE1 CD 46 47    L0309:  CALL L0182
2448   0FE4 E5                  PUSH H
2449   0FE5 EB                  XCHG
2450   0FE6 22 2C FC            SHLD 0FC2CH
2451   0FE9 EF                  RST 5
2452   0FEA C4 57 34            CNZ L0336
2453   0FED E1                  POP H
2454   0FEE C9                  RET
;0FE8H -  Get the character pointed to by HL, convert it to upper case 
;        if needed, and place it in the A register.
;         Entry:
;               HL - Points to buffer
;         Exit:
;                A - Next character in buffer
2455   0FEF 7E          L0495:  MOV A,M
;0FE9H -  Convert the character in the A register to uppercase if 
        necessary.
         Entry:
                A - Character
         Exit:
                A - Character converted to UC
2456   0FF0 FE 61       L0532:  CPI 61H
2457   0FF2 D8                  RC
2458   0FF3 FE 7B               CPI 7BH
2459   0FF5 D0                  RNC
2460   0FF6 E6 5F               ANI 5FH
2461   0FF8 C9                  RET
;
2462   0FF9 06 00       L0333:  MVI B,00H
2463   0FFB 07                  RLC
2464   0FFC 4F                  MOV C,A
2465   0FFD C5                  PUSH B
2466   0FFE D7                  RST 2
2467   0FFF 79                  MOV A,C
2468   1000 FE 39               CPI 39H
2469   1002 DA 1C 10            JC L0337
2470   1005 CD B0 0D            CALL L0334
2471   1008 CF                  RST 1
2472   1009 2C                  INR L
2473   100A CD B2 35            CALL L0253
2474   100D EB                  XCHG
2475   100E 2A 2C FC            LHLD 0FC2CH
2476   1011 E3                  XTHL
2477   1012 E5                  PUSH H
2478   1013 EB                  XCHG
2479   1014 CD 35 11            CALL L0200
2480   1017 EB                  XCHG
2481   1018 E3                  XTHL
2482   1019 C3 35 10            JMP L0338
2483   101C CD CD 0F    L0337:  CALL L0339
2484   101F E3                  XTHL
2485   1020 7D                  MOV A,L
2486   1021 FE 0E               CPI 0EH
2487   1023 DA 31 10            JC L0340
2488   1026 FE 1D               CPI 1DH
2489   1028 D2 31 10            JNC L0340
2490   102B EF                  RST 5
2491   102C E5                  PUSH H
2492   102D DC 93 35            CC L0141
2493   1030 E1                  POP H
2494   1031 11 DF 0F    L0340:  LXI D,0FDFH
2495   1034 D5                  PUSH D
2496   1035 01 40 00    L0338:  LXI B,0040H
2497   1038 09          L0350:  DAD B
2498   1039 4E                  MOV C,M
2499   103A 23                  INX H
2500   103B 66                  MOV H,M
2501   103C 69                  MOV L,C
2502   103D E9                  PCHL
2503   103E 15          L0993:  DCR D
2504   103F FE D1               CPI 0D1H
2505   1041 C8                  RZ
2506   1042 FE 2D               CPI 2DH
2507   1044 C8                  RZ
2508   1045 14                  INR D
2509   1046 FE 2B               CPI 2BH
2510   1048 C8                  RZ
2511   1049 FE D0               CPI 0D0H
2512   104B C8                  RZ
2513   104C 2B                  DCX H
2514   104D C9                  RET
2515   104E 3C                  INR A
2516   104F 8F                  ADC A
2517   1050 C1                  POP B
2518   1051 A0                  ANA B
2519   1052 C6 FF               ADI 0FFH
2520   1054 9F                  SBB A
2521   1055 CD E3 33            CALL L0341
2522   1058 C3 6D 10            JMP L0342
;1054H -  NOT Function
2523   105B 16 5A       L0311:  MVI D,5AH
2524   105D CD B5 0D            CALL L0285
2525   1060 CD DA 34            CALL L0137
2526   1063 7D                  MOV A,L
2527   1064 2F                  CMA
2528   1065 6F                  MOV L,A
2529   1066 7C                  MOV A,H
2530   1067 2F                  CMA
2531   1068 67                  MOV H,A
2532   1069 22 2C FC            SHLD 0FC2CH
2533   106C C1                  POP B
2534   106D C3 C1 0D    L0342:  JMP L0343
;1069H -  RST 28H routine (see 28H).
2535   1070 3A 77 FB    L0006:  LDA 0FB77H
2536   1073 FE 08               CPI 08H
2537   1075 3D                  DCR A
2538   1076 3D                  DCR A
2539   1077 3D                  DCR A
2540   1078 C9                  RET
2541   1079 78                  MOV A,B
2542   107A F5                  PUSH PSW
2543   107B CD DA 34            CALL L0137
2544   107E F1                  POP PSW
2545   107F D1                  POP D
2546   1080 FE 7A               CPI 7AH
2547   1082 CA B8 37            JZ L0344
2548   1085 FE 7B               CPI 7BH
2549   1087 CA 57 37            JZ L0345
2550   108A 01 DA 10            LXI B,10DAH
2551   108D C5                  PUSH B
2552   108E FE 46               CPI 46H
2553   1090 C2 99 10            JNZ L0346
;108CH -  OR Function
2554   1093 7B                  MOV A,E
2555   1094 B5                  ORA L
2556   1095 6F                  MOV L,A
2557   1096 7C                  MOV A,H
2558   1097 B2                  ORA D
2559   1098 C9                  RET
2560   1099 FE 50       L0346:  CPI 50H
2561   109B C2 A4 10            JNZ L0347
;1097H -  AND Function
2562   109E 7B                  MOV A,E
2563   109F A5                  ANA L
2564   10A0 6F                  MOV L,A
2565   10A1 7C                  MOV A,H
2566   10A2 A2                  ANA D
2567   10A3 C9                  RET
2568   10A4 FE 3C       L0347:  CPI 3CH
2569   10A6 C2 AF 10            JNZ L0348
;10A2H -  XOR Function
2570   10A9 7B                  MOV A,E
2571   10AA AD                  XRA L
2572   10AB 6F                  MOV L,A
2573   10AC 7C                  MOV A,H
2574   10AD AA                  XRA D
2575   10AE C9                  RET
2576   10AF FE 32       L0348:  CPI 32H
2577   10B1 C2 BC 10            JNZ L0349
;10ADH -  EQV Function
2578   10B4 7B                  MOV A,E
2579   10B5 AD                  XRA L
2580   10B6 2F                  CMA
2581   10B7 6F                  MOV L,A
2582   10B8 7C                  MOV A,H
2583   10B9 AA                  XRA D
2584   10BA 2F                  CMA
2585   10BB C9                  RET
;10B5H -  IMP Function
2586   10BC 7D          L0349:  MOV A,L
2587   10BD 2F                  CMA
2588   10BE A3                  ANA E
2589   10BF 2F                  CMA
2590   10C0 6F                  MOV L,A
2591   10C1 7C                  MOV A,H
2592   10C2 2F                  CMA
2593   10C3 A2                  ANA D
2594   10C4 2F                  CMA
2595   10C5 C9                  RET
;
2596   10C6 7D          L0794:  MOV A,L
2597   10C7 93                  SUB E
2598   10C8 6F                  MOV L,A
2599   10C9 7C                  MOV A,H
2600   10CA 9A                  SBB D
2601   10CB 67                  MOV H,A
2602   10CC C3 B4 37            JMP L0315
2603   10CF 3A 7B F6            LDA 0F67BH
;10C8H -  LPOS Function
2604   10D2 C3 D8 10            JMP L0313
2605   10D5 3A 8F F7            LDA 0F78FH
;10CEH -  POS Function
2606   10D8 6F          L0313:  MOV L,A
;10D1H -  Load the integer in the A register into FAC1.
;         Entry:
;                A - Integer from 0-255 to put in FAC1
;         Exit:
;                A - Destroyed
2607   10D9 AF                  XRA A
2608   10DA 67                  MOV H,A
2609   10DB C3 E9 34            JMP L0326
2610   10DE E5          L0184:  PUSH H
2611   10DF E6 07               ANI 07H
2612   10E1 21 EE 02            LXI H,02EEH
2613   10E4 4F                  MOV C,A
2614   10E5 06 00               MVI B,00H
2615   10E7 09                  DAD B
2616   10E8 CD 38 10            CALL L0350
2617   10EB E1                  POP H
2618   10EC C9                  RET
;10E6H -  Check for a running program.  If a program is not running, 
;        generate an Illegal Direct (ID) error.
;         Exit:
;                A - Destroyed
;           Z flag - Reset if program is running
2619   10ED E5          L0251:  PUSH H
2620   10EE 2A 81 F6            LHLD 0F681H
2621   10F1 23                  INX H
2622   10F2 7C                  MOV A,H
2623   10F3 B5                  ORA L
2624   10F4 E1                  POP H
2625   10F5 C0                  RNZ
;10EFH -  Generate ID error
2626   10F6 1E 0C               MVI E,0CH
2627   10F8 C3 64 04            JMP L0072
2628   10FB FE 7E       L0157:  CPI 7EH
2629   10FD C2 4D 04            JNZ L0002
2630   1100 23                  INX H
2631   1101 C3 9B 2A            JMP L0351
2632   1104 C3 4D 04            JMP L0002
;1100H -  INP Function
2633   1107 CD 38 11            CALL L0352
2634   110A 32 72 F6            STA 0F672H
2635   110D CD 71 F6            CALL L0353
2636   1110 C3 D8 10            JMP L0313
;110CH -  OUT Statement
2637   1113 CD 26 11            CALL L0354
2638   1116 C3 6E F6            JMP L0355
;1112H -  Evaluate the expression in the buffer pointed to by HL 
;        leaving the result in DE.  If the result is greater than 
;        32767, an overflow error is generated.
;         Entry:
;               HL - Points to buffer of expression to evaluate.  The 
;                    buffer must end with a null or colon.
;         Exit:
;               DE - Result of expression
;               HL - Incremented past expression in buffer
;                A - Destroyed
;           Z flag - Set if the evaluated expression is an 8 bit 
;                    number.  If so, the result of the operation will 
;                    be just in the E register.
2639   1119 D7          L0138:  RST 2
;1113H -  Same as 1112H except that the evalutation starts at HL-1.
2640   111A CD B2 0D    L0166:  CALL L0134
2641   111D E5          L0356:  PUSH H
2642   111E CD DA 34            CALL L0137
2643   1121 EB                  XCHG
2644   1122 E1                  POP H
2645   1123 7A                  MOV A,D
2646   1124 B7                  ORA A
2647   1125 C9                  RET
;
2648   1126 CD 35 11    L0354:  CALL L0200
2649   1129 32 72 F6            STA 0F672H
2650   112C 32 6F F6            STA 0F66FH
2651   112F CF                  RST 1
2652   1130 2C                  INR L
2653   1131 C3 35 11            JMP L0200
;112DH -  Evaluate the expression in the buffer pointed to by HL 
;        leaving the result in the A register.  If the result is 
;        greater than 255, a function error is generated.  If the 
;        result is greater than 32767, an overflow error is generated.
;         Entry:
;               HL - Points to buffer to be evaluated.  The buffer 
;                    must end with a null or colon.
;         Exit:
;               HL - Incremented past expression in buffer
;            A & E - Evaluated expression
;                D - Destroyed
2654   1134 D7          L0244:  RST 2
;112EH -  Same as 112DH except that evaluation starts at HL-1.
2655   1135 CD B2 0D    L0200:  CALL L0134
2656   1138 CD 1D 11    L0352:  CALL L0356
2657   113B C2 E2 08            JNZ L0214
2658   113E 2B                  DCX H
2659   113F D7                  RST 2
2660   1140 7B                  MOV A,E
2661   1141 C9                  RET
;113BH -  LLIST Statement
2662   1142 3E 01               MVI A,01H
2663   1144 32 7C F6            STA 0F67CH
;1140H -  LIST Statement
2664   1147 C1          L1348:  POP B
2665   1148 CD 11 06            CALL L0357
2666   114B C5                  PUSH B
2667   114C 60                  MOV H,B
2668   114D 69                  MOV L,C
2669   114E 22 C1 FA            SHLD 0FAC1H
2670   1151 21 FF FF    L0364:  LXI H,0FFFFH
2671   1154 22 81 F6            SHLD 0F681H
2672   1157 E1                  POP H
2673   1158 22 C3 FA            SHLD 0FAC3H
2674   115B D1                  POP D
2675   115C 4E                  MOV C,M
2676   115D 23                  INX H
2677   115E 46                  MOV B,M
2678   115F 23                  INX H
2679   1160 78                  MOV A,B
2680   1161 B1                  ORA C
2681   1162 CA 9C 11            JZ L0358
2682   1165 CD F6 41            CALL L0092
2683   1168 CC FC 13            CZ L0154
2684   116B C5                  PUSH B
2685   116C 4E                  MOV C,M
2686   116D 23                  INX H
2687   116E 46                  MOV B,M
2688   116F 23                  INX H
2689   1170 C5                  PUSH B
2690   1171 E3                  XTHL
2691   1172 EB                  XCHG
2692   1173 DF                  RST 3
2693   1174 C1                  POP B
2694   1175 DA 9B 11            JC L0359
2695   1178 E3                  XTHL
2696   1179 E5                  PUSH H
2697   117A C5                  PUSH B
2698   117B EB                  XCHG
2699   117C 22 B3 FB            SHLD 0FBB3H
2700   117F CD AD 39            CALL L0360
2701   1182 E1                  POP H
2702   1183 7E                  MOV A,M
2703   1184 FE 09               CPI 09H
2704   1186 CA 8C 11            JZ L0361
2705   1189 3E 20               MVI A,20H
2706   118B E7                  RST 4
2707   118C CD B1 11    L0361:  CALL L0362
2708   118F 21 8C F6            LXI H,0F68CH
2709   1192 CD A9 11            CALL L0363
2710   1195 CD 99 4B            CALL L0226
2711   1198 C3 51 11            JMP L0364
2712   119B C1          L0359:  POP B
2713   119C 3A 58 F6    L0358:  LDA 0F658H
2714   119F A7                  ANA A
2715   11A0 C2 A2 5B            JNZ L0365
2716   11A3 3E 1A               MVI A,1AH
2717   11A5 E7                  RST 4
2718   11A6 C3 09 05            JMP L0366
;11A2H -  Send the buffer pointed to by HL to the screen.  Text must 
;        end with a null.
;         Entry:
;               HL - Points to print buffer
;         Exit:
;               HL - Points to ending null
;                A = 0
2719   11A9 7E          L0363:  MOV A,M
2720   11AA B7                  ORA A
2721   11AB C8                  RZ
2722   11AC E7                  RST 4
2723   11AD 23                  INX H
2724   11AE C3 A9 11            JMP L0363
2725   11B1 01 8C F6    L0362:  LXI B,0F68CH
2726   11B4 16 FF               MVI D,0FFH
2727   11B6 AF                  XRA A
2728   11B7 32 78 FB            STA 0FB78H
2729   11BA C3 C0 11            JMP L0367
2730   11BD 03          L0371:  INX B
2731   11BE 15                  DCR D
2732   11BF C8                  RZ
2733   11C0 7E          L0367:  MOV A,M
2734   11C1 23                  INX H
2735   11C2 B7                  ORA A
2736   11C3 02                  STAX B
2737   11C4 C8                  RZ
2738   11C5 FE 22               CPI 22H
2739   11C7 C2 D4 11            JNZ L0368
2740   11CA 3A 78 FB            LDA 0FB78H
2741   11CD EE 01               XRI 01H
2742   11CF 32 78 FB            STA 0FB78H
2743   11D2 3E 22               MVI A,22H
2744   11D4 FE 3A       L0368:  CPI 3AH
2745   11D6 C2 E8 11            JNZ L0369
2746   11D9 3A 78 FB            LDA 0FB78H
2747   11DC 1F                  RAR
2748   11DD DA E6 11            JC L0370
2749   11E0 17                  RAL
2750   11E1 E6 FD               ANI 0FDH
2751   11E3 32 78 FB            STA 0FB78H
2752   11E6 3E 3A       L0370:  MVI A,3AH
2753   11E8 B7          L0369:  ORA A
2754   11E9 F2 BD 11            JP L0371
2755   11EC 3A 78 FB            LDA 0FB78H
2756   11EF 1F                  RAR
2757   11F0 DA BD 11            JC L0371
2758   11F3 2B                  DCX H
2759   11F4 1F                  RAR
2760   11F5 1F                  RAR
2761   11F6 D2 3A 12            JNC L0372
2762   11F9 7E                  MOV A,M
2763   11FA FE FF               CPI 0FFH
2764   11FC E5                  PUSH H
2765   11FD C5                  PUSH B
2766   11FE 21 21 12            LXI H,1221H
2767   1201 E5                  PUSH H
2768   1202 C0                  RNZ
2769   1203 0B                  DCX B
2770   1204 0A                  LDAX B
2771   1205 FE 4D               CPI 4DH
2772   1207 C0                  RNZ
2773   1208 0B                  DCX B
2774   1209 0A                  LDAX B
2775   120A FE 45               CPI 45H
2776   120C C0                  RNZ
2777   120D 0B                  DCX B
2778   120E 0A                  LDAX B
2779   120F FE 52               CPI 52H
2780   1211 C0                  RNZ
2781   1212 0B                  DCX B
2782   1213 0A                  LDAX B
2783   1214 FE 3A               CPI 3AH
2784   1216 C0                  RNZ
2785   1217 F1                  POP PSW
2786   1218 F1                  POP PSW
2787   1219 E1                  POP H
2788   121A 14                  INR D
2789   121B 14                  INR D
2790   121C 14                  INR D
2791   121D 14                  INR D
2792   121E C3 49 12            JMP L0373
2793   1221 C1                  POP B
2794   1222 E1                  POP H
2795   1223 7E                  MOV A,M
2796   1224 23          L0375:  INX H
2797   1225 C3 BD 11            JMP L0371
2798   1228 3A 78 FB    L0376:  LDA 0FB78H
2799   122B F6 02               ORI 02H
2800   122D 32 78 FB    L0374:  STA 0FB78H
2801   1230 AF                  XRA A
2802   1231 C9                  RET
2803   1232 3A 78 FB    L0377:  LDA 0FB78H
2804   1235 F6 04               ORI 04H
2805   1237 C3 2D 12            JMP L0374
2806   123A 17          L0372:  RAL
2807   123B DA 24 12            JC L0375
2808   123E 7E                  MOV A,M
2809   123F FE 83               CPI 83H
2810   1241 CC 28 12            CZ L0376
2811   1244 FE 8E               CPI 8EH
2812   1246 CC 32 12            CZ L0377
2813   1249 7E          L0373:  MOV A,M
2814   124A 23                  INX H
2815   124B FE 91               CPI 91H
2816   124D C2 52 12            JNZ L0378
2817   1250 0B                  DCX B
2818   1251 14                  INR D
2819   1252 D6 7F       L0378:  SUI 7FH
2820   1254 E5                  PUSH H
2821   1255 5F                  MOV E,A
2822   1256 21 80 00            LXI H,0080H
2823   1259 7E          L0379:  MOV A,M
2824   125A 23                  INX H
2825   125B B7                  ORA A
2826   125C F2 59 12            JP L0379
2827   125F 1D                  DCR E
2828   1260 C2 59 12            JNZ L0379
2829   1263 E6 7F               ANI 7FH
2830   1265 02          L0381:  STAX B
2831   1266 03                  INX B
2832   1267 15                  DCR D
2833   1268 CA BB 27            JZ L0380
2834   126B 7E                  MOV A,M
2835   126C 23                  INX H
2836   126D B7                  ORA A
2837   126E F2 65 12            JP L0381
2838   1271 E1                  POP H
2839   1272 C3 C0 11            JMP L0367
2840   1275 EB          L0100:  XCHG
2841   1276 2A C4 FB            LHLD 0FBC4H
2842   1279 1A          L0382:  LDAX D
2843   127A 02                  STAX B
2844   127B 03                  INX B
2845   127C 13                  INX D
2846   127D DF                  RST 3
2847   127E C2 79 12            JNZ L0382
2848   1281 60                  MOV H,B
2849   1282 69                  MOV L,C
2850   1283 22 C4 FB            SHLD 0FBC4H
2851   1286 22 C6 FB            SHLD 0FBC6H
2852   1289 22 C8 FB            SHLD 0FBC8H
2853   128C C9                  RET
;1284H -  PEEK Function
2854   128D CD AA 12            CALL L0383
2855   1290 7E                  MOV A,M
2856   1291 C3 D8 10            JMP L0313
;128BH -  POKE Function
2857   1294 CD A0 12            CALL L0384
2858   1297 D5                  PUSH D
2859   1298 CF                  RST 1
2860   1299 2C                  INR L
2861   129A CD 35 11            CALL L0200
2862   129D D1                  POP D
2863   129E 12                  STAX D
2864   129F C9                  RET
;1297H -  Evaluate the expression in the buffer pointed to by HL 
;        leaving the result in DE.  This routine differs from 1112H in 
;        that it will properly evaluate numbers up to 65535.  If the 
;        result of the operation is greater than 65535, an overflow 
;        error will occur.
;         Entry:
;               HL - Points to buffer to evaluate.  The buffer must 
;                    end with a null or colon.
;         Exit:
;               DE - Evaluated expression
;               HL - Incremented past expression in buffer.
2865   12A0 CD B2 0D    L0384:  CALL L0134
2866   12A3 E5                  PUSH H
2867   12A4 CD AA 12            CALL L0383
2868   12A7 EB                  XCHG
2869   12A8 E1                  POP H
2870   12A9 C9                  RET

2871   12AA 01 DA 34    L0383:  LXI B,34DAH
2872   12AD C5                  PUSH B
2873   12AE EF                  RST 5
2874   12AF F8                  RM
2875   12B0 F7                  RST 6
2876   12B1 F8                  RM
2877   12B2 CD 03 35            CALL L0146
2878   12B5 01 45 32            LXI B,3245H
2879   12B8 11 76 80            LXI D,8076H
2880   12BB CD 71 34            CALL L0385
2881   12BE D8                  RC
2882   12BF 01 45 65            LXI B,6545H
2883   12C2 11 53 60            LXI D,6053H
2884   12C5 CD 71 34            CALL L0385
2885   12C8 D2 5C 04            JNC L0386
2886   12CB 01 C5 65            LXI B,65C5H
2887   12CE 11 53 60            LXI D,6053H
2888   12D1 C3 CD 37            JMP L0387
;12CBH -  Wait for a key from the keyboard.  All function keys are 
;        converted into their pre-programmed text.
;         Exit:
;                A - Character entered
;           C flag - Set if special character
2889   12D4 E5          L1218:  PUSH H
2890   12D5 D5                  PUSH D
2891   12D6 C5                  PUSH B
2892   12D7 CD DD 12            CALL L0388
2893   12DA C3 F9 14            JMP L0389
2894   12DD FF          L0388:  RST 7
2895   12DE 04                  INR B
2896   12DF 2A 33 F6            LHLD 0F633H
2897   12E2 24                  INR H
2898   12E3 25                  DCR H
2899   12E4 CA 09 13            JZ L0390
2900   12E7 46                  MOV B,M
2901   12E8 78                  MOV A,B
2902   12E9 B7                  ORA A
2903   12EA CA F3 12            JZ L0391
2904   12ED 23                  INX H
2905   12EE 7E                  MOV A,M
2906   12EF B7                  ORA A
2907   12F0 C2 F4 12            JNZ L0392
2908   12F3 67          L0391:  MOV H,A
2909   12F4 22 33 F6    L0392:  SHLD 0F633H
2910   12F7 78                  MOV A,B
2911   12F8 C9                  RET
2912   12F9 3A 57 F6    L0405:  LDA 0F657H
2913   12FC 87                  ADD A
2914   12FD D8                  RC
2915   12FE 21 00 00            LXI H,0000H
2916   1301 22 35 F6            SHLD 0F635H
2917   1304 3E 0D               MVI A,0DH
2918   1306 32 A8 FA            STA 0FAA8H
2919   1309 2A 35 F6    L0390:  LHLD 0F635H
2920   130C 7D                  MOV A,L
2921   130D A4                  ANA H
2922   130E 3C                  INR A
2923   130F CA 46 13            JZ L0393
2924   1312 E5                  PUSH H
2925   1313 3A A8 FA            LDA 0FAA8H
2926   1316 FE 0D               CPI 0DH
2927   1318 CC 16 21            CZ L0394
2928   131B 2A AC F9            LHLD 0F9ACH
2929   131E D1                  POP D
2930   131F 19                  DAD D
2931   1320 7E                  MOV A,M
2932   1321 32 A8 FA            STA 0FAA8H
2933   1324 47                  MOV B,A
2934   1325 FE 1A               CPI 1AH
2935   1327 3E 00               MVI A,00H
2936   1329 CA 3F 13            JZ L0395
2937   132C CD 60 6F            CALL L0396
2938   132F DA 3F 13            JC L0395
2939   1332 23                  INX H
2940   1333 7E                  MOV A,M
2941   1334 EB                  XCHG
2942   1335 23                  INX H
2943   1336 22 35 F6            SHLD 0F635H
2944   1339 FE 1A               CPI 1AH
2945   133B 78                  MOV A,B
2946   133C 37                  STC
2947   133D 3F                  CMC
2948   133E C0                  RNZ
2949   133F 21 FF FF    L0395:  LXI H,0FFFFH
2950   1342 22 35 F6            SHLD 0F635H
2951   1345 C9                  RET
2952   1346 CD E4 13    L0393:  CALL L0397
2953   1349 C2 61 13            JNZ L0398
2954   134C CD CB 13            CALL L0399
2955   134F 3E FF               MVI A,0FFH
2956   1351 32 5D F6            STA 0F65DH
2957   1354 CD E4 13    L0400:  CALL L0397
2958   1357 CA 54 13            JZ L0400
2959   135A AF                  XRA A
2960   135B 32 5D F6            STA 0F65DH
2961   135E CD D9 13            CALL L0401
2962   1361 21 39 F9    L0398:  LXI H,0F939H
2963   1364 7E                  MOV A,M
2964   1365 A7                  ANA A
2965   1366 C2 BE 13            JNZ L0402
2966   1369 CD 7A 1B            CALL L0403
2967   136C CD 2E 6F            CALL L0404
2968   136F D0                  RNC
2969   1370 D6 0B               SUI 0BH
2970   1372 CA F9 12            JZ L0405
2971   1375 D2 C9 13            JNC L0406
2972   1378 3C                  INR A
2973   1379 CA A8 13            JZ L0407
2974   137C 3C                  INR A
2975   137D CA 29 1E            JZ L0408
2976   1380 3C                  INR A
2977   1381 CA AE 13            JZ L0409
2978   1384 5F                  MOV E,A
2979   1385 3A 57 F6            LDA 0F657H
2980   1388 87                  ADD A
2981   1389 87                  ADD A
2982   138A 7B                  MOV A,E
2983   138B D8                  RC
2984   138C 16 FF               MVI D,0FFH
2985   138E EB                  XCHG
2986   138F 29                  DAD H
2987   1390 29                  DAD H
2988   1391 29                  DAD H
2989   1392 29                  DAD H
2990   1393 11 10 F8            LXI D,0F810H
2991   1396 19                  DAD D
2992   1397 3A 57 F6            LDA 0F657H
2993   139A A7                  ANA A
2994   139B F2 A2 13            JP L0410
2995   139E 23                  INX H
2996   139F 23                  INX H
2997   13A0 23                  INX H
2998   13A1 23                  INX H
2999   13A2 22 33 F6    L0410:  SHLD 0F633H
3000   13A5 C3 DD 12            JMP L0388
3001   13A8 2A 91 F8    L0407:  LHLD 0F891H
3002   13AB C3 A2 13            JMP L0410
;13A5H -  Toggle function key label line if enabled.
;         Exit:
;                A - Destroyed
3003   13AE 3A B4 FA    L0409:  LDA 0FAB4H
3004   13B1 A7                  ANA A
3005   13B2 C8                  RZ
3006   13B3 3A 44 F6            LDA 0F644H
3007   13B6 EE FF               XRI 0FFH
3008   13B8 CA 66 42    L0608:  JZ L0411
3009   13BB C3 84 42            JMP L0412
3010   13BE F3          L0402:  DI
3011   13BF 36 00               MVI M,00H
3012   13C1 3A 5E F6            LDA 0F65EH
3013   13C4 2B                  DCX H
3014   13C5 77                  MOV M,A
3015   13C6 CD 50 14            CALL L0413
3016   13C9 AF          L0406:  XRA A
3017   13CA C9                  RET
;
3018   13CB 3A 46 F6    L0399:  LDA 0F646H
3019   13CE 32 D2 FA            STA 0FAD2H
3020   13D1 A7                  ANA A
3021   13D2 C0                  RNZ
3022   13D3 CD 25 42            CALL L0414
3023   13D6 C3 3E 42            JMP L0415
3024   13D9 3A D2 FA    L0401:  LDA 0FAD2H
3025   13DC A7                  ANA A
3026   13DD C0                  RNZ
3027   13DE CD 2A 42            CALL L0416
3028   13E1 C3 3E 42            JMP L0415
;13DBH -  Check keyboard queue for pending characters
;         Exit:
;                A - Destroyed
;           Z flag - Set if no characters pending
3029   13E4 3A 34 F6    L0397:  LDA 0F634H
3030   13E7 A7                  ANA A
3031   13E8 C0                  RNZ
3032   13E9 3A 39 F9            LDA 0F939H
3033   13EC A7                  ANA A
3034   13ED C0                  RNZ
3035   13EE E5                  PUSH H
3036   13EF 2A 35 F6            LHLD 0F635H
3037   13F2 7D                  MOV A,L
3038   13F3 A4                  ANA H
3039   13F4 3C                  INR A
3040   13F5 E1                  POP H
3041   13F6 C0                  RNZ
3042   13F7 FF                  RST 7
3043   13F8 06 C3               MVI B,0C3H
3044   13FA 60                  MOV H,B
3045   13FB 6F                  MOV L,A
3046   13FC CD 73 6F    L0154:  CALL L0417
3047   13FF C8                  RZ
3048   1400 FE 03               CPI 03H
3049   1402 CA 1B 14            JZ L0418
3050   1405 FE 13               CPI 13H
3051   1407 C0                  RNZ
3052   1408 CD CB 13            CALL L0399
3053   140B CD 73 6F    L0419:  CALL L0417
3054   140E FE 13               CPI 13H
3055   1410 CA D9 13            JZ L0401
3056   1413 FE 03               CPI 03H
3057   1415 C2 0B 14            JNZ L0419
3058   1418 CD D9 13            CALL L0401
3059   141B AF          L0418:  XRA A
3060   141C 32 6D FF            STA 0FF6DH
3061   141F C3 76 40            JMP L0420
;1419H -  POWER Statement
3062   1422 D6 A4               SUI 0A4H
3063   1424 CA 6D 14            JZ L0421
3064   1427 FE 27               CPI 27H
3065   1429 C2 75 14            JNZ L0422
3066   142C D7                  RST 2
3067   142D CA 62 14            JZ L0423
3068   1430 CF                  RST 1
3069   1431 2C                  INR L
3070   1432 CF                  RST 1
3071   1433 95                  SUB L
3072   1434 C2 4D 04            JNZ L0002
3073   1437 C3 50 14            JMP L0413
;
3074   143A F1          L0424:  POP PSW
3075   143B C9                  RET
;1431H -  Normal TRAP (low power) interrupt routine
3076   143C F5          L0064:  PUSH PSW
3077   143D DB D8               IN 0D8H
3078   143F A7                  ANA A
3079   1440 FA 3A 14            JM L0424
3080   1443 3A 5D F6            LDA 0F65DH
3081   1446 A7                  ANA A
3082   1447 3E 01               MVI A,01H
3083   1449 32 5D F6            STA 0F65DH
3084   144C C2 62 14            JNZ L0423
3085   144F F1                  POP PSW
;143FH -  Turn off computer
3086   1450 F3          L0413:  DI
3087   1451 E5                  PUSH H
3088   1452 D5                  PUSH D
3089   1453 C5                  PUSH B
3090   1454 F5                  PUSH PSW
3091   1455 21 00 00            LXI H,0000H
3092   1458 39                  DAD SP
3093   1459 22 C5 FA            SHLD 0FAC5H
3094   145C 21 0B 9C            LXI H,9C0BH
3095   145F 22 F2 F5            SHLD 0F5F2H
3096   1462 F3          L0423:  DI
3097   1463 CD 7A 1B            CALL L0403
3098   1466 DB BA               IN 0BAH
3099   1468 F6 10               ORI 10H
3100   146A D3 BA               OUT 0BAH
3101   146C 76                  HLT
;1459H -  POWER CONT Statement
3102   146D CD 7D 14    L0421:  CALL L0425
3103   1470 32 39 F9            STA 0F939H
3104   1473 D7                  RST 2
3105   1474 C9                  RET
;1461H -  POWER ON Statement
3106   1475 CD 35 11    L0422:  CALL L0200
3107   1478 FE 0A               CPI 0AH
3108   147A DA E2 08            JC L0214
3109   147D 32 5E F6    L0425:  STA 0F65EH
3110   1480 32 38 F9            STA 0F938H
3111   1483 C9                  RET
;1470H -  Output character to printer without tab expansions
;         Entry:
;                A - Character to print
3112   1484 FF          L0610:  RST 7
3113   1485 0C                  INR C
3114   1486 CD 6D 6A            CALL L0426
3115   1489 F5                  PUSH PSW
3116   148A CD 7A 1B            CALL L0403
3117   148D F1                  POP PSW
3118   148E D0                  RNC
3119   148F AF                  XRA A
3120   1490 32 7B F6            STA 0F67BH
3121   1493 C3 A0 14            JMP L0427
3122   1496 CD B4 14    L0732:  CALL L0428
3123   1499 CD 6F 6C            CALL L0429
3124   149C D0                  RNC
3125   149D CD B6 14    L0435:  CALL L0430
3126   14A0 1E 12       L0427:  MVI E,12H
3127   14A2 C3 64 04            JMP L0072
3128   14A5 CD B4 14    L0728:  CALL L0428
3129   14A8 01 00 00            LXI B,0000H
3130   14AB 0B          L0431:  DCX B
3131   14AC 78                  MOV A,B
3132   14AD B1                  ORA C
3133   14AE C2 AB 14            JNZ L0431
3134   14B1 C3 30 6C            JMP L0432
3135   14B4 F3          L0428:  DI
3136   14B5 11 FB 1E            LXI D,1EFBH
3137   14B8 00                  NOP
3138   14B9 C3 2D 6D            JMP L0433
;14B0H -  Read a byte from tape and update checksum
;         Entry:
;                C - Current checksum
;         Exit:
;                A - Character read off tape
;                C - Updated checksum
3139   14BC D5          L0481:  PUSH D
3140   14BD E5                  PUSH H
3141   14BE C5                  PUSH B
3142   14BF CD 14 6D            CALL L0434
3143   14C2 DA 9D 14            JC L0435
3144   14C5 7A                  MOV A,D
3145   14C6 C1                  POP B
3146   14C7 81                  ADD C
3147   14C8 4F                  MOV C,A
3148   14C9 7A                  MOV A,D
3149   14CA E1                  POP H
3150   14CB D1                  POP D
3151   14CC C9                  RET
;
3152   14CD E5          L0484:  PUSH H
3153   14CE D5                  PUSH D
3154   14CF 57                  MOV D,A
3155   14D0 81                  ADD C
3156   14D1 4F                  MOV C,A
3157   14D2 C5                  PUSH B
3158   14D3 7A                  MOV A,D
3159   14D4 CD 45 6C            CALL L0436
3160   14D7 DA 9D 14            JC L0435
3161   14DA C3 F9 14            JMP L0389
3162   14DD E3                  XTHL
3163   14DE 14                  INR D
3164   14DF 27                  DAA
3165   14E0 4D                  MOV C,L
3166   14E1 F0                  RP
3167   14E2 14                  INR D
;14D8H -  LCD and LPT file open routine
3168   14E3 3E 02               MVI A,02H
3169   14E5 BB                  CMP E
3170   14E6 C2 15 50            JNZ L0437
3171   14E9 22 9E FC    L0445:  SHLD 0FC9EH
3172   14EC 73                  MOV M,E
3173   14ED F1                  POP PSW
3174   14EE E1                  POP H
3175   14EF C9                  RET
;14E5H -  LCD file output routine
3176   14F0 F1                  POP PSW
3177   14F1 F5                  PUSH PSW
3178   14F2 CD F9 42            CALL L0438
3179   14F5 CD 7A 1B    L0478:  CALL L0403
;14EDH -  Pop all registers off stack in the order AF, BC, DE, and HL.  
;        This routine is only useful if jumped to.  If a call is done, 
;        stack integrity is lost.
3180   14F8 F1          L1161:  POP PSW
3181   14F9 C1          L0389:  POP B
3182   14FA D1                  POP D
3183   14FB E1                  POP H
3184   14FC C9                  RET
;
3185   14FD 03                  INX B
3186   14FE 15                  DCR D
3187   14FF 27                  DAA
3188   1500 4D                  MOV C,L
3189   1501 05                  DCR B
3190   1502 15                  DCR D
3191   1503 FF                  RST 7
3192   1504 4C                  MOV C,H
3193   1505 FF                  RST 7
3194   1506 50                  MOV D,B
3195   1507 11 15 98            LXI D,9815H
3196   150A 15                  DCR D
3197   150B B7                  ORA A
3198   150C 15                  DCR D
3199   150D CF                  RST 1
3200   150E 15                  DCR D
3201   150F 26 16               MVI H,16H
;1506H -  RAM file open routine
3202   1511 E5                  PUSH H
3203   1512 D5                  PUSH D
3204   1513 23                  INX H
3205   1514 23                  INX H
3206   1515 E5                  PUSH H
3207   1516 7B                  MOV A,E
3208   1517 FE 01               CPI 01H
3209   1519 CA 4C 15            JZ L0439
3210   151C FE 08               CPI 08H
3211   151E CA 67 15            JZ L0440
3212   1521 CD E7 21    L0450:  CALL L0441
3213   1524 DA 8B 15            JC L0442
3214   1527 D5                  PUSH D
3215   1528 CD A2 18            CALL L0443
3216   152B D1                  POP D
3217   152C 01 00 00    L0449:  LXI B,0000H
3218   152F E1          L0452:  POP H
3219   1530 1A                  LDAX D
3220   1531 E6 02               ANI 02H
3221   1533 C2 18 50            JNZ L0444
3222   1536 1A                  LDAX D
3223   1537 F6 02               ORI 02H
3224   1539 12                  STAX D
3225   153A 13                  INX D
3226   153B 73                  MOV M,E
3227   153C 23                  INX H
3228   153D 72                  MOV M,D
3229   153E 23                  INX H
3230   153F 23                  INX H
3231   1540 23                  INX H
3232   1541 36 00               MVI M,00H
3233   1543 23                  INX H
3234   1544 71                  MOV M,C
3235   1545 23                  INX H
3236   1546 70                  MOV M,B
3237   1547 D1                  POP D
3238   1548 E1                  POP H
3239   1549 C3 E9 14            JMP L0445
3240   154C 3A 58 F6    L0439:  LDA 0F658H
3241   154F A7                  ANA A
3242   1550 21 B6 F9            LXI H,0F9B6H
3243   1553 CC 60 20            CZ L0446
3244   1556 CA 1E 50            JZ L0447
3245   1559 EB                  XCHG
3246   155A CD 80 16            CALL L0448
3247   155D AF                  XRA A
3248   155E 77                  MOV M,A
3249   155F 6F                  MOV L,A
3250   1560 67                  MOV H,A
3251   1561 22 DE FA            SHLD 0FADEH
3252   1564 C3 2C 15            JMP L0449
3253   1567 E1          L0440:  POP H
3254   1568 D1                  POP D
3255   1569 1E 02               MVI E,02H
3256   156B D5                  PUSH D
3257   156C E5                  PUSH H
3258   156D CD 16 21            CALL L0394
3259   1570 CD 60 20            CALL L0446
3260   1573 CA 21 15            JZ L0450
3261   1576 5D                  MOV E,L
3262   1577 54                  MOV D,H
3263   1578 23                  INX H
3264   1579 7E                  MOV A,M
3265   157A 23                  INX H
3266   157B 66                  MOV H,M
3267   157C 6F                  MOV L,A
3268   157D 01 FF FF            LXI B,0FFFFH
3269   1580 7E          L0451:  MOV A,M
3270   1581 23                  INX H
3271   1582 03                  INX B
3272   1583 FE 1A               CPI 1AH
3273   1585 C2 80 15            JNZ L0451
3274   1588 C3 2F 15            JMP L0452
3275   158B 1A          L0442:  LDAX D
3276   158C E6 02               ANI 02H
3277   158E C2 18 50            JNZ L0444
3278   1591 EB                  XCHG
3279   1592 CD 90 1F            CALL L0453
3280   1595 C3 21 15            JMP L0450
;158DH -  RAM file close routine
3281   1598 E5                  PUSH H
3282   1599 CD AB 15            CALL L0454
3283   159C E1                  POP H
3284   159D CD 35 17            CALL L0455
3285   15A0 C4 2C 16            CNZ L0456
3286   15A3 CD 80 16            CALL L0448
3287   15A6 36 00               MVI M,00H
3288   15A8 C3 27 4D            JMP L0457
3289   15AB 23          L0454:  INX H
3290   15AC 23                  INX H
3291   15AD 7E                  MOV A,M
3292   15AE 23                  INX H
3293   15AF 66                  MOV H,M
3294   15B0 6F                  MOV L,A
3295   15B1 2B                  DCX H
3296   15B2 7E                  MOV A,M
3297   15B3 E6 FD               ANI 0FDH
3298   15B5 77                  MOV M,A
3299   15B6 C9                  RET
;15ACH -  RAM file output routine
3300   15B7 F1                  POP PSW
3301   15B8 F5                  PUSH PSW
3302   15B9 01 F5 14            LXI B,14F5H
3303   15BC C5                  PUSH B
3304   15BD A7                  ANA A
3305   15BE C8                  RZ
3306   15BF FE 1A               CPI 1AH
3307   15C1 C8                  RZ
3308   15C2 FE 7F               CPI 7FH
3309   15C4 C8                  RZ
3310   15C5 CD 44 17            CALL L0458
3311   15C8 C0                  RNZ
3312   15C9 01 00 01            LXI B,0100H
3313   15CC C3 2C 16            JMP L0456
;15C4H -  RAM file input routine
3314   15CF EB                  XCHG
3315   15D0 CD 80 16            CALL L0448
3316   15D3 CD 8F 18            CALL L0459
3317   15D6 EB                  XCHG
3318   15D7 CD 54 17            CALL L0460
3319   15DA C2 14 16            JNZ L0461
3320   15DD EB                  XCHG
3321   15DE 2A 99 FC            LHLD 0FC99H
3322   15E1 DF                  RST 3
3323   15E2 F5                  PUSH PSW
3324   15E3 D5                  PUSH D
3325   15E4 C4 16 21            CNZ L0394
3326   15E7 E1                  POP H
3327   15E8 F1                  POP PSW
3328   15E9 01 F9 FF            LXI B,0FFF9H
3329   15EC 09                  DAD B
3330   15ED 5E                  MOV E,M
3331   15EE 23                  INX H
3332   15EF 56                  MOV D,M
3333   15F0 EB                  XCHG
3334   15F1 7E                  MOV A,M
3335   15F2 23                  INX H
3336   15F3 66                  MOV H,M
3337   15F4 6F                  MOV L,A
3338   15F5 C2 00 16            JNZ L0462
3339   15F8 D5                  PUSH D
3340   15F9 EB                  XCHG
3341   15FA 2A DE FA            LHLD 0FADEH
3342   15FD EB                  XCHG
3343   15FE 19                  DAD D
3344   15FF D1                  POP D
3345   1600 EB          L0462:  XCHG
3346   1601 23                  INX H
3347   1602 23                  INX H
3348   1603 23                  INX H
3349   1604 23                  INX H
3350   1605 4E                  MOV C,M
3351   1606 23                  INX H
3352   1607 46                  MOV B,M
3353   1608 34                  INR M
3354   1609 23                  INX H
3355   160A EB                  XCHG
3356   160B 09                  DAD B
3357   160C 06 00               MVI B,00H
3358   160E CD 1A 25            CALL L0463
3359   1611 EB                  XCHG
3360   1612 25                  DCR H
3361   1613 AF                  XRA A
3362   1614 4F          L0461:  MOV C,A
3363   1615 09                  DAD B
3364   1616 7E                  MOV A,M
3365   1617 FE 1A               CPI 1AH
3366   1619 37                  STC
3367   161A 3F                  CMC
3368   161B C2 56 4E            JNZ L0464
3369   161E CD 80 16            CALL L0448
3370   1621 77                  MOV M,A
3371   1622 37                  STC
3372   1623 C3 56 4E            JMP L0464
;161BH -  Special RAM file I/O
3373   1626 CD 80 16            CALL L0448
3374   1629 C3 C4 17            JMP L0465
3375   162C E5          L0456:  PUSH H
3376   162D C5                  PUSH B
3377   162E E5                  PUSH H
3378   162F EB                  XCHG
3379   1630 2A 99 FC            LHLD 0FC99H
3380   1633 DF                  RST 3
3381   1634 C4 16 21            CNZ L0394
3382   1637 E1                  POP H
3383   1638 2B                  DCX H
3384   1639 56                  MOV D,M
3385   163A 2B                  DCX H
3386   163B 5E                  MOV E,M
3387   163C EB                  XCHG
3388   163D C1                  POP B
3389   163E C5                  PUSH B
3390   163F E5                  PUSH H
3391   1640 09                  DAD B
3392   1641 EB                  XCHG
3393   1642 73                  MOV M,E
3394   1643 23                  INX H
3395   1644 72                  MOV M,D
3396   1645 01 FA FF            LXI B,0FFFAH
3397   1648 09                  DAD B
3398   1649 5E                  MOV E,M
3399   164A 23                  INX H
3400   164B 56                  MOV D,M
3401   164C 1A                  LDAX D
3402   164D 6F                  MOV L,A
3403   164E 13                  INX D
3404   164F 1A                  LDAX D
3405   1650 67                  MOV H,A
3406   1651 C1                  POP B
3407   1652 09                  DAD B
3408   1653 C1                  POP B
3409   1654 E5                  PUSH H
3410   1655 C5                  PUSH B
3411   1656 CD 8D 68            CALL L0466
3412   1659 D4 A5 18            CNC L0467
3413   165C C1                  POP B
3414   165D D1                  POP D
3415   165E E1                  POP H
3416   165F DA 74 16            JC L0468
3417   1662 E5                  PUSH H
3418   1663 7E          L0469:  MOV A,M
3419   1664 12                  STAX D
3420   1665 13                  INX D
3421   1666 23                  INX H
3422   1667 0D                  DCR C
3423   1668 C2 63 16            JNZ L0469
3424   166B D1                  POP D
3425   166C 2A 99 FC            LHLD 0FC99H
3426   166F DF                  RST 3
3427   1670 C8                  RZ
3428   1671 C3 16 21            JMP L0394
3429   1674 01 F7 FF    L0468:  LXI B,0FFF7H
3430   1677 09                  DAD B
3431   1678 36 00               MVI M,00H
3432   167A CD AB 15            CALL L0454
3433   167D C3 F3 3E            JMP L0470
3434   1680 D5          L0448:  PUSH D
3435   1681 2A A9 FA            LHLD 0FAA9H
3436   1684 11 98 FA            LXI D,0FA98H
3437   1687 19                  DAD D
3438   1688 D1                  POP D
3439   1689 C9                  RET
;167FH -  CAS device control block
3440   168A 94                  SUB H
3441   168B 16 B8               MVI D,0B8H
3442   168D 16 D2               MVI D,0D2H
3443   168F 16 DD               MVI D,0DDH
3444   1691 16 1B               MVI D,1BH
3445   1693 17                  RAL
;1689H -  CAS file open routine
3446   1694 E5                  PUSH H
3447   1695 D5                  PUSH D
3448   1696 01 06 00            LXI B,0006H
3449   1699 09                  DAD B
3450   169A AF                  XRA A
3451   169B 77                  MOV M,A
3452   169C 32 95 FA            STA 0FA95H
3453   169F 7B                  MOV A,E
3454   16A0 FE 08               CPI 08H
3455   16A2 CA 15 50            JZ L0437
3456   16A5 FE 01               CPI 01H
3457   16A7 CA B2 16            JZ L0471
3458   16AA CD E6 25            CALL L0472
3459   16AD D1          L0474:  POP D
3460   16AE E1                  POP H
3461   16AF C3 E9 14            JMP L0445
3462   16B2 CD 2B 26    L0471:  CALL L0473
3463   16B5 C3 AD 16            JMP L0474
;16ADH -  CAS file close routine
3464   16B8 CD 35 17            CALL L0455
3465   16BB CA CB 16            JZ L0475
3466   16BE E5                  PUSH H
3467   16BF 09                  DAD B
3468   16C0 36 1A       L0476:  MVI M,1AH
3469   16C2 23                  INX H
3470   16C3 0C                  INR C
3471   16C4 C2 C0 16            JNZ L0476
3472   16C7 E1                  POP H
3473   16C8 CD 21 17            CALL L0477
3474   16CB AF          L0475:  XRA A
3475   16CC 32 95 FA            STA 0FA95H
3476   16CF C3 27 4D            JMP L0457
;16C7H -  CAS file output routine
3477   16D2 F1                  POP PSW
3478   16D3 F5                  PUSH PSW
3479   16D4 CD 44 17            CALL L0458
3480   16D7 CC 21 17            CZ L0477
3481   16DA C3 F5 14            JMP L0478
;16D2H -  CAS file input routine
3482   16DD EB                  XCHG
3483   16DE 21 95 FA            LXI H,0FA95H
3484   16E1 CD 8F 18            CALL L0459
3485   16E4 EB                  XCHG
3486   16E5 CD 54 17            CALL L0460
3487   16E8 C2 0A 17            JNZ L0479
3488   16EB E5                  PUSH H
3489   16EC CD AA 26            CALL L0480
3490   16EF E1                  POP H
3491   16F0 01 00 00            LXI B,0000H
3492   16F3 CD BC 14    L0482:  CALL L0481
3493   16F6 77                  MOV M,A
3494   16F7 23                  INX H
3495   16F8 05                  DCR B
3496   16F9 C2 F3 16            JNZ L0482
3497   16FC CD BC 14            CALL L0481
3498   16FF 79                  MOV A,C
3499   1700 A7                  ANA A
3500   1701 C2 9D 14            JNZ L0435
3501   1704 CD B6 14            CALL L0430
3502   1707 25                  DCR H
3503   1708 AF                  XRA A
3504   1709 47                  MOV B,A
3505   170A 4F          L0479:  MOV C,A
3506   170B 09                  DAD B
3507   170C 7E                  MOV A,M
3508   170D FE 1A               CPI 1AH
3509   170F 37                  STC
3510   1710 3F                  CMC
3511   1711 C2 56 4E            JNZ L0464
3512   1714 32 95 FA            STA 0FA95H
3513   1717 37                  STC
3514   1718 C3 56 4E            JMP L0464
3515   171B 21 95 FA            LXI H,0FA95H
3516   171E C3 C4 17            JMP L0465
3517   1721 E5          L0477:  PUSH H
3518   1722 CD 20 26            CALL L0483
3519   1725 E1                  POP H
3520   1726 01 00 00            LXI B,0000H
3521   1729 7E          L0485:  MOV A,M
3522   172A CD CD 14            CALL L0484
3523   172D 23                  INX H
3524   172E 05                  DCR B
3525   172F C2 29 17            JNZ L0485
3526   1732 C3 0D 26            JMP L0486
3527   1735 7E          L0455:  MOV A,M
3528   1736 FE 01               CPI 01H
3529   1738 C8                  RZ
3530   1739 01 06 00            LXI B,0006H
3531   173C 09                  DAD B
3532   173D 7E                  MOV A,M
3533   173E 4F                  MOV C,A
3534   173F 36 00               MVI M,00H
3535   1741 C3 5A 17            JMP L0487
3536   1744 5F          L0458:  MOV E,A
3537   1745 01 06 00            LXI B,0006H
3538   1748 09                  DAD B
3539   1749 7E                  MOV A,M
3540   174A 34                  INR M
3541   174B 23                  INX H
3542   174C 23                  INX H
3543   174D 23                  INX H
3544   174E E5                  PUSH H
3545   174F 4F                  MOV C,A
3546   1750 09                  DAD B
3547   1751 73                  MOV M,E
3548   1752 E1                  POP H
3549   1753 C9                  RET
;
3550   1754 01 06 00    L0460:  LXI B,0006H
3551   1757 09                  DAD B
3552   1758 7E                  MOV A,M
3553   1759 34                  INR M
3554   175A 23          L0487:  INX H
3555   175B 23                  INX H
3556   175C 23                  INX H
3557   175D A7                  ANA A
3558   175E C9                  RET
;1754H -  LPT device control block
3559   175F E3                  XTHL
3560   1760 14                  INR D
3561   1761 27                  DAA
3562   1762 4D                  MOV C,L
3563   1763 65                  MOV H,L
3564   1764 17                  RAL
;175AH -  LPT file output routine
3565   1765 F1                  POP PSW
3566   1766 F5                  PUSH PSW
3567   1767 CD 23 4B            CALL L0488
3568   176A C3 F5 14            JMP L0478
;1762H -  COM device control block
3569   176D 77                  MOV M,A
3570   176E 17                  RAL
3571   176F 92                  SUB D
3572   1770 17                  RAL
3573   1771 9C                  SBB H
3574   1772 17                  RAL
3575   1773 A7                  ANA A
3576   1774 17                  RAL
3577   1775 C1                  POP B
3578   1776 17                  RAL
3579   1777 E5                  PUSH H
3580   1778 D5                  PUSH D
3581   1779 21 A5 FC            LXI H,0FCA5H
3582   177C CD C8 17            CALL L0489
3583   177F D1                  POP D
3584   1780 7B                  MOV A,E
3585   1781 FE 08               CPI 08H
3586   1783 CA 15 50            JZ L0437
3587   1786 D6 01               SUI 01H
3588   1788 C2 8E 17            JNZ L0490
3589   178B 32 96 FA            STA 0FA96H
3590   178E E1          L0490:  POP H
3591   178F C3 E9 14            JMP L0445
;179EH -  COM file close routine
3592   1792 CD 25 6C            CALL L0491
3593   1795 AF                  XRA A
3594   1796 32 96 FA            STA 0FA96H
3595   1799 C3 27 4D            JMP L0457
;179EH -  COM file close routine
3596   179C F1                  POP PSW
3597   179D F5                  PUSH PSW
3598   179E CD 62 6B            CALL L0492
3599   17A1 D2 F5 14            JNC L0478
3600   17A4 C3 A0 14            JMP L0427
3601   17A7 21 96 FA            LXI H,0FA96H
3602   17AA CD 8F 18            CALL L0459
3603   17AD CD AE 6A            CALL L0493
3604   17B0 DA A0 14            JC L0427
3605   17B3 FE 1A               CPI 1AH
3606   17B5 37                  STC
3607   17B6 3F                  CMC
3608   17B7 C2 56 4E            JNZ L0464
3609   17BA 32 96 FA            STA 0FA96H
3610   17BD 37                  STC
3611   17BE C3 56 4E            JMP L0464
3612   17C1 21 96 FA            LXI H,0FA96H
3613   17C4 71          L0465:  MOV M,C
3614   17C5 C3 EA 4F            JMP L0494
;17E6H -  Set RS232 parameters to string pointed to by HL.  String must 
;        be in the same format as used by TELCOM.
;         Entry:
;               HL - Points to parameter string
;                D - 2 if Modem is used
;           C flag - Set if RS232, reset of Modem
3615   17C8 01 15 50    L0489:  LXI B,5015H
3616   17CB C5                  PUSH B
3617   17CC 7E                  MOV A,M
3618   17CD D6 31               SUI 31H
3619   17CF FE 09               CPI 09H
3620   17D1 D0                  RNC
3621   17D2 3C                  INR A
3622   17D3 57                  MOV D,A
3623   17D4 23                  INX H
3624   17D5 7E                  MOV A,M
3625   17D6 D6 36               SUI 36H
3626   17D8 FE 03               CPI 03H
3627   17DA D0                  RNC
3628   17DB 3C                  INR A
3629   17DC 87                  ADD A
3630   17DD 87                  ADD A
3631   17DE 87                  ADD A
3632   17DF 5F                  MOV E,A
3633   17E0 23                  INX H
3634   17E1 CD EF 0F            CALL L0495
3635   17E4 FE 49               CPI 49H
3636   17E6 C2 FA 17            JNZ L0496
3637   17E9 7B                  MOV A,E
3638   17EA FE 18               CPI 18H
3639   17EC C8                  RZ
3640   17ED C6 0C               ADI 0CH
3641   17EF 5F                  MOV E,A
3642   17F0 E6 08               ANI 08H
3643   17F2 87                  ADD A
3644   17F3 87                  ADD A
3645   17F4 87                  ADD A
3646   17F5 F6 3F               ORI 3FH
3647   17F7 C3 10 18            JMP L0497
3648   17FA FE 45       L0496:  CPI 45H
3649   17FC 06 02               MVI B,02H
3650   17FE CA 0B 18            JZ L0498
3651   1801 D6 4E               SUI 4EH
3652   1803 06 04               MVI B,04H
3653   1805 CA 0B 18            JZ L0498
3654   1808 3D                  DCR A
3655   1809 C0                  RNZ
3656   180A 47                  MOV B,A
3657   180B 78          L0498:  MOV A,B
3658   180C B3                  ORA E
3659   180D 5F                  MOV E,A
3660   180E 3E FF               MVI A,0FFH
3661   1810 32 4E FF    L0497:  STA 0FF4EH
3662   1813 23                  INX H
3663   1814 7E                  MOV A,M
3664   1815 D6 31               SUI 31H
3665   1817 FE 02               CPI 02H
3666   1819 D0                  RNC
3667   181A B3                  ORA E
3668   181B 5F                  MOV E,A
3669   181C 23                  INX H
3670   181D CD EF 0F            CALL L0495
3671   1820 FE 44               CPI 44H
3672   1822 CA 2C 18            JZ L0499
3673   1825 FE 45               CPI 45H
3674   1827 C0                  RNZ
3675   1828 CD 0D 6C            CALL L0500
3676   182B 37                  STC
3677   182C D4 0E 6C    L0499:  CNC L0501
3678   182F F1                  POP PSW
3679   1830 D5                  PUSH D
3680   1831 11 66 F6            LXI D,0F666H
3681   1834 06 05               MVI B,05H
3682   1836 CD EF 0F    L0502:  CALL L0495
3683   1839 12                  STAX D
3684   183A 2B                  DCX H
3685   183B 1B                  DCX D
3686   183C 05                  DCR B
3687   183D C2 36 18            JNZ L0502
3688   1840 E1                  POP H
3689   1841 C3 E8 6B            JMP L0503
3690   1844 4E                  MOV C,M
3691   1845 18                  UNRECOGNIZED
3692   1846 50                  MOV D,B
3693   1847 18                  UNRECOGNIZED
3694   1848 E2 08 52            JPO L0504
3695   184B 18                  UNRECOGNIZED
3696   184C 54                  MOV D,H
3697   184D 18                  UNRECOGNIZED
3698   184E FF                  RST 7
3699   184F 52                  MOV D,D
3700   1850 FF                  RST 7
3701   1851 54                  MOV D,H
3702   1852 FF                  RST 7
3703   1853 56                  MOV D,M
3704   1854 FF                  RST 7
3705   1855 58                  MOV E,B
3706   1856 FF                  RST 7
3707   1857 28                  UNRECOGNIZED
3708   1858 CD 4F 4C            CALL L0505
3709   185B CA 21 50            JZ L0506
3710   185E FE 01               CPI 01H
3711   1860 C2 15 50            JNZ L0437
3712   1863 E5                  PUSH H
3713   1864 CD 87 18            CALL L0507
3714   1867 4F                  MOV C,A
3715   1868 9F                  SBB A
3716   1869 CD E3 33            CALL L0341
3717   186C E1                  POP H
3718   186D 23                  INX H
3719   186E 23                  INX H
3720   186F 23                  INX H
3721   1870 23                  INX H
3722   1871 7E                  MOV A,M
3723   1872 21 96 FA            LXI H,0FA96H
3724   1875 FE FC               CPI 0FCH
3725   1877 CA 85 18            JZ L0508
3726   187A CD 80 16            CALL L0448
3727   187D FE F9               CPI 0F9H
3728   187F CA 85 18            JZ L0508
3729   1882 21 95 FA            LXI H,0FA95H
3730   1885 71          L0508:  MOV M,C
3731   1886 C9                  RET
3732   1887 C5          L0507:  PUSH B
3733   1888 E5                  PUSH H
3734   1889 D5                  PUSH D
3735   188A 3E 06               MVI A,06H
3736   188C C3 E4 50            JMP L0509
3737   188F 7E          L0459:  MOV A,M
3738   1890 36 00               MVI M,00H
3739   1892 A7                  ANA A
3740   1893 C8                  RZ
3741   1894 33                  INX SP
3742   1895 33                  INX SP
3743   1896 FE 1A               CPI 1AH
3744   1898 37                  STC
3745   1899 3F                  CMC
3746   189A C2 56 4E            JNZ L0464
3747   189D 77                  MOV M,A
3748   189E 37                  STC
3749   189F C3 56 4E            JMP L0464
3750   18A2 01 01 00    L0443:  LXI B,0001H
3751   18A5 2A AF FB    L0467:  LHLD 0FBAFH
3752   18A8 7E          L0511:  MOV A,M
3753   18A9 A7                  ANA A
3754   18AA C8                  RZ
3755   18AB EB                  XCHG
3756   18AC 2A 7F F6            LHLD 0F67FH
3757   18AF EB                  XCHG
3758   18B0 DF                  RST 3
3759   18B1 D0                  RNC
3760   18B2 7E                  MOV A,M
3761   18B3 FE 81               CPI 81H
3762   18B5 11 07 00            LXI D,0007H
3763   18B8 C2 C8 18            JNZ L0510
3764   18BB 23                  INX H
3765   18BC 5E                  MOV E,M
3766   18BD 23                  INX H
3767   18BE 56                  MOV D,M
3768   18BF EB                  XCHG
3769   18C0 09                  DAD B
3770   18C1 EB                  XCHG
3771   18C2 72                  MOV M,D
3772   18C3 2B                  DCX H
3773   18C4 73                  MOV M,E
3774   18C5 11 18 00            LXI D,0018H
3775   18C8 19          L0510:  DAD D
3776   18C9 C3 A8 18            JMP L0511
;1904H -  TIME$ Function
3777   18CC D7          L0316:  RST 2
3778   18CD E5                  PUSH H
3779   18CE CD 57 19            CALL L0512
3780   18D1 CD D7 18            CALL L0513
3781   18D4 C3 66 27            JMP L0514
;190FH -  Read time from system clock and store it in the buffer 
;        pointed to by HL
;         Entry:
;               HL - Points to start of time buffer.  The buffer will 
;                    be filled with the time in the format hh:mm:ss.
;         Exit:
;               HL - Incremented to the end of the buffer.
;               All other registers destroyed
3782   18D7 CD 6A 19    L0513:  CALL L0515
3783   18DA 11 2F F9            LXI D,0F92FH
3784   18DD CD 60 19            CALL L0516
3785   18E0 36 3A               MVI M,3AH
3786   18E2 23                  INX H
3787   18E3 CD 60 19            CALL L0516
3788   18E6 36 3A               MVI M,3AH
3789   18E8 23          L0520:  INX H
3790   18E9 C3 60 19            JMP L0516
;1924H -  DATE$ function
3791   18EC D7          L0317:  RST 2
3792   18ED E5                  PUSH H
3793   18EE CD 57 19            CALL L0512
3794   18F1 CD F7 18            CALL L0517
3795   18F4 C3 66 27            JMP L0514
;192FH -  Read date and store it in the buffer pointed to by HL.
;         Entry:
;               HL - Points to start of date buffer.  The buffer will 
;                    be filled with the date in the format mm/dd/yy.
;         Exit:
;               HL - Incremented to the end of the buffer
;               All other registers destroyed
3796   18F7 CD 6A 19    L0517:  CALL L0515
3797   18FA 11 31 F9            LXI D,0F931H
3798   18FD CD 60 19            CALL L0516
3799   1900 36 2F               MVI M,2FH
3800   1902 23                  INX H
3801   1903 11 33 F9            LXI D,0F933H
3802   1906 1A                  LDAX D
3803   1907 FE 0A               CPI 0AH
3804   1909 06 30               MVI B,30H
3805   190B DA 12 19            JC L0518
3806   190E 06 31               MVI B,31H
3807   1910 D6 0A               SUI 0AH
3808   1912 70          L0518:  MOV M,B
3809   1913 23                  INX H
3810   1914 CD 64 19            CALL L0519
3811   1917 36 2F               MVI M,2FH
3812   1919 11 35 F9            LXI D,0F935H
3813   191C C3 E8 18            JMP L0520
;1955H -  DAY$ function
3814   191F D7          L0318:  RST 2
3815   1920 E5                  PUSH H
3816   1921 3E 03               MVI A,03H
3817   1923 CD 59 19            CALL L0521
3818   1926 CD 2C 19            CALL L0522
3819   1929 C3 66 27            JMP L0514
;1962H -  Read day and store it in the buffer pointed to by HL.
;         Entry:
;               HL - Points to start of day buffer.  The buffer will 
;                    be filled with the current 3 letter day 
;                    abbreviation.
;         Exit:
;               HL - Incremented to the end of the buffer
;               All other registers destroyed.
3820   192C CD 6A 19    L0522:  CALL L0515
3821   192F 3A 32 F9            LDA 0F932H
3822   1932 4F                  MOV C,A
3823   1933 87                  ADD A
3824   1934 81                  ADD C
3825   1935 4F                  MOV C,A
3826   1936 06 00               MVI B,00H
3827   1938 EB                  XCHG
3828   1939 21 42 19            LXI H,1942H
3829   193C 09                  DAD B
3830   193D 06 03               MVI B,03H
3831   193F C3 1A 25            JMP L0463
; 'Sun'
3832   1942 53                  MOV D,E
3833   1943 75                  MOV M,L
3834   1944 6E                  MOV L,M
; 'Mon'
3835   1945 4D                  MOV C,L
3836   1946 6F                  MOV L,A
3837   1947 6E                  MOV L,M
; 'Tue'
3838   1948 54                  MOV D,H
3839   1949 75                  MOV M,L
3840   194A 65                  MOV H,L
; 'Wed'
3841   194B 57                  MOV D,A
3842   194C 65                  MOV H,L
3843   194D 64                  MOV H,H
; 'Thu'
3844   194E 54                  MOV D,H
3845   194F 68                  MOV L,B
3846   1950 75                  MOV M,L
; 'Fri'
3847   1951 46                  MOV B,M
3848   1952 72                  MOV M,D
3849   1953 69                  MOV L,C
; 'Sat'
3850   1954 53                  MOV D,E
3851   1955 61                  MOV H,C
3852   1956 74                  MOV M,H
3853   1957 3E 08       L0512:  MVI A,08H
3854   1959 CD 36 27    L0521:  CALL L0523
3855   195C 2A 9C FB            LHLD 0FB9CH
3856   195F C9                  RET
3857   1960 CD 63 19    L0516:  CALL L0524
3858   1963 1A          L0524:  LDAX D
3859   1964 F6 30       L0519:  ORI 30H
3860   1966 77                  MOV M,A
3861   1967 1B                  DCX D
3862   1968 23                  INX H
3863   1969 C9                  RET
;19A0H -  Update the in memory clock values starting at F923H with the 
;        time in the internal hardware clock
3864   196A E5          L0515:  PUSH H
3865   196B 21 2A F9            LXI H,0F92AH
3866   196E F3                  DI
3867   196F CD 18 70            CALL L0525
3868   1972 FB                  EI
3869   1973 E1                  POP H
3870   1974 C9                  RET
;19ABH -  TIME$ Statement
3871   1975 FE DD               CPI 0DDH
3872   1977 C2 71 1A            JNZ L0526
3873   197A CD 0E 1A            CALL L0527
;19B3H -  Update the internal clock chip with the values in the in 
        memory time table starting at F923H
3874   197D 21 2A F9    L0531:  LXI H,0F92AH
3875   1980 F3                  DI
3876   1981 CD 19 70            CALL L0528
3877   1984 FB                  EI
3878   1985 E1                  POP H
3879   1986 C9                  RET
;19BDH -  DATE$ Statement
3880   1987 CD F8 19            CALL L0529
3881   198A C2 4D 04            JNZ L0002
3882   198D 11 32 F9            LXI D,0F932H
3883   1990 CD 36 1A            CALL L0530
3884   1993 FE 04               CPI 04H
3885   1995 D2 4D 04            JNC L0002
3886   1998 CD 36 1A            CALL L0530
3887   199B CF                  RST 1
3888   199C 2F                  CMA
3889   199D CD 35 11            CALL L0200
3890   19A0 3D                  DCR A
3891   19A1 FE 0C               CPI 0CH
3892   19A3 D2 4D 04            JNC L0002
3893   19A6 3C                  INR A
3894   19A7 11 33 F9            LXI D,0F933H
3895   19AA 12                  STAX D
3896   19AB CF                  RST 1
3897   19AC 2F                  CMA
3898   19AD 11 36 F9            LXI D,0F936H
3899   19B0 CD 36 1A            CALL L0530
3900   19B3 CD 36 1A            CALL L0530
3901   19B6 AF                  XRA A
3902   19B7 32 5C F6            STA 0F65CH
3903   19BA C3 7D 19            JMP L0531
;19F1H -  DAY$ Statement
3904   19BD CD F8 19            CALL L0529
3905   19C0 FE 03               CPI 03H
3906   19C2 C2 4D 04            JNZ L0002
3907   19C5 11 42 19            LXI D,1942H
3908   19C8 0E 07               MVI C,07H
3909   19CA E5          L0535:  PUSH H
3910   19CB 06 03               MVI B,03H
3911   19CD 1A          L0534:  LDAX D
3912   19CE D5                  PUSH D
3913   19CF CD F0 0F            CALL L0532
3914   19D2 5F                  MOV E,A
3915   19D3 CD EF 0F            CALL L0495
3916   19D6 BB                  CMP E
3917   19D7 D1                  POP D
3918   19D8 C2 EB 19            JNZ L0533
3919   19DB 13                  INX D
3920   19DC 23                  INX H
3921   19DD 05                  DCR B
3922   19DE C2 CD 19            JNZ L0534
3923   19E1 E1                  POP H
3924   19E2 3E 07               MVI A,07H
3925   19E4 91                  SUB C
3926   19E5 32 32 F9            STA 0F932H
3927   19E8 C3 7D 19            JMP L0531
3928   19EB 13          L0533:  INX D
3929   19EC 05                  DCR B
3930   19ED C2 EB 19            JNZ L0533
3931   19F0 E1                  POP H
3932   19F1 0D                  DCR C
3933   19F2 C2 CA 19            JNZ L0535
3934   19F5 C3 4D 04            JMP L0002
3935   19F8 CF          L0529:  RST 1
3936   19F9 DD                  UNRECOGNIZED
3937   19FA CD B2 0D    L0538:  CALL L0134
3938   19FD E3                  XTHL
3939   19FE E5                  PUSH H
3940   19FF CD 6A 19            CALL L0515
3941   1A02 CD EF 28            CALL L0536
3942   1A05 7E                  MOV A,M
3943   1A06 23                  INX H
3944   1A07 5E                  MOV E,M
3945   1A08 23                  INX H
3946   1A09 66                  MOV H,M
3947   1A0A 6B                  MOV L,E
3948   1A0B FE 08               CPI 08H
3949   1A0D C9                  RET
3950   1A0E CD F8 19    L0527:  CALL L0529
3951   1A11 C2 4D 04            JNZ L0002
3952   1A14 EB                  XCHG
3953   1A15 E1                  POP H
3954   1A16 E3                  XTHL
3955   1A17 E5                  PUSH H
3956   1A18 EB                  XCHG
3957   1A19 11 30 F9            LXI D,0F930H
3958   1A1C CD 36 1A            CALL L0530
3959   1A1F FE 03               CPI 03H
3960   1A21 D2 4D 04            JNC L0002
3961   1A24 CD 36 1A            CALL L0530
3962   1A27 CF                  RST 1
3963   1A28 3A CD 2E            LDA 2ECDH
3964   1A2B 1A                  LDAX D
3965   1A2C CF                  RST 1
3966   1A2D 3A CD 36            LDA 36CDH
3967   1A30 1A                  LDAX D
3968   1A31 FE 06               CPI 06H
3969   1A33 D2 4D 04            JNC L0002
3970   1A36 1B          L0530:  DCX D
3971   1A37 7E                  MOV A,M
3972   1A38 23                  INX H
3973   1A39 D6 30               SUI 30H
3974   1A3B FE 0A               CPI 0AH
3975   1A3D D2 4D 04            JNC L0002
3976   1A40 E6 0F               ANI 0FH
3977   1A42 12                  STAX D
3978   1A43 C9                  RET
;1A78H -  IPL Statement
3979   1A44 CA 62 1A            JZ L0537
3980   1A47 CD FA 19            CALL L0538
3981   1A4A A7                  ANA A
3982   1A4B CA 61 1A            JZ L0539
3983   1A4E FE 0A               CPI 0AH
3984   1A50 D2 E2 08            JNC L0214
3985   1A53 47                  MOV B,A
3986   1A54 EB                  XCHG
3987   1A55 21 B6 FA            LXI H,0FAB6H
3988   1A58 CD 42 34            CALL L0540
3989   1A5B 36 0D               MVI M,0DH
3990   1A5D 23                  INX H
3991   1A5E 70                  MOV M,B
3992   1A5F E1                  POP H
3993   1A60 C9                  RET
3994   1A61 E1          L0539:  POP H
;1A96H -  Erase current IPL program (table)
;         Exit:
;                A - Destroyed
3995   1A62 AF          L0537:  XRA A
3996   1A63 32 B6 FA            STA 0FAB6H
3997   1A66 32 B7 FA            STA 0FAB7H
3998   1A69 C9                  RET
;1A9EH -  COM and MDM Statements
3999   1A6A E5                  PUSH H
4000   1A6B 21 4B F9            LXI H,0F94BH
4001   1A6E C3 75 1A            JMP L0541
4002   1A71 E5          L0526:  PUSH H
4003   1A72 21 4E F9            LXI H,0F94EH
4004   1A75 CD B6 1A    L0541:  CALL L0542
4005   1A78 E1          L0545:  POP H
4006   1A79 F1                  POP PSW
4007   1A7A D7                  RST 2
4008   1A7B C3 18 08            JMP L0543
;1AB2H -  KEY() Statement
4009   1A7E CD 35 11    L0568:  CALL L0200
4010   1A81 3D                  DCR A
4011   1A82 FE 08               CPI 08H
4012   1A84 D2 E2 08            JNC L0214
4013   1A87 7E                  MOV A,M
4014   1A88 E5                  PUSH H
4015   1A89 CD A0 1A            CALL L0544
4016   1A8C C3 78 1A            JMP L0545
;1AC3H -  KEY STOP/ON/OFF Statements
4017   1A8F E5          L0569:  PUSH H
4018   1A90 1E 08               MVI E,08H
4019   1A92 D5          L0546:  PUSH D
4020   1A93 F5                  PUSH PSW
4021   1A94 CD A0 1A            CALL L0544
4022   1A97 F1                  POP PSW
4023   1A98 D1                  POP D
4024   1A99 1D                  DCR E
4025   1A9A C2 92 1A            JNZ L0546
4026   1A9D C3 78 1A            JMP L0545
4027   1AA0 16 00       L0544:  MVI D,00H
4028   1AA2 21 36 F6            LXI H,0F636H
4029   1AA5 19                  DAD D
4030   1AA6 E5                  PUSH H
4031   1AA7 21 4E F9            LXI H,0F94EH
4032   1AAA 19                  DAD D
4033   1AAB 19                  DAD D
4034   1AAC 19                  DAD D
4035   1AAD CD B6 1A            CALL L0542
4036   1AB0 7E                  MOV A,M
4037   1AB1 E6 01               ANI 01H
4038   1AB3 E1                  POP H
4039   1AB4 77                  MOV M,A
4040   1AB5 C9                  RET
4041   1AB6 FE 97       L0542:  CPI 97H
4042   1AB8 CA 7C 3F            JZ L0547
4043   1ABB FE CB               CPI 0CBH
4044   1ABD CA 8E 3F            JZ L0548
4045   1AC0 FE 8F               CPI 8FH
4046   1AC2 CA 95 3F            JZ L0549
4047   1AC5 C3 4D 04            JMP L0002
4048   1AC8 FE AD       L0195:  CPI 0ADH
4049   1ACA 01 01 00            LXI B,0001H
4050   1ACD C8                  RZ
4051   1ACE FE AF               CPI 0AFH
4052   1AD0 01 08 02            LXI B,0208H
4053   1AD3 C8                  RZ
4054   1AD4 FE AA               CPI 0AAH
4055   1AD6 37                  STC
4056   1AD7 C0                  RNZ
;1B0FH -  ON TIME$ Statement
4057   1AD8 23                  INX H
4058   1AD9 CD 0E 1A            CALL L0527
4059   1ADC 21 44 F9            LXI H,0F944H
4060   1ADF 06 06               MVI B,06H
4061   1AE1 CD 42 34            CALL L0540
4062   1AE4 E1                  POP H
4063   1AE5 2B                  DCX H
4064   1AE6 01 01 01            LXI B,0101H
4065   1AE9 A7                  ANA A
4066   1AEA C9                  RET
4067   1AEB E5          L0198:  PUSH H
4068   1AEC 47                  MOV B,A
4069   1AED 87                  ADD A
4070   1AEE 80                  ADD B
4071   1AEF 6F                  MOV L,A
4072   1AF0 26 00               MVI H,00H
4073   1AF2 01 4C F9            LXI B,0F94CH
4074   1AF5 09                  DAD B
4075   1AF6 73                  MOV M,E
4076   1AF7 23                  INX H
4077   1AF8 72                  MOV M,D
4078   1AF9 E1                  POP H
4079   1AFA C9                  RET
;1B32H -  RST 7.5 interrupt routine (see 3CH).
4080   1AFB CD FF F5    L0011:  CALL L0550
4081   1AFE E5                  PUSH H
4082   1AFF D5                  PUSH D
4083   1B00 C5                  PUSH B
4084   1B01 F5                  PUSH PSW
4085   1B02 3E 0D               MVI A,0DH
4086   1B04 30                  SIM
4087   1B05 FB                  EI
4088   1B06 21 36 F9            LXI H,0F936H
4089   1B09 35                  DCR M
4090   1B0A C2 77 1B            JNZ L0551
4091   1B0D 36 7D               MVI M,7DH
4092   1B0F 23                  INX H
4093   1B10 35                  DCR M
4094   1B11 C2 2E 1B            JNZ L0552
4095   1B14 36 0C               MVI M,0CH
4096   1B16 23                  INX H
4097   1B17 E5                  PUSH H
4098   1B18 2A 81 F6            LHLD 0F681H
4099   1B1B 23                  INX H
4100   1B1C 7C                  MOV A,H
4101   1B1D B5                  ORA L
4102   1B1E E1                  POP H
4103   1B1F C4 7A 1B            CNZ L0403
4104   1B22 7E                  MOV A,M
4105   1B23 A7                  ANA A
4106   1B24 CA 2E 1B            JZ L0552
4107   1B27 35                  DCR M
4108   1B28 C2 2E 1B            JNZ L0552
4109   1B2B 23                  INX H
4110   1B2C 36 FF               MVI M,0FFH
4111   1B2E 21 3A F9    L0552:  LXI H,0F93AH
4112   1B31 E5                  PUSH H
4113   1B32 CD 18 70            CALL L0525
4114   1B35 D1                  POP D
4115   1B36 21 44 F9            LXI H,0F944H
4116   1B39 06 06               MVI B,06H
4117   1B3B 1A          L0554:  LDAX D
4118   1B3C 96                  SUB M
4119   1B3D C2 51 1B            JNZ L0553
4120   1B40 13                  INX D
4121   1B41 23                  INX H
4122   1B42 05                  DCR B
4123   1B43 C2 3B 1B            JNZ L0554
4124   1B46 B6                  ORA M
4125   1B47 C2 55 1B            JNZ L0555
4126   1B4A 21 4E F9            LXI H,0F94EH
4127   1B4D CD AE 3F            CALL L0556
4128   1B50 3E AF               MVI A,0AFH
4129   1B52 32 4A F9            STA 0F94AH
4130   1B55 3A 43 F9    L0555:  LDA 0F943H
4131   1B58 21 5C F6            LXI H,0F65CH
4132   1B5B BE                  CMP M
4133   1B5C 77                  MOV M,A
4134   1B5D D2 74 1B            JNC L0557
4135   1B60 21 34 F9            LXI H,0F934H
4136   1B63 34                  INR M
4137   1B64 7E                  MOV A,M
4138   1B65 D6 0A               SUI 0AH
4139   1B67 C2 74 1B            JNZ L0557
4140   1B6A 77                  MOV M,A
4141   1B6B 23                  INX H
4142   1B6C 34                  INR M
4143   1B6D 7E                  MOV A,M
4144   1B6E D6 0A               SUI 0AH
4145   1B70 C2 74 1B            JNZ L0557
4146   1B73 77                  MOV M,A
4147   1B74 CD 9C 73    L0557:  CALL L0558
4148   1B77 C3 80 70    L0551:  JMP L0559
4149   1B7A 3A 5E F6    L0403:  LDA 0F65EH
4150   1B7D 32 38 F9            STA 0F938H
4151   1B80 C9                  RET
;1BB8H -  KEY Statement
4152   1B81 FE A5               CPI 0A5H
4153   1B83 C2 BF 1B            JNZ L0560
;1BBDH -  KEY LIST Statement
4154   1B86 D7                  RST 2
4155   1B87 E5                  PUSH H
4156   1B88 21 90 F7            LXI H,0F790H
4157   1B8B 0E 04               MVI C,04H
4158   1B8D CD 9C 1B    L0563:  CALL L0561
4159   1B90 CD 9C 1B            CALL L0561
4160   1B93 CD FE 41            CALL L0562
4161   1B96 0D                  DCR C
4162   1B97 C2 8D 1B            JNZ L0563
4163   1B9A E1                  POP H
4164   1B9B C9                  RET
;
4165   1B9C 06 10       L0561:  MVI B,10H
4166   1B9E CD A9 1B            CALL L0564
4167   1BA1 06 03               MVI B,03H
4168   1BA3 E7          L0565:  RST 4
4169   1BA4 05                  DCR B
4170   1BA5 C2 A3 1B            JNZ L0565
4171   1BA8 C9                  RET
;1BE0H -  Send B number of characters from the buffer pointed to by HL 
;        to the screen.  Any control characters (0-31 and 127) are 
;        converted to spaces for printing.
;         Entry:
;               HL - Points to buffer to print
;                B - Number of characters to print
;         Exit:
;                A - Destroyed
;               HL - Incremented past last byte printed.
4172   1BA9 7E          L0564:  MOV A,M
4173   1BAA FE 7F               CPI 7FH
4174   1BAC CA B4 1B            JZ L0566
4175   1BAF FE 20               CPI 20H
4176   1BB1 D2 B6 1B            JNC L0567
4177   1BB4 3E 20       L0566:  MVI A,20H
4178   1BB6 E7          L0567:  RST 4
4179   1BB7 23                  INX H
4180   1BB8 05                  DCR B
4181   1BB9 C2 A9 1B            JNZ L0564
4182   1BBC 3E 20               MVI A,20H
4183   1BBE C9                  RET
;
4184   1BBF FE 28       L0560:  CPI 28H
4185   1BC1 CA 7E 1A            JZ L0568
4186   1BC4 FE 97               CPI 97H
4187   1BC6 CA 8F 1A            JZ L0569
4188   1BC9 FE CB               CPI 0CBH
4189   1BCB CA 8F 1A            JZ L0569
4190   1BCE FE 8F               CPI 8FH
4191   1BD0 CA 8F 1A            JZ L0569
4192   1BD3 CD 35 11            CALL L0200
4193   1BD6 3D                  DCR A
4194   1BD7 FE 08               CPI 08H
4195   1BD9 D2 E2 08            JNC L0214
4196   1BDC EB                  XCHG
4197   1BDD 6F                  MOV L,A
4198   1BDE 26 00               MVI H,00H
4199   1BE0 29                  DAD H
4200   1BE1 29                  DAD H
4201   1BE2 29                  DAD H
4202   1BE3 29                  DAD H
4203   1BE4 01 90 F7            LXI B,0F790H
4204   1BE7 09                  DAD B
4205   1BE8 E5                  PUSH H
4206   1BE9 EB                  XCHG
4207   1BEA CF                  RST 1
4208   1BEB 2C                  INR L
4209   1BEC CD B2 0D            CALL L0134
4210   1BEF E5                  PUSH H
4211   1BF0 CD EF 28            CALL L0536
4212   1BF3 46                  MOV B,M
4213   1BF4 23                  INX H
4214   1BF5 5E                  MOV E,M
4215   1BF6 23                  INX H
4216   1BF7 56                  MOV D,M
4217   1BF8 E1                  POP H
4218   1BF9 E3                  XTHL
4219   1BFA 0E 0F               MVI C,0FH
4220   1BFC 78                  MOV A,B
4221   1BFD A7                  ANA A
4222   1BFE CA 11 1C            JZ L0570
4223   1C01 1A          L0572:  LDAX D
4224   1C02 A7                  ANA A
4225   1C03 CA E2 08            JZ L0214
4226   1C06 77                  MOV M,A
4227   1C07 13                  INX D
4228   1C08 23                  INX H
4229   1C09 0D                  DCR C
4230   1C0A CA 17 1C            JZ L0571
4231   1C0D 05                  DCR B
4232   1C0E C2 01 1C            JNZ L0572
4233   1C11 70          L0570:  MOV M,B
4234   1C12 23                  INX H
4235   1C13 0D                  DCR C
4236   1C14 C2 11 1C            JNZ L0570
4237   1C17 71          L0571:  MOV M,C
4238   1C18 CD C1 57            CALL L0573
4239   1C1B CD B3 69            CALL L0574
4240   1C1E E1                  POP H
4241   1C1F C9                  RET
;1C57H -  PSET Statement
4242   1C20 CD F7 1C            CALL L0575
4243   1C23 0F          L0578:  RRC
4244   1C24 E5                  PUSH H
4245   1C25 F5                  PUSH PSW
4246   1C26 DC 66 71            CC L0576
4247   1C29 F1                  POP PSW
4248   1C2A D4 67 71            CNC L0577
4249   1C2D E1                  POP H
4250   1C2E C9                  RET
;1C66H -  PRESET Statement
4251   1C2F CD F7 1C            CALL L0575
4252   1C32 2F                  CMA
4253   1C33 C3 23 1C            JMP L0578
;1C6DH -  LINE (graphic) Statement
4254   1C36 FE D1       L0249:  CPI 0D1H
4255   1C38 EB                  XCHG
4256   1C39 2A 55 F6            LHLD 0F655H
4257   1C3C EB                  XCHG
4258   1C3D C4 F7 1C            CNZ L0575
4259   1C40 D5                  PUSH D
4260   1C41 CF                  RST 1
4261   1C42 D1                  POP D
4262   1C43 CD F7 1C            CALL L0575
4263   1C46 D5                  PUSH D
4264   1C47 11 66 71            LXI D,7166H
4265   1C4A CA 5D 1C            JZ L0579
4266   1C4D D5                  PUSH D
4267   1C4E CF                  RST 1
4268   1C4F 2C                  INR L
4269   1C50 CD 35 11            CALL L0200
4270   1C53 D1                  POP D
4271   1C54 0F                  RRC
4272   1C55 DA 5B 1C            JC L0580
4273   1C58 11 67 71            LXI D,7167H
4274   1C5B 2B          L0580:  DCX H
4275   1C5C D7                  RST 2
4276   1C5D EB          L0579:  XCHG
4277   1C5E 22 68 F6            SHLD 0F668H
4278   1C61 EB                  XCHG
4279   1C62 CA 9B 1C            JZ L0581
4280   1C65 CF                  RST 1
4281   1C66 2C                  INR L
4282   1C67 CF                  RST 1
4283   1C68 42                  MOV B,D
4284   1C69 CA 85 1C            JZ L0582
4285   1C6C CF                  RST 1
4286   1C6D 46                  MOV B,M
4287   1C6E D1                  POP D
4288   1C6F E3                  XTHL
4289   1C70 7B                  MOV A,E
4290   1C71 95                  SUB L
4291   1C72 D2 78 1C            JNC L0583
4292   1C75 2F                  CMA
4293   1C76 3C                  INR A
4294   1C77 6B                  MOV L,E
4295   1C78 47          L0583:  MOV B,A
4296   1C79 04                  INR B
4297   1C7A 5D          L0585:  MOV E,L
4298   1C7B CD A2 1C            CALL L0584
4299   1C7E 2C                  INR L
4300   1C7F 05                  DCR B
4301   1C80 C2 7A 1C            JNZ L0585
4302   1C83 E1                  POP H
4303   1C84 C9                  RET
4304   1C85 D1          L0582:  POP D
4305   1C86 E3                  XTHL
4306   1C87 D5                  PUSH D
4307   1C88 5D                  MOV E,L
4308   1C89 CD A2 1C            CALL L0584
4309   1C8C D1                  POP D
4310   1C8D D5                  PUSH D
4311   1C8E 54                  MOV D,H
4312   1C8F CD A2 1C            CALL L0584
4313   1C92 D1                  POP D
4314   1C93 E5                  PUSH H
4315   1C94 62                  MOV H,D
4316   1C95 CD A2 1C            CALL L0584
4317   1C98 E1                  POP H
4318   1C99 6B                  MOV L,E
4319   1C9A 01 D1 E3            LXI B,0E3D1H
4320   1C9D CD A2 1C            CALL L0584
4321   1CA0 E1                  POP H
4322   1CA1 C9                  RET
;
4323   1CA2 E5          L0584:  PUSH H
4324   1CA3 D5                  PUSH D
4325   1CA4 C5                  PUSH B
4326   1CA5 7D                  MOV A,L
4327   1CA6 93                  SUB E
4328   1CA7 D2 AD 1C            JNC L0586
4329   1CAA EB                  XCHG
4330   1CAB 2F                  CMA
4331   1CAC 3C                  INR A
4332   1CAD 47          L0586:  MOV B,A
4333   1CAE 0E 14               MVI C,14H
4334   1CB0 7C                  MOV A,H
4335   1CB1 92                  SUB D
4336   1CB2 D2 B8 1C            JNC L0587
4337   1CB5 2F                  CMA
4338   1CB6 3C                  INR A
4339   1CB7 0C                  INR C
4340   1CB8 B8          L0587:  CMP B
4341   1CB9 DA C3 1C            JC L0588
4342   1CBC 67                  MOV H,A
4343   1CBD 68                  MOV L,B
4344   1CBE 3E 1C               MVI A,1CH
4345   1CC0 C3 C8 1C            JMP L0589
4346   1CC3 6F          L0588:  MOV L,A
4347   1CC4 60                  MOV H,B
4348   1CC5 79                  MOV A,C
4349   1CC6 0E 1C               MVI C,1CH
4350   1CC8 32 6A F6    L0589:  STA 0F66AH
4351   1CCB 79                  MOV A,C
4352   1CCC 32 6C F6            STA 0F66CH
4353   1CCF 44                  MOV B,H
4354   1CD0 04                  INR B
4355   1CD1 7C                  MOV A,H
4356   1CD2 A7                  ANA A
4357   1CD3 1F                  RAR
4358   1CD4 4F                  MOV C,A
4359   1CD5 E5          L0595:  PUSH H
4360   1CD6 D5                  PUSH D
4361   1CD7 C5                  PUSH B
4362   1CD8 CD 67 F6            CALL L0590
4363   1CDB C1                  POP B
4364   1CDC D1                  POP D
4365   1CDD E1                  POP H
4366   1CDE CD 6C F6            CALL L0591
4367   1CE1 79                  MOV A,C
4368   1CE2 85                  ADD L
4369   1CE3 4F                  MOV C,A
4370   1CE4 DA EB 1C            JC L0592
4371   1CE7 BC                  CMP H
4372   1CE8 DA F0 1C            JC L0593
4373   1CEB 94          L0592:  SUB H
4374   1CEC 4F                  MOV C,A
4375   1CED CD 6A F6            CALL L0594
4376   1CF0 05          L0593:  DCR B
4377   1CF1 C2 D5 1C            JNZ L0595
4378   1CF4 C3 F9 14            JMP L0389
4379   1CF7 CF          L0575:  RST 1
4380   1CF8 28                  UNRECOGNIZED
4381   1CF9 CD 35 11            CALL L0200
4382   1CFC FE F0               CPI 0F0H
4383   1CFE D2 E2 08            JNC L0214
4384   1D01 F5                  PUSH PSW
4385   1D02 CF                  RST 1
4386   1D03 2C                  INR L
4387   1D04 CD 35 11            CALL L0200
4388   1D07 FE 40               CPI 40H
4389   1D09 D2 E2 08            JNC L0214
4390   1D0C F1                  POP PSW
4391   1D0D 57                  MOV D,A
4392   1D0E EB                  XCHG
4393   1D0F 22 55 F6            SHLD 0F655H
4394   1D12 EB                  XCHG
4395   1D13 7E                  MOV A,M
4396   1D14 FE 29               CPI 29H
4397   1D16 C2 1D 1D            JNZ L0596
4398   1D19 D7                  RST 2
4399   1D1A 3E 01               MVI A,01H
4400   1D1C C9                  RET

4401   1D1D D5          L0596:  PUSH D
4402   1D1E CF                  RST 1
4403   1D1F 2C                  INR L
4404   1D20 CD 35 11            CALL L0200
4405   1D23 CF                  RST 1
4406   1D24 29                  DAD H
4407   1D25 7B                  MOV A,E
4408   1D26 D1                  POP D
4409   1D27 C9                  RET

4410   1D28 CD 19 11    L0225:  CALL L0138
4411   1D2B CF                  RST 1
4412   1D2C 2C                  INR L
4413   1D2D E5                  PUSH H
4414   1D2E EB                  XCHG
4415   1D2F 3A 43 F6            LDA 0F643H
4416   1D32 2F                  CMA
4417   1D33 3C                  INR A
4418   1D34 4F                  MOV C,A
4419   1D35 06 FF               MVI B,0FFH
4420   1D37 58                  MOV E,B
4421   1D38 1C          L0597:  INR E
4422   1D39 55                  MOV D,L
4423   1D3A 09                  DAD B
4424   1D3B DA 38 1D            JC L0597
4425   1D3E 3A 43 F6            LDA 0F643H
4426   1D41 14                  INR D
4427   1D42 BA                  CMP D
4428   1D43 DA E2 08            JC L0214
4429   1D46 3A 42 F6            LDA 0F642H
4430   1D49 1C                  INR E
4431   1D4A BB                  CMP E
4432   1D4B DA E2 08            JC L0214
4433   1D4E EB                  XCHG
4434   1D4F CD 58 42            CALL L0598
4435   1D52 7C                  MOV A,H
4436   1D53 3D                  DCR A
4437   1D54 32 8F F7            STA 0F78FH
4438   1D57 E1                  POP H
4439   1D58 C9                  RET
;1D90H -  CSRLIN Function
4440   1D59 E5          L0331:  PUSH H
4441   1D5A 3A 40 F6            LDA 0F640H
4442   1D5D 3D                  DCR A
4443   1D5E CD E3 33    L0600:  CALL L0341
4444   1D61 E1                  POP H
4445   1D62 D7                  RST 2
4446   1D63 C9                  RET
;1D9BH -  MAX Function
4447   1D64 D7          L0319:  RST 2
4448   1D65 FE 9D               CPI 9DH
4449   1D67 CA 7B 1D            JZ L0599
4450   1D6A CF                  RST 1
4451   1D6B 52                  MOV D,D
4452   1D6C CF                  RST 1
4453   1D6D 41                  MOV B,C
4454   1D6E CF                  RST 1
4455   1D6F 4D                  MOV C,L
;1DA7H -  MAXRAM Function
4456   1D70 E5                  PUSH H
4457   1D71 FF                  RST 7
4458   1D72 02                  STAX B
4459   1D73 21 F0 F5            LXI H,0F5F0H
4460   1D76 CD B4 37            CALL L0315
4461   1D79 E1                  POP H
4462   1D7A C9                  RET
;1DB2H -  MAXFILES Functions
4463   1D7B E5          L0599:  PUSH H
4464   1D7C 3A 94 FC            LDA 0FC94H
4465   1D7F C3 5E 1D            JMP L0600
;1DB9H -  HIMEM Function
4466   1D82 E5          L0320:  PUSH H
4467   1D83 2A F4 F5            LHLD 0F5F4H
4468   1D86 CD B4 37            CALL L0315
4469   1D89 E1                  POP H
4470   1D8A D7                  RST 2
4471   1D8B C9                  RET
;1DC3H -  WIDTH Statement
4472   1D8C FF                  RST 7
4473   1D8D 48                  MOV C,B
;1DC5H -  SOUND Statement
4474   1D8E FE 97               CPI 97H
4475   1D90 CA AF 1D            JZ L0601
4476   1D93 FE CB               CPI 0CBH
4477   1D95 CA AE 1D            JZ L0602
4478   1D98 CD A0 12            CALL L0384
4479   1D9B 7A                  MOV A,D
4480   1D9C E6 C0               ANI 0C0H
4481   1D9E C2 E2 08            JNZ L0214
4482   1DA1 D5                  PUSH D
4483   1DA2 CF                  RST 1
4484   1DA3 2C                  INR L
4485   1DA4 CD 35 11            CALL L0200
4486   1DA7 A7                  ANA A
4487   1DA8 47                  MOV B,A
4488   1DA9 D1                  POP D
4489   1DAA C2 B4 6F            JNZ L0603
4490   1DAD C9                  RET
;1DE5H -  SOUND OFF Statement
4491   1DAE 3E AF       L0602:  MVI A,0AFH
;1DE6H -  SOUNF ON Statement
;      1DE6 AF                  XRA A
4492   1DB0 32 44 FF            STA 0FF44H
4493   1DB3 D7                  RST 2
4494   1DB4 C9                  RET
;1DECH -  MOTOR Statement
4495   1DB5 D6 CB               SUI 0CBH
4496   1DB7 CA BE 1D            JZ L0604
;1DF1H -  MOTOR ON Statement
4497   1DBA CF                  RST 1
4498   1DBB 97                  SUB A
4499   1DBC 2B                  DCX H
4500   1DBD 7C                  MOV A,H
;1DF5H -  MOTOR OFF Statement
4501   1DBE 5F          L0604:  MOV E,A
4502   1DBF D7                  RST 2
4503   1DC0 C3 2D 6D            JMP L0433
;1DFAH -  CALL Statement
4504   1DC3 CD A0 12            CALL L0384
4505   1DC6 EB                  XCHG
4506   1DC7 22 68 F6            SHLD 0F668H
4507   1DCA EB                  XCHG
4508   1DCB 2B                  DCX H
4509   1DCC D7                  RST 2
4510   1DCD CA E4 1D            JZ L0605
4511   1DD0 CF                  RST 1
4512   1DD1 2C                  INR L
4513   1DD2 FE 2C               CPI 2CH
4514   1DD4 CA DD 1D            JZ L0606
4515   1DD7 CD 35 11            CALL L0200
4516   1DDA CA E4 1D            JZ L0605
4517   1DDD F5          L0606:  PUSH PSW
4518   1DDE CF                  RST 1
4519   1DDF 2C                  INR L
4520   1DE0 CD A0 12            CALL L0384
4521   1DE3 F1                  POP PSW
4522   1DE4 E5          L0605:  PUSH H
4523   1DE5 EB                  XCHG
4524   1DE6 CD 67 F6            CALL L0590
4525   1DE9 E1                  POP H
4526   1DEA C9                  RET
;1E22H -  SCREEN Statement
4527   1DEB FE 2C               CPI 2CH
4528   1DED 3A 3F F6            LDA 0F63FH
4529   1DF0 C4 35 11            CNZ L0200
4530   1DF3 CD 05 1E            CALL L0607
4531   1DF6 2B                  DCX H
4532   1DF7 D7                  RST 2
4533   1DF8 C8                  RZ
4534   1DF9 CF                  RST 1
4535   1DFA 2C                  INR L
4536   1DFB CD 35 11            CALL L0200
4537   1DFE E5                  PUSH H
4538   1DFF A7                  ANA A
4539   1E00 CD B8 13            CALL L0608
4540   1E03 E1                  POP H
4541   1E04 C9                  RET
;
4542   1E05 E5          L0607:  PUSH H
4543   1E06 32 3F F6            STA 0F63FH
4544   1E09 A7                  ANA A
4545   1E0A 11 08 28            LXI D,2808H
4546   1E0D 2A 47 F6            LHLD 0F647H
4547   1E10 3E 0E               MVI A,0EH
4548   1E12 FF                  RST 7
4549   1E13 36 CA               MVI M,0CAH
4550   1E15 1D                  DCR E
4551   1E16 1E AF               MVI E,0AFH
4552   1E18 32 3F F6            STA 0F63FH
4553   1E1B FF                  RST 7
4554   1E1C 4A                  MOV C,D
4555   1E1D 22 40 F6            SHLD 0F640H
4556   1E20 EB                  XCHG
4557   1E21 22 42 F6            SHLD 0F642H
4558   1E24 32 7D F6            STA 0F67DH
4559   1E27 E1                  POP H
4560   1E28 C9                  RET
;1E5EH -  LCOPY Statement.  This routine will print the textual 
;        contents of the screen on the printer..
;         Exit:
;          HL, DE, and AF are destroyed.
4561   1E29 E5          L0408:  PUSH H
4562   1E2A CD 6E 4B            CALL L0609
4563   1E2D 21 00 FE            LXI H,0FE00H
4564   1E30 1E 08               MVI E,08H
4565   1E32 16 28       L0612:  MVI D,28H
4566   1E34 7E          L0611:  MOV A,M
4567   1E35 CD 84 14            CALL L0610
4568   1E38 23                  INX H
4569   1E39 15                  DCR D
4570   1E3A C2 34 1E            JNZ L0611
4571   1E3D CD 6E 4B            CALL L0609
4572   1E40 1D                  DCR E
4573   1E41 C2 32 1E            JNZ L0612
4574   1E44 E1                  POP H
4575   1E45 C9                  RET
;
4576   1E46 E5          L1337:  PUSH H
4577   1E47 CD 16 21            CALL L0394
4578   1E4A 2A AB FC            LHLD 0FCABH
4579   1E4D 11 20 20            LXI D,2020H
4580   1E50 DF                  RST 3
4581   1E51 F5                  PUSH PSW
4582   1E52 CA 5C 1E            JZ L0613
4583   1E55 11 42 41            LXI D,4142H
4584   1E58 DF                  RST 3
4585   1E59 C2 92 1E            JNZ L0614
4586   1E5C CD 77 20    L0613:  CALL L0615
4587   1E5F CA 92 1E            JZ L0614
4588   1E62 F1                  POP PSW
4589   1E63 C1                  POP B
4590   1E64 F1                  POP PSW
4591   1E65 CA E2 08            JZ L0214
4592   1E68 3E 00               MVI A,00H
4593   1E6A F5                  PUSH PSW
4594   1E6B C5                  PUSH B
4595   1E6C 22 93 FA            SHLD 0FA93H
4596   1E6F EB                  XCHG
4597   1E70 22 83 F6            SHLD 0F683H
4598   1E73 CD F7 05            CALL L0616
4599   1E76 E1                  POP H
4600   1E77 7E                  MOV A,M
4601   1E78 FE 2C               CPI 2CH
4602   1E7A C2 85 1E            JNZ L0617
4603   1E7D D7                  RST 2
4604   1E7E CF                  RST 1
4605   1E7F 52                  MOV D,D
4606   1E80 F1                  POP PSW
4607   1E81 3E 80               MVI A,80H
4608   1E83 37                  STC
4609   1E84 F5                  PUSH PSW
4610   1E85 F1          L0617:  POP PSW
4611   1E86 32 B9 FC            STA 0FCB9H
4612   1E89 DA 04 3F            JC L0105
4613   1E8C CD 04 3F            CALL L0105
4614   1E8F C3 09 05            JMP L0366
4615   1E92 F1          L0614:  POP PSW
4616   1E93 E1                  POP H
4617   1E94 16 F9               MVI D,0F9H
4618   1E96 C2 5B 4D            JNZ L0618
4619   1E99 E5                  PUSH H
4620   1E9A 21 20 20            LXI H,2020H
4621   1E9D 22 AB FC            SHLD 0FCABH
4622   1EA0 E1                  POP H
4623   1EA1 C3 5B 4D            JMP L0618
4624   1EA4 E5          L1344:  PUSH H
4625   1EA5 2A AB FC            LHLD 0FCABH
4626   1EA8 11 44 4F            LXI D,4F44H
4627   1EAB DF                  RST 3
4628   1EAC 06 00               MVI B,00H
4629   1EAE CA C3 1E            JZ L0619
4630   1EB1 11 42 41            LXI D,4142H
4631   1EB4 DF                  RST 3
4632   1EB5 06 01               MVI B,01H
4633   1EB7 CA C3 1E            JZ L0619
4634   1EBA 11 20 20            LXI D,2020H
4635   1EBD DF                  RST 3
4636   1EBE 06 02               MVI B,02H
4637   1EC0 C2 15 50            JNZ L0437
4638   1EC3 E1          L0619:  POP H
4639   1EC4 C5                  PUSH B
4640   1EC5 2B                  DCX H
4641   1EC6 D7                  RST 2
4642   1EC7 CA DB 1E            JZ L0620
4643   1ECA CF                  RST 1
4644   1ECB 2C                  INR L
4645   1ECC CF                  RST 1
4646   1ECD 41                  MOV B,C
4647   1ECE C1                  POP B
4648   1ECF 05                  DCR B
4649   1ED0 CA 15 50            JZ L0437
4650   1ED3 AF          L0622:  XRA A
4651   1ED4 11 02 F9            LXI D,0F902H
4652   1ED7 F5                  PUSH PSW
4653   1ED8 C3 D9 4D            JMP L0621
4654   1EDB C1          L0620:  POP B
4655   1EDC 05                  DCR B
4656   1EDD FA D3 1E            JM L0622
4657   1EE0 CD 52 20            CALL L0623
4658   1EE3 C2 E2 08            JNZ L0214
4659   1EE6 CD 77 20            CALL L0615
4660   1EE9 C4 E8 1F            CNZ L0624
4661   1EEC CD 16 21            CALL L0394
4662   1EEF CD B5 20            CALL L0625
4663   1EF2 22 93 FA            SHLD 0FA93H
4664   1EF5 3E 80               MVI A,80H
4665   1EF7 EB                  XCHG
4666   1EF8 2A 83 F6            LHLD 0F683H
4667   1EFB EB                  XCHG
4668   1EFC CD 11 22            CALL L0626
4669   1EFF CD AC 21            CALL L0627
4670   1F02 C3 09 05            JMP L0366
;
4671   1F05 FF                  RST 7
4672   1F06 34                  INR M
4673   1F07 E5                  PUSH H
4674   1F08 CD 0F 1F            CALL L0628
4675   1F0B E1                  POP H
4676   1F0C C3 86 4B            JMP L0080
;1F42H -  Display Catalog
;         Exit:
;               All registers are destroyed
4677   1F0F 21 5E F9    L0628:  LXI H,0F95EH
4678   1F12 0E 03       L0633:  MVI C,03H
4679   1F14 3A 43 F6            LDA 0F643H
4680   1F17 FE 28               CPI 28H
4681   1F19 CA 1E 1F            JZ L0629
4682   1F1C 0E 06               MVI C,06H
4683   1F1E CD A6 20    L0629:  CALL L0630
4684   1F21 C8                  RZ
4685   1F22 E6 18               ANI 18H
4686   1F24 C2 1E 1F            JNZ L0629
4687   1F27 E5                  PUSH H
4688   1F28 23                  INX H
4689   1F29 5E                  MOV E,M
4690   1F2A 23                  INX H
4691   1F2B 56                  MOV D,M
4692   1F2C 23                  INX H
4693   1F2D D5                  PUSH D
4694   1F2E 06 06               MVI B,06H
4695   1F30 7E          L0631:  MOV A,M
4696   1F31 E7                  RST 4
4697   1F32 23                  INX H
4698   1F33 05                  DCR B
4699   1F34 C2 30 1F            JNZ L0631
4700   1F37 3E 2E               MVI A,2EH
4701   1F39 E7                  RST 4
4702   1F3A 7E                  MOV A,M
4703   1F3B E7                  RST 4
4704   1F3C 23                  INX H
4705   1F3D 7E                  MOV A,M
4706   1F3E E7                  RST 4
4707   1F3F D1                  POP D
4708   1F40 2A 83 F6            LHLD 0F683H
4709   1F43 DF                  RST 3
4710   1F44 3E 2A               MVI A,2AH
4711   1F46 06 20               MVI B,20H
4712   1F48 CA 4C 1F            JZ L0632
4713   1F4B 78                  MOV A,B
4714   1F4C E7          L0632:  RST 4
4715   1F4D 78                  MOV A,B
4716   1F4E E7                  RST 4
4717   1F4F E7                  RST 4
4718   1F50 E1                  POP H
4719   1F51 0D                  DCR C
4720   1F52 C2 1E 1F            JNZ L0629
4721   1F55 CD FE 41            CALL L0562
4722   1F58 E5                  PUSH H
4723   1F59 21 00 00            LXI H,0000H
4724   1F5C CD FC 13            CALL L0154
4725   1F5F E1                  POP H
4726   1F60 C3 12 1F            JMP L0633
;1F91H -  KILL Statement
4727   1F63 CD 4B 20            CALL L0634
4728   1F66 2B                  DCX H
4729   1F67 D7                  RST 2
4730   1F68 C2 4D 04            JNZ L0002
4731   1F6B 7A                  MOV A,D
4732   1F6C FE F9               CPI 0F9H
4733   1F6E CA 73 1F            JZ L0635
4734   1F71 FF                  RST 7
4735   1F72 64                  MOV H,H
4736   1F73 E5          L0635:  PUSH H
4737   1F74 CD 16 21            CALL L0394
4738   1F77 CD 80 20            CALL L0636
4739   1F7A CA 1E 50            JZ L0447
4740   1F7D 47                  MOV B,A
4741   1F7E E6 20               ANI 20H
4742   1F80 C2 AB 1F            JNZ L0637
4743   1F83 78                  MOV A,B
4744   1F84 E6 40               ANI 40H
4745   1F86 CA D6 1F            JZ L0638
;1FBEH -  Kill a text file
;         Entry:
;               HL - Address of directory entry
;               DE - Start address of file
4746   1F89 78                  MOV A,B
4747   1F8A E6 02               ANI 02H
4748   1F8C C2 18 50            JNZ L0444
4749   1F8F 3E E5               MVI A,0E5H
4750   1F91 01 00 00            LXI B,0000H
4751   1F94 71                  MOV M,C
4752   1F95 6B                  MOV L,E
4753   1F96 62                  MOV H,D
4754   1F97 1A          L0639:  LDAX D
4755   1F98 13                  INX D
4756   1F99 03                  INX B
4757   1F9A FE 1A               CPI 1AH
4758   1F9C C2 97 1F            JNZ L0639
4759   1F9F CD BF 68            CALL L0640
4760   1FA2 CD A5 18    L0641:  CALL L0467
4761   1FA5 CD 16 21            CALL L0394
4762   1FA8 E1                  POP H
4763   1FA9 C9                  RET
;
4764   1FAA E5          L0681:  PUSH H
4765   1FAB 36 00       L0637:  MVI M,00H
4766   1FAD 2A C2 FB            LHLD 0FBC2H
4767   1FB0 E5                  PUSH H
4768   1FB1 EB                  XCHG
4769   1FB2 E5                  PUSH H
4770   1FB3 23                  INX H
4771   1FB4 23                  INX H
4772   1FB5 4E                  MOV C,M
4773   1FB6 23                  INX H
4774   1FB7 46                  MOV B,M
4775   1FB8 21 06 00            LXI H,0006H
4776   1FBB 09                  DAD B
4777   1FBC 44                  MOV B,H
4778   1FBD 4D                  MOV C,L
4779   1FBE E1                  POP H
4780   1FBF CD BF 68            CALL L0640
4781   1FC2 E1                  POP H
4782   1FC3 22 C2 FB            SHLD 0FBC2H
4783   1FC6 C3 A2 1F            JMP L0641
4784   1FC9 CD 16 21    L1541:  CALL L0394
4785   1FCC 2A B7 F9            LHLD 0F9B7H
4786   1FCF EB                  XCHG
4787   1FD0 21 B6 F9            LXI H,0F9B6H
4788   1FD3 C3 90 1F            JMP L0453
4789   1FD6 E5          L0638:  PUSH H
4790   1FD7 2A 83 F6            LHLD 0F683H
4791   1FDA DF                  RST 3
4792   1FDB E1                  POP H
4793   1FDC CA E2 08            JZ L0214
4794   1FDF CD E8 1F            CALL L0624
4795   1FE2 CD 08 3F            CALL L0170
4796   1FE5 C3 09 05            JMP L0366
4797   1FE8 36 00       L0624:  MVI M,00H
4798   1FEA 2A 83 F6            LHLD 0F683H
4799   1FED DF                  RST 3
4800   1FEE F5                  PUSH PSW
4801   1FEF D5                  PUSH D
4802   1FF0 CD FB 05            CALL L0104
4803   1FF3 D1                  POP D
4804   1FF4 23                  INX H
4805   1FF5 CD 04 21            CALL L0642
4806   1FF8 C5                  PUSH B
4807   1FF9 CD 16 21            CALL L0394
4808   1FFC C1                  POP B
4809   1FFD F1                  POP PSW
4810   1FFE C8                  RZ
4811   1FFF D8                  RC
4812   2000 2A 83 F6            LHLD 0F683H
4813   2003 09                  DAD B
4814   2004 22 83 F6            SHLD 0F683H
4815   2007 C9                  RET
;2037H -  NAME Statement
4816   2008 CD 4B 20            CALL L0634
4817   200B D5                  PUSH D
4818   200C CD 24 22            CALL L0643
4819   200F CF                  RST 1
4820   2010 41                  MOV B,C
4821   2011 CF                  RST 1
4822   2012 53                  MOV D,E
4823   2013 CD 4B 20            CALL L0634
4824   2016 7A                  MOV A,D
4825   2017 D1                  POP D
4826   2018 BA                  CMP D
4827   2019 C2 E2 08            JNZ L0214
4828   201C FE F9               CPI 0F9H
4829   201E CA 23 20            JZ L0644
4830   2021 FF                  RST 7
4831   2022 66                  MOV H,M
4832   2023 E5          L0644:  PUSH H
4833   2024 CD 80 20            CALL L0636
4834   2027 C2 E2 08            JNZ L0214
4835   202A CD 24 22            CALL L0643
4836   202D CD 80 20            CALL L0636
4837   2030 CA 1E 50            JZ L0447
4838   2033 E5                  PUSH H
4839   2034 2A AB FC            LHLD 0FCABH
4840   2037 EB                  XCHG
4841   2038 2A B4 FC            LHLD 0FCB4H
4842   203B DF                  RST 3
4843   203C C2 E2 08            JNZ L0214
4844   203F E1                  POP H
4845   2040 CD 24 22            CALL L0643
4846   2043 23                  INX H
4847   2044 23                  INX H
4848   2045 23                  INX H
4849   2046 CD 19 22            CALL L0645
4850   2049 E1                  POP H
4851   204A C9                  RET
;
4852   204B CD DD 4B    L0634:  CALL L0646
4853   204E C0                  RNZ
4854   204F 16 F9               MVI D,0F9H
4855   2051 C9                  RET
4856   2052 2A 93 FA    L0623:  LHLD 0FA93H
4857   2055 11 A0 F9            LXI D,0F9A0H
4858   2058 DF                  RST 3
4859   2059 C9                  RET
;
4860   205A 01 4F 43    L0680:  LXI B,434FH
4861   205D C3 7A 20            JMP L0647
4862   2060 2A AB FC    L0446:  LHLD 0FCABH
4863   2063 11 20 20            LXI D,2020H
4864   2066 DF                  RST 3
4865   2067 CA 71 20            JZ L0648
4866   206A 11 44 4F            LXI D,4F44H
4867   206D DF                  RST 3
4868   206E C2 15 50            JNZ L0437
4869   2071 01 4F 44    L0648:  LXI B,444FH
4870   2074 C3 7A 20            JMP L0647
4871   2077 01 41 42    L0615:  LXI B,4241H
4872   207A 21 AB FC    L0647:  LXI H,0FCABH
4873   207D 70                  MOV M,B
4874   207E 23                  INX H
4875   207F 71                  MOV M,C
4876   2080 21 5E F9    L0636:  LXI H,0F95EH
4877   2083 3E E1               MVI A,0E1H
4878   2085 CD A6 20            CALL L0630
4879   2088 C8                  RZ
4880   2089 E5                  PUSH H
4881   208A 23                  INX H
4882   208B 23                  INX H
4883   208C 11 A4 FC            LXI D,0FCA4H
4884   208F 06 08               MVI B,08H
4885   2091 13          L0650:  INX D
4886   2092 23                  INX H
4887   2093 1A                  LDAX D
4888   2094 BE                  CMP M
4889   2095 C2 84 20            JNZ L0649
4890   2098 05                  DCR B
4891   2099 C2 91 20            JNZ L0650
4892   209C E1                  POP H
4893   209D 7E                  MOV A,M
4894   209E 23                  INX H
4895   209F 5E                  MOV E,M
4896   20A0 23                  INX H
4897   20A1 56                  MOV D,M
4898   20A2 2B                  DCX H
4899   20A3 2B                  DCX H
4900   20A4 A7                  ANA A
4901   20A5 C9                  RET
;
4902   20A6 C5          L0630:  PUSH B
4903   20A7 01 0B 00            LXI B,000BH
4904   20AA 09                  DAD B
4905   20AB C1                  POP B
4906   20AC 7E                  MOV A,M
4907   20AD FE FF               CPI 0FFH
4908   20AF C8                  RZ
4909   20B0 A7                  ANA A
4910   20B1 F2 A6 20            JP L0630
4911   20B4 C9                  RET
;
4912   20B5 3A 58 F6    L0625:  LDA 0F658H
4913   20B8 A7                  ANA A
4914   20B9 21 B6 F9            LXI H,0F9B6H
4915   20BC C0                  RNZ
4916   20BD 21 B6 F9            LXI H,0F9B6H
4917   20C0 01 0B 00            LXI B,000BH
4918   20C3 09          L0652:  DAD B
4919   20C4 7E                  MOV A,M
4920   20C5 FE FF               CPI 0FFH
4921   20C7 CA 2D 50            JZ L0651
4922   20CA 87                  ADD A
4923   20CB DA C3 20            JC L0652
4924   20CE C9                  RET
;20FEH -  NEW Statement
4925   20CF C0                  RNZ
4926   20D0 CD 52 20    L0697:  CALL L0623
4927   20D3 C4 16 21            CNZ L0394
4928   20D6 CD F0 4D            CALL L0653
4929   20D9 21 A0 F9            LXI H,0F9A0H
4930   20DC 22 93 FA            SHLD 0FA93H
4931   20DF 2A A1 F9            LHLD 0F9A1H
4932   20E2 22 83 F6            SHLD 0F683H
4933   20E5 AF                  XRA A
4934   20E6 77                  MOV M,A
4935   20E7 23                  INX H
4936   20E8 77                  MOV M,A
4937   20E9 23                  INX H
4938   20EA EB                  XCHG
4939   20EB 2A C0 FB            LHLD 0FBC0H
4940   20EE CD 04 21            CALL L0642
4941   20F1 21 00 00            LXI H,0000H
4942   20F4 22 DE FA            SHLD 0FADEH
4943   20F7 CD 16 21            CALL L0394
4944   20FA C3 04 3F            JMP L0105
4945   20FD 2A C1 FA    L1537:  LHLD 0FAC1H
4946   2100 EB                  XCHG
4947   2101 2A C3 FA            LHLD 0FAC3H
4948   2104 7D          L0642:  MOV A,L
4949   2105 93                  SUB E
4950   2106 4F                  MOV C,A
4951   2107 7C                  MOV A,H
4952   2108 9A                  SBB D
4953   2109 47                  MOV B,A
4954   210A EB                  XCHG
4955   210B CD BF 68            CALL L0640
4956   210E 2A C0 FB            LHLD 0FBC0H
4957   2111 09                  DAD B
4958   2112 22 C0 FB            SHLD 0FBC0H
4959   2115 C9                  RET
;
4960   2116 CD 65 21    L0394:  CALL L0654
4961   2119 AF                  XRA A
4962   211A 32 10 F8            STA 0F810H
4963   211D 2A C7 FA            LHLD 0FAC7H
4964   2120 23                  INX H
4965   2121 E5          L0658:  PUSH H
4966   2122 21 95 F9            LXI H,0F995H
4967   2125 11 FF FF            LXI D,0FFFFH
4968   2128 CD A6 20    L0656:  CALL L0630
4969   212B CA 4D 21            JZ L0655
4970   212E FE F0               CPI 0F0H
4971   2130 CA 28 21            JZ L0656
4972   2133 0F                  RRC
4973   2134 DA 28 21            JC L0656
4974   2137 E5                  PUSH H
4975   2138 23                  INX H
4976   2139 7E                  MOV A,M
4977   213A 23                  INX H
4978   213B 66                  MOV H,M
4979   213C 6F                  MOV L,A
4980   213D DF                  RST 3
4981   213E E1                  POP H
4982   213F D2 28 21            JNC L0656
4983   2142 44                  MOV B,H
4984   2143 4D                  MOV C,L
4985   2144 23                  INX H
4986   2145 5E                  MOV E,M
4987   2146 23                  INX H
4988   2147 56                  MOV D,M
4989   2148 2B                  DCX H
4990   2149 2B                  DCX H
4991   214A C3 28 21            JMP L0656
4992   214D 7B          L0655:  MOV A,E
4993   214E A2                  ANA D
4994   214F 3C                  INR A
4995   2150 D1                  POP D
4996   2151 CA 65 21            JZ L0654
4997   2154 60                  MOV H,B
4998   2155 69                  MOV L,C
4999   2156 7E                  MOV A,M
5000   2157 F6 01               ORI 01H
5001   2159 77                  MOV M,A
5002   215A 23                  INX H
5003   215B 73                  MOV M,E
5004   215C 23                  INX H
5005   215D 72                  MOV M,D
5006   215E EB                  XCHG
5007   215F CD 72 21            CALL L0657
5008   2162 C3 21 21            JMP L0658
5009   2165 21 5E F9    L0654:  LXI H,0F95EH
5010   2168 CD A6 20    L0659:  CALL L0630
5011   216B C8                  RZ
5012   216C E6 FE               ANI 0FEH
5013   216E 77                  MOV M,A
5014   216F C3 68 21            JMP L0659
5015   2172 3A 10 F8    L0657:  LDA 0F810H
5016   2175 3D                  DCR A
5017   2176 FA 9A 21            JM L0660
5018   2179 CA 86 21            JZ L0661
5019   217C 23                  INX H
5020   217D 23                  INX H
5021   217E 5E                  MOV E,M
5022   217F 23                  INX H
5023   2180 56                  MOV D,M
5024   2181 23                  INX H
5025   2182 23                  INX H
5026   2183 23                  INX H
5027   2184 19                  DAD D
5028   2185 C9                  RET

5029   2186 3E 1A       L0661:  MVI A,1AH
5030   2188 BE          L0662:  CMP M
5031   2189 23                  INX H
5032   218A C2 88 21            JNZ L0662
5033   218D EB                  XCHG
5034   218E 2A C2 FB            LHLD 0FBC2H
5035   2191 EB                  XCHG
5036   2192 DF                  RST 3
5037   2193 C0                  RNZ
5038   2194 3E 02               MVI A,02H
5039   2196 32 10 F8            STA 0F810H
5040   2199 C9                  RET

5041   219A EB          L0660:  XCHG
5042   219B CD FB 05            CALL L0104
5043   219E 23                  INX H
5044   219F EB                  XCHG
5045   21A0 2A C0 FB            LHLD 0FBC0H
5046   21A3 EB                  XCHG
5047   21A4 DF                  RST 3
5048   21A5 C0                  RNZ
5049   21A6 3E 01               MVI A,01H
5050   21A8 32 10 F8            STA 0F810H
5051   21AB C9                  RET
;
5052   21AC 2A C4 FB    L0627:  LHLD 0FBC4H
5053   21AF 22 C6 FB            SHLD 0FBC6H
5054   21B2 22 C8 FB            SHLD 0FBC8H
5055   21B5 2A C0 FB            LHLD 0FBC0H
5056   21B8 2B                  DCX H
5057   21B9 22 A1 F9            SHLD 0F9A1H
5058   21BC 23                  INX H
5059   21BD 01 02 00            LXI B,0002H
5060   21C0 EB                  XCHG
5061   21C1 CD 9F 68            CALL L0663
5062   21C4 AF                  XRA A
5063   21C5 77                  MOV M,A
5064   21C6 23                  INX H
5065   21C7 77                  MOV M,A
5066   21C8 2A C0 FB            LHLD 0FBC0H
5067   21CB 09                  DAD B
5068   21CC 22 C0 FB            SHLD 0FBC0H
5069   21CF C3 16 21            JMP L0394
;21FAH -  Count the number of characters in the buffer pointed to by 
;        HL. Buffer ends with a null
;         Entry:
;               HL - Points to the buffer to count
;         Exit:
;                E - Number of characters in the buffer pointed to by 
;                    HL
;                A - Destroyed
5070   21D2 E5          L0665:  PUSH H
5071   21D3 1E FF               MVI E,0FFH
5072   21D5 1C          L0664:  INR E
5073   21D6 7E                  MOV A,M
5074   21D7 23                  INX H
5075   21D8 A7                  ANA A
5076   21D9 C2 D5 21            JNZ L0664
5077   21DC E1                  POP H
5078   21DD C9                  RET
;
5079   21DE CD D2 21    L1431:  CALL L0665
5080   21E1 CD D9 4B            CALL L0666
5081   21E4 C2 4D 04            JNZ L0002
;220FH -  Open a text file
;         Entry:
;          (FC93H) - Filename (8 bytes).  DO not required
;         Exit:
;               HL - Points to start of text file
;               DE - Points to directory entry
;           C flag - Set if file already exist, reset if it is a new 
;                    file.
5082   21E7 CD 16 21    L0441:  CALL L0394
5083   21EA CD 60 20            CALL L0446
5084   21ED EB                  XCHG
5085   21EE 37                  STC
5086   21EF C0                  RNZ
5087   21F0 CD B5 20            CALL L0625
5088   21F3 E5                  PUSH H
5089   21F4 2A C0 FB            LHLD 0FBC0H
5090   21F7 E5                  PUSH H
5091   21F8 3E 1A               MVI A,1AH
5092   21FA CD 81 68            CALL L0667
5093   21FD DA F3 3E            JC L0470
5094   2200 D1                  POP D
5095   2201 E1                  POP H
5096   2202 E5                  PUSH H
5097   2203 D5                  PUSH D
5098   2204 3E C0               MVI A,0C0H
5099   2206 1B                  DCX D
5100   2207 CD 11 22            CALL L0626
5101   220A CD 16 21            CALL L0394
5102   220D E1                  POP H
5103   220E D1                  POP D
5104   220F A7                  ANA A
5105   2210 C9                  RET
;
5106   2211 D5          L0626:  PUSH D
5107   2212 77                  MOV M,A
5108   2213 23                  INX H
5109   2214 73                  MOV M,E
5110   2215 23                  INX H
5111   2216 72                  MOV M,D
5112   2217 23                  INX H
5113   2218 3E D5               MVI A,0D5H
5114   221A 11 A5 FC            LXI D,0FCA5H
5115   221D 06 08               MVI B,08H
5116   221F CD 42 34            CALL L0540
5117   2222 D1                  POP D
5118   2223 C9                  RET
;
5119   2224 E5          L0643:  PUSH H
5120   2225 06 09               MVI B,09H
5121   2227 11 A5 FC            LXI D,0FCA5H
5122   222A 21 AE FC            LXI H,0FCAEH
5123   222D 4E          L0668:  MOV C,M
5124   222E 1A                  LDAX D
5125   222F 77                  MOV M,A
5126   2230 79                  MOV A,C
5127   2231 12                  STAX D
5128   2232 13                  INX D
5129   2233 23                  INX H
5130   2234 05                  DCR B
5131   2235 C2 2D 22            JNZ L0668
5132   2238 E1                  POP H
5133   2239 C9                  RET
;
5134   223A CD 16 21    L1128:  CALL L0394
5135   223D 21 FF FF            LXI H,0FFFFH
5136   2240 22 35 F6            SHLD 0F635H
5137   2243 44                  MOV B,H
5138   2244 4D                  MOV C,L
5139   2245 2A AC F9            LHLD 0F9ACH
;22B9H -  Save the buffer pointed to by HL to tape.  After execution of 
;        this routine, return resumes at BASIC ready.
;         Entry:
;               HL - Start of buffer to save
;               DE - Number of characters to save
;         Exit:
;               All registers destroyed
5140   2248 E5                  PUSH H
5141   2249 3E 1A               MVI A,1AH
5142   224B BE          L0669:  CMP M
5143   224C 03                  INX B
5144   224D 23                  INX H
5145   224E C2 4B 22            JNZ L0669
5146   2251 E1                  POP H
5147   2252 CD BF 68            CALL L0640
5148   2255 C3 16 21            JMP L0394
;2280H -  CSAVE Statement
5149   2258 FE 4D               CPI 4DH
5150   225A CA B5 22            JZ L0670
5151   225D CD D4 25            CALL L0671
5152   2260 2B          L1345:  DCX H
5153   2261 D7                  RST 2
5154   2262 CA 70 22            JZ L0672
5155   2265 CF                  RST 1
5156   2266 2C                  INR L
5157   2267 CF                  RST 1
5158   2268 41                  MOV B,C
5159   2269 1E 02               MVI E,02H
5160   226B A7                  ANA A
5161   226C F5                  PUSH PSW
5162   226D C3 D9 4D            JMP L0621
5163   2270 CD F7 05    L0672:  CALL L0616
5164   2273 EB                  XCHG
5165   2274 2A 83 F6            LHLD 0F683H
5166   2277 7B                  MOV A,E
5167   2278 95                  SUB L
5168   2279 6F                  MOV L,A
5169   227A 7A                  MOV A,D
5170   227B 9C                  SBB H
5171   227C 67                  MOV H,A
5172   227D 2B                  DCX H
5173   227E 7C                  MOV A,H
5174   227F B5                  ORA L
5175   2280 CA 08 05            JZ L0178
5176   2283 22 D6 FA            SHLD 0FAD6H
5177   2286 E5                  PUSH H
5178   2287 CD E3 25            CALL L0673
5179   228A CD 20 26            CALL L0483
5180   228D D1                  POP D
5181   228E 2A 83 F6            LHLD 0F683H
;22B9H -  Save the buffer pointed to by HL to tape.  After execution of 
;        this routine, return resumes at BASIC ready.
;         Entry:
;               HL - Start of buffer to save
;               DE - Number of characters to save
;         Exit:
;               All registers destroyed
5182   2291 0E 00       L0679:  MVI C,00H
5183   2293 7E          L0674:  MOV A,M
5184   2294 CD CD 14            CALL L0484
5185   2297 23                  INX H
5186   2298 1B                  DCX D
5187   2299 7A                  MOV A,D
5188   229A B3                  ORA E
5189   229B C2 93 22            JNZ L0674
5190   229E CD 0D 26            CALL L0486
5191   22A1 C3 08 05            JMP L0178
;22CCH -  SAVEM Statement
5192   22A4 D7          L1343:  RST 2
5193   22A5 CD 4B 20            CALL L0634
5194   22A8 7A                  MOV A,D
5195   22A9 FE FD               CPI 0FDH
5196   22AB CA B9 22            JZ L0675
5197   22AE FE F9               CPI 0F9H
5198   22B0 CA CC 22            JZ L0676
5199   22B3 FF                  RST 7
5200   22B4 68                  MOV L,B
;22DDH -  CSAVEM Statement
5201   22B5 D7          L0670:  RST 2
5202   22B6 CD D4 25            CALL L0671
5203   22B9 CD 1E 23    L0675:  CALL L0677
5204   22BC CD E9 25            CALL L0678
5205   22BF CD 20 26            CALL L0483
5206   22C2 2A D6 FA            LHLD 0FAD6H
5207   22C5 EB                  XCHG
5208   22C6 2A D4 FA            LHLD 0FAD4H
5209   22C9 C3 91 22            JMP L0679
5210   22CC CD 1E 23    L0676:  CALL L0677
5211   22CF CD 16 21            CALL L0394
5212   22D2 CD 5A 20            CALL L0680
5213   22D5 C4 AA 1F            CNZ L0681
5214   22D8 CD B5 20            CALL L0625
5215   22DB E5                  PUSH H
5216   22DC 2A C2 FB            LHLD 0FBC2H
5217   22DF E5                  PUSH H
5218   22E0 2A D6 FA            LHLD 0FAD6H
5219   22E3 7C                  MOV A,H
5220   22E4 B5                  ORA L
5221   22E5 CA F3 3E            JZ L0470
5222   22E8 E5                  PUSH H
5223   22E9 01 06 00            LXI B,0006H
5224   22EC 09                  DAD B
5225   22ED 44                  MOV B,H
5226   22EE 4D                  MOV C,L
5227   22EF 2A C4 FB            LHLD 0FBC4H
5228   22F2 22 AB FB            SHLD 0FBABH
5229   22F5 D4 8D 68            CNC L0466
5230   22F8 DA F3 3E            JC L0470
5231   22FB EB                  XCHG
5232   22FC 21 D4 FA            LXI H,0FAD4H
5233   22FF CD 18 25            CALL L0682
5234   2302 2A D4 FA            LHLD 0FAD4H
5235   2305 C1                  POP B
5236   2306 CD FB 68            CALL L0683
5237   2309 E1                  POP H
5238   230A 22 C2 FB            SHLD 0FBC2H
5239   230D E1                  POP H
5240   230E 3E A0               MVI A,0A0H
5241   2310 EB                  XCHG
5242   2311 2A AB FB            LHLD 0FBABH
5243   2314 EB                  XCHG
5244   2315 CD 11 22            CALL L0626
5245   2318 CD 16 21            CALL L0394
5246   231B C3 08 05            JMP L0178
5247   231E CD 4A 23    L0677:  CALL L0684
5248   2321 D5                  PUSH D
5249   2322 CD 4A 23            CALL L0684
5250   2325 D5                  PUSH D
5251   2326 2B                  DCX H
5252   2327 D7                  RST 2
5253   2328 11 00 00            LXI D,0000H
5254   232B C4 4A 23            CNZ L0684
5255   232E 2B                  DCX H
5256   232F D7                  RST 2
5257   2330 C2 4D 04            JNZ L0002
5258   2333 EB                  XCHG
5259   2334 22 D8 FA            SHLD 0FAD8H
5260   2337 D1                  POP D
5261   2338 E1                  POP H
5262   2339 22 D4 FA            SHLD 0FAD4H
5263   233C 7B                  MOV A,E
5264   233D 95                  SUB L
5265   233E 6F                  MOV L,A
5266   233F 7A                  MOV A,D
5267   2340 9C                  SBB H
5268   2341 67                  MOV H,A
5269   2342 DA E2 08            JC L0214
5270   2345 23                  INX H
5271   2346 22 D6 FA            SHLD 0FAD6H
5272   2349 C9                  RET

5273   234A CF          L0684:  RST 1
5274   234B 2C                  INR L
5275   234C C3 A0 12            JMP L0384
;2377H -  CLOAD Statement
5276   234F FE 4D               CPI 4DH
5277   2351 CA 7F 24            JZ L0685
5278   2354 FE A3               CPI 0A3H
5279   2356 CA 2E 24            JZ L0686
5280   2359 CD BF 25            CALL L0687
5281   235C F6 FF               ORI 0FFH
5282   235E F5                  PUSH PSW
5283   235F F1          L1338:  POP PSW
5284   2360 F5                  PUSH PSW
5285   2361 C2 69 23            JNZ L0688
5286   2364 2B                  DCX H
5287   2365 D7                  RST 2
5288   2366 C2 E2 08            JNZ L0214
5289   2369 2B          L0688:  DCX H
5290   236A D7                  RST 2
5291   236B 3E 00               MVI A,00H
5292   236D 37                  STC
5293   236E 3F                  CMC
5294   236F CA 7E 23            JZ L0689
5295   2372 CF                  RST 1
5296   2373 2C                  INR L
5297   2374 CF                  RST 1
5298   2375 52                  MOV D,D
5299   2376 C2 4D 04            JNZ L0002
5300   2379 F1                  POP PSW
5301   237A 37                  STC
5302   237B F5                  PUSH PSW
5303   237C 3E 80               MVI A,80H
5304   237E F5          L0689:  PUSH PSW
5305   237F 32 B9 FC            STA 0FCB9H
5306   2382 CD 40 26    L0694:  CALL L0690
5307   2385 FE D3               CPI 0D3H
5308   2387 CA 95 23            JZ L0691
5309   238A FE 9C               CPI 9CH
5310   238C CA 0A 24            JZ L0692
5311   238F CD B6 26    L0695:  CALL L0693
5312   2392 C3 82 23            JMP L0694
5313   2395 C1          L0691:  POP B
5314   2396 F1                  POP PSW
5315   2397 F5                  PUSH PSW
5316   2398 C5                  PUSH B
5317   2399 CA 8F 23            JZ L0695
5318   239C F1                  POP PSW
5319   239D F1                  POP PSW
5320   239E 9F                  SBB A
5321   239F 32 A4 FC            STA 0FCA4H
5322   23A2 CD BC 26            CALL L0696
5323   23A5 CD D0 20            CALL L0697
5324   23A8 2A D6 FA            LHLD 0FAD6H
5325   23AB E5                  PUSH H
5326   23AC 44                  MOV B,H
5327   23AD 4D                  MOV C,L
5328   23AE 2A 83 F6            LHLD 0F683H
5329   23B1 E5                  PUSH H
5330   23B2 CD 8D 68            CALL L0466
5331   23B5 DA F3 3E            JC L0470
5332   23B8 21 FE 23            LXI H,23FEH
5333   23BB 22 59 F6            SHLD 0F659H
5334   23BE 2A C0 FB            LHLD 0FBC0H
5335   23C1 09                  DAD B
5336   23C2 22 C0 FB            SHLD 0FBC0H
5337   23C5 CD AA 26            CALL L0480
5338   23C8 E1                  POP H
5339   23C9 D1                  POP D
5340   23CA CD EB 23            CALL L0698
5341   23CD C2 FE 23            JNZ L0699
5342   23D0 6F                  MOV L,A
5343   23D1 67                  MOV H,A
5344   23D2 22 59 F6            SHLD 0F659H
5345   23D5 CD B6 14            CALL L0430
5346   23D8 CD 86 4B            CALL L0080
5347   23DB CD F7 05            CALL L0616
5348   23DE CD 04 3F            CALL L0105
5349   23E1 3A A4 FC            LDA 0FCA4H
5350   23E4 A7                  ANA A
5351   23E5 C2 0B 08    L1880:  JNZ L0700
5352   23E8 C3 09 05            JMP L0366
;2413H -  Load a record from the cassette and put it in the buffer 
;        pointed to by HL.
;         Entry:
;               HL - Points to start of receiving buffer
;               DE - Number of bytes to load.
;         Exit:
;               All registers destroyed
5353   23EB 0E 00       L0698:  MVI C,00H
5354   23ED CD BC 14    L0701:  CALL L0481
5355   23F0 77                  MOV M,A
5356   23F1 23                  INX H
5357   23F2 1B                  DCX D
5358   23F3 7A                  MOV A,D
5359   23F4 B3                  ORA E
5360   23F5 C2 ED 23            JNZ L0701
5361   23F8 CD BC 14            CALL L0481
5362   23FB 79                  MOV A,C
5363   23FC A7                  ANA A
5364   23FD C9                  RET
;
5365   23FE CD D0 20    L0699:  CALL L0697
5366   2401 21 00 00            LXI H,0000H
5367   2404 22 59 F6            SHLD 0F659H
5368   2407 C3 9D 14            JMP L0435
5369   240A CD BC 26    L0692:  CALL L0696
5370   240D CD 86 4B            CALL L0080
5371   2410 2A 95 FC            LHLD 0FC95H
5372   2413 7E                  MOV A,M
5373   2414 23                  INX H
5374   2415 66                  MOV H,M
5375   2416 6F                  MOV L,A
5376   2417 22 9E FC            SHLD 0FC9EH
5377   241A 36 01               MVI M,01H
5378   241C 23                  INX H
5379   241D 23                  INX H
5380   241E 23                  INX H
5381   241F 23                  INX H
5382   2420 36 FD               MVI M,0FDH
5383   2422 23                  INX H
5384   2423 23                  INX H
5385   2424 AF          L1873:  XRA A
5386   2425 77                  MOV M,A
5387   2426 23                  INX H
5388   2427 77                  MOV M,A
5389   2428 32 95 FA            STA 0FA95H
5390   242B C3 74 4D            JMP L0702
5391   242E CD C0 25    L0686:  CALL L0703
5392   2431 E5                  PUSH H
5393   2432 CD 28 26            CALL L0704
5394   2435 CD AA 26            CALL L0480
5395   2438 2A D6 FA            LHLD 0FAD6H
5396   243B EB                  XCHG
5397   243C 2A 83 F6            LHLD 0F683H
5398   243F CD 68 25            CALL L0705
5399   2442 C2 50 24            JNZ L0706
5400   2445 7E                  MOV A,M
5401   2446 23                  INX H
5402   2447 B6                  ORA M
5403   2448 C2 50 24            JNZ L0706
5404   244B CD B6 14    L0708:  CALL L0430
5405   244E E1                  POP H
5406   244F C9                  RET
;
5407   2450 21 59 24    L0706:  LXI H,2459H
5408   2453 CD B6 54            CALL L0707
5409   2456 C3 4B 24            JMP L0708
5410   2459 56                  MOV D,M
5411   245A 65                  MOV H,L
5412   245B 72                  MOV M,D
5413   245C 69                  MOV L,C
5414   245D 66                  MOV H,M
5415   245E 79                  MOV A,C
5416   245F 20                  RIM
5417   2460 66                  MOV H,M
5418   2461 61                  MOV H,C
5419   2462 69                  MOV L,C
5420   2463 6C                  MOV L,H
5421   2464 65                  MOV H,L
5422   2465 64                  MOV H,H
5423   2466 0D                  DCR C
5424   2467 0A                  LDAX B
5425   2468 00                  NOP
;2491H -  LOADM and RUNM Statement
5426   2469 D7          L1336:  RST 2
5427   246A F1                  POP PSW
5428   246B F5                  PUSH PSW
5429   246C CA E2 08            JZ L0214
5430   246F CD 4B 20            CALL L0634
5431   2472 7A                  MOV A,D
5432   2473 FE FD               CPI 0FDH
5433   2475 CA 8B 24            JZ L0709
5434   2478 FE F9               CPI 0F9H
5435   247A CA BF 24            JZ L0710
5436   247D FF                  RST 7
5437   247E 6A                  MOV L,D
;24A7H -  CLOADM Statement
5438   247F D7          L0685:  RST 2
5439   2480 FE A3               CPI 0A3H
5440   2482 CA 4B 25            JZ L0711
5441   2485 CD BF 25            CALL L0687
5442   2488 F6 FF               ORI 0FFH
5443   248A F5                  PUSH PSW
5444   248B 2B          L0709:  DCX H
5445   248C D7                  RST 2
5446   248D C2 4D 04            JNZ L0002
5447   2490 E5                  PUSH H
5448   2491 CD 2E 26            CALL L0712
5449   2494 2A D8 FA            LHLD 0FAD8H
5450   2497 7C                  MOV A,H
5451   2498 B5                  ORA L
5452   2499 C2 A3 24            JNZ L0713
5453   249C E1                  POP H
5454   249D F1                  POP PSW
5455   249E F5                  PUSH PSW
5456   249F E5                  PUSH H
5457   24A0 DA E2 08            JC L0214
5458   24A3 CD 09 25    L0713:  CALL L0714
5459   24A6 DA F3 3E            JC L0470
5460   24A9 CD AA 26            CALL L0480
5461   24AC 2A D6 FA            LHLD 0FAD6H
5462   24AF EB                  XCHG
5463   24B0 2A D4 FA            LHLD 0FAD4H
5464   24B3 CD EB 23            CALL L0698
5465   24B6 C2 9D 14            JNZ L0435
5466   24B9 CD B6 14            CALL L0430
5467   24BC C3 F2 24            JMP L0715
5468   24BF E5          L0710:  PUSH H
5469   24C0 CD 16 21            CALL L0394
5470   24C3 CD 5A 20            CALL L0680
5471   24C6 CA 1E 50            JZ L0447
5472   24C9 EB                  XCHG
5473   24CA CD 15 25            CALL L0716
5474   24CD E5                  PUSH H
5475   24CE 2A D8 FA            LHLD 0FAD8H
5476   24D1 7C                  MOV A,H
5477   24D2 B5                  ORA L
5478   24D3 C2 DF 24            JNZ L0717
5479   24D6 D1                  POP D
5480   24D7 E1                  POP H
5481   24D8 F1                  POP PSW
5482   24D9 F5                  PUSH PSW
5483   24DA E5                  PUSH H
5484   24DB D5                  PUSH D
5485   24DC DA E2 08            JC L0214
5486   24DF CD 09 25    L0717:  CALL L0714
5487   24E2 DA F3 3E            JC L0470
5488   24E5 2A D6 FA            LHLD 0FAD6H
5489   24E8 44                  MOV B,H
5490   24E9 4D                  MOV C,L
5491   24EA 2A D4 FA            LHLD 0FAD4H
5492   24ED EB                  XCHG
5493   24EE E1                  POP H
5494   24EF CD FB 68            CALL L0683
5495   24F2 E1          L0715:  POP H
5496   24F3 F1                  POP PSW
5497   24F4 D2 08 3F            JNC L0170
5498   24F7 CD 08 3F            CALL L0170
5499   24FA 2A D8 FA            LHLD 0FAD8H
5500   24FD 22 68 F6            SHLD 0F668H
5501   2500 CD 67 F6            CALL L0590
5502   2503 2A AB FB            LHLD 0FBABH
5503   2506 C3 0B 08            JMP L0700
5504   2509 CD 7C 25    L0714:  CALL L0718
5505   250C 2A F4 F5    L0719:  LHLD 0F5F4H
5506   250F EB                  XCHG
5507   2510 2A D4 FA            LHLD 0FAD4H
5508   2513 DF                  RST 3
5509   2514 C9                  RET
;
5510   2515 11 D4 FA    L0716:  LXI D,0FAD4H
5511   2518 06 06       L0682:  MVI B,06H
;2542H -  Move memory pointed to by HL to the memory pointed to by DE 
;        for B number of bytes.  HL and DE are incremented on each 
;        cycle of the move.
;         Entry:
;               HL - Points to the start of the source memory
;               DE - Points to the start of the destination memory
;                B - Number of bytes to move
;         Exit:
;          HL & DE - Incremented past last byte moved
;                A - Destroyed
5512   251A 7E          L0463:  MOV A,M
5513   251B 12                  STAX D
5514   251C 23                  INX H
5515   251D 13                  INX D
5516   251E 05                  DCR B
5517   251F C2 1A 25            JNZ L0463
5518   2522 C9                  RET
5519   2523 CD 15 25    L1480:  CALL L0716
5520   2526 E5                  PUSH H
5521   2527 CD 0C 25            CALL L0719
5522   252A DA 45 25            JC L0720
5523   252D EB                  XCHG
5524   252E 2A D6 FA            LHLD 0FAD6H
5525   2531 44                  MOV B,H
5526   2532 4D                  MOV C,L
5527   2533 E1                  POP H
5528   2534 CD FB 68            CALL L0683
5529   2537 2A D8 FA            LHLD 0FAD8H
5530   253A 7C                  MOV A,H
5531   253B B5                  ORA L
5532   253C 22 68 F6            SHLD 0F668H
5533   253F C4 67 F6            CNZ L0590
5534   2542 C3 BC 54            JMP L0721
5535   2545 CD 05 42    L0720:  CALL L0722
5536   2548 C3 BC 54            JMP L0721
5537   254B D7          L0711:  RST 2
5538   254C CD BF 25            CALL L0687
5539   254F E5                  PUSH H
5540   2550 CD 2E 26            CALL L0712
5541   2553 CD AA 26            CALL L0480
5542   2556 2A D6 FA            LHLD 0FAD6H
5543   2559 EB                  XCHG
5544   255A 2A D4 FA            LHLD 0FAD4H
5545   255D CD 68 25            CALL L0705
5546   2560 C2 50 24            JNZ L0706
5547   2563 CD B6 14            CALL L0430
5548   2566 E1                  POP H
5549   2567 C9                  RET
;
5550   2568 0E 00       L0705:  MVI C,00H
5551   256A CD BC 14    L0723:  CALL L0481
5552   256D BE                  CMP M
5553   256E C0                  RNZ
5554   256F 23                  INX H
5555   2570 1B                  DCX D
5556   2571 7A                  MOV A,D
5557   2572 B3                  ORA E
5558   2573 C2 6A 25            JNZ L0723
5559   2576 CD BC 14            CALL L0481
5560   2579 79                  MOV A,C
5561   257A A7                  ANA A
5562   257B C9                  RET
;
5563   257C 2A 81 F6    L0718:  LHLD 0F681H
5564   257F 23                  INX H
5565   2580 7C                  MOV A,H
5566   2581 B5                  ORA L
5567   2582 C0                  RNZ
5568   2583 2A D4 FA            LHLD 0FAD4H
5569   2586 E5                  PUSH H
5570   2587 EB                  XCHG
5571   2588 21 AD 25            LXI H,25ADH
5572   258B CD A5 25            CALL L0724
5573   258E 2A D6 FA            LHLD 0FAD6H
5574   2591 2B                  DCX H
5575   2592 D1                  POP D
5576   2593 19                  DAD D
5577   2594 EB                  XCHG
5578   2595 21 B3 25            LXI H,25B3H
5579   2598 CD A5 25            CALL L0724
5580   259B 2A D8 FA            LHLD 0FAD8H
5581   259E 7C                  MOV A,H
5582   259F B5                  ORA L
5583   25A0 C8                  RZ
5584   25A1 EB                  XCHG
5585   25A2 21 B9 25            LXI H,25B9H
5586   25A5 D5          L0724:  PUSH D
5587   25A6 CD B6 54            CALL L0707
5588   25A9 E1                  POP H
5589   25AA C3 AD 39            JMP L0360
5590   25AD 54                  MOV D,H
5591   25AE 6F                  MOV L,A
5592   25AF 70                  MOV M,B
5593   25B0 3A 20 00            LDA 0020H
5594   25B3 45                  MOV B,L
5595   25B4 6E                  MOV L,M
5596   25B5 64                  MOV H,H
5597   25B6 3A 20 00            LDA 0020H
5598   25B9 45                  MOV B,L
5599   25BA 78                  MOV A,B
5600   25BB 65                  MOV H,L
5601   25BC 3A 20 00            LDA 0020H
5602   25BF 2B          L0687:  DCX H
5603   25C0 D7          L0703:  RST 2
5604   25C1 C2 D4 25            JNZ L0671
5605   25C4 06 06               MVI B,06H
5606   25C6 11 A5 FC            LXI D,0FCA5H
5607   25C9 3E 20               MVI A,20H
5608   25CB 12          L0725:  STAX D
5609   25CC 13                  INX D
5610   25CD 05                  DCR B
5611   25CE C2 CB 25            JNZ L0725
5612   25D1 C3 DA 25            JMP L0726
5613   25D4 CD DD 4B    L0671:  CALL L0646
5614   25D7 C2 DC 25            JNZ L0727
5615   25DA 16 FD       L0726:  MVI D,0FDH
5616   25DC 7A          L0727:  MOV A,D
5617   25DD FE FD               CPI 0FDH
5618   25DF C2 E2 08            JNZ L0214
5619   25E2 C9                  RET
;260BH -  CAS open for output for BASIC files
5620   25E3 3E D3       L0673:  MVI A,0D3H
5621   25E5 01 3E 9C            LXI B,9C3EH
;260EH -  CAS open for output for TEXT files
5622   25E8 01 3E D0            LXI B,0D03EH
;2611H -  CAS open for output for Command files
5623   25EB F5                  PUSH PSW
5624   25EC CD A5 14            CALL L0728
5625   25EF F1                  POP PSW
5626   25F0 CD CD 14            CALL L0484
5627   25F3 0E 00               MVI C,00H
5628   25F5 21 A5 FC            LXI H,0FCA5H
5629   25F8 11 02 06            LXI D,0602H
5630   25FB 7E          L0729:  MOV A,M
5631   25FC CD CD 14            CALL L0484
5632   25FF 23                  INX H
5633   2600 15                  DCR D
5634   2601 C2 FB 25            JNZ L0729
5635   2604 21 D4 FA            LXI H,0FAD4H
5636   2607 16 0A               MVI D,0AH
5637   2609 1D                  DCR E
5638   260A C2 FB 25            JNZ L0729
5639   260D 79          L0486:  MOV A,C
5640   260E 2F                  CMA
5641   260F 3C                  INR A
5642   2610 CD CD 14            CALL L0484
5643   2613 06 14               MVI B,14H
5644   2615 AF          L0730:  XRA A
5645   2616 CD CD 14            CALL L0484
5646   2619 05                  DCR B
5647   261A C2 15 26            JNZ L0730
5648   261D C3 B6 14            JMP L0430
5649   2620 CD A5 14    L0483:  CALL L0728
5650   2623 3E 8D               MVI A,8DH
5651   2625 C3 CD 14            JMP L0484
;2650H -  CAS open for input for BASIC files
5652   2628 06 D3       L0704:  MVI B,0D3H
5653   262A 11 06 9C            LXI D,9C06H
;2653H -  CAS open for input for text files
;      2653 06                  MOV H, B
;      2654 9C                  SBB H
5654   262D 11 06 D0            LXI D,0D006H
;2656H -  CAS open for input for Command files
5655   2630 C5                  PUSH B
5656   2631 CD 40 26    L0731:  CALL L0690
5657   2634 C1                  POP B
5658   2635 B8                  CMP B
5659   2636 CA BC 26            JZ L0696
5660   2639 C5                  PUSH B
5661   263A CD B6 26            CALL L0693
5662   263D C3 31 26            JMP L0731
5663   2640 CD 96 14    L0690:  CALL L0732
5664   2643 CD BC 14            CALL L0481
5665   2646 FE D3               CPI 0D3H
5666   2648 CA 55 26            JZ L0733
5667   264B FE 9C               CPI 9CH
5668   264D CA 55 26            JZ L0733
5669   2650 FE D0               CPI 0D0H
5670   2652 C2 40 26            JNZ L0690
5671   2655 F5          L0733:  PUSH PSW
5672   2656 21 AE FC            LXI H,0FCAEH
5673   2659 11 02 06            LXI D,0602H
5674   265C 0E 00               MVI C,00H
5675   265E CD BC 14    L0734:  CALL L0481
5676   2661 77                  MOV M,A
5677   2662 23                  INX H
5678   2663 15                  DCR D
5679   2664 C2 5E 26            JNZ L0734
5680   2667 21 D4 FA            LXI H,0FAD4H
5681   266A 16 0A               MVI D,0AH
5682   266C 1D                  DCR E
5683   266D C2 5E 26            JNZ L0734
5684   2670 CD BC 14            CALL L0481
5685   2673 79                  MOV A,C
5686   2674 A7                  ANA A
5687   2675 C2 A6 26            JNZ L0735
5688   2678 CD B6 14            CALL L0430
5689   267B 21 A5 FC            LXI H,0FCA5H
5690   267E 06 06               MVI B,06H
5691   2680 3E 20               MVI A,20H
5692   2682 BE          L0737:  CMP M
5693   2683 C2 8E 26            JNZ L0736
5694   2686 23                  INX H
5695   2687 05                  DCR B
5696   2688 C2 82 26            JNZ L0737
5697   268B C3 A1 26            JMP L0738
5698   268E 11 A5 FC    L0736:  LXI D,0FCA5H
5699   2691 21 AE FC            LXI H,0FCAEH
5700   2694 06 06               MVI B,06H
5701   2696 1A          L0740:  LDAX D
5702   2697 BE                  CMP M
5703   2698 C2 A3 26            JNZ L0739
5704   269B 13                  INX D
5705   269C 23                  INX H
5706   269D 05                  DCR B
5707   269E C2 96 26            JNZ L0740
5708   26A1 F1          L0738:  POP PSW
5709   26A2 C9                  RET
5710   26A3 CD B6 26    L0739:  CALL L0693
5711   26A6 F1          L0735:  POP PSW
5712   26A7 C3 40 26            JMP L0690
5713   26AA CD 96 14    L0480:  CALL L0732
5714   26AD CD BC 14            CALL L0481
5715   26B0 FE 8D               CPI 8DH
5716   26B2 C2 9D 14            JNZ L0435
5717   26B5 C9                  RET
5718   26B6 11 DE 26    L0693:  LXI D,26DEH
5719   26B9 C3 BF 26            JMP L0741
5720   26BC 11 D7 26    L0696:  LXI D,26D7H
5721   26BF 2A 81 F6    L0741:  LHLD 0F681H
5722   26C2 23                  INX H
5723   26C3 7C                  MOV A,H
5724   26C4 B5                  ORA L
5725   26C5 C0                  RNZ
5726   26C6 EB                  XCHG
5727   26C7 CD B6 54            CALL L0707
5728   26CA AF                  XRA A
5729   26CB 32 B4 FC            STA 0FCB4H
5730   26CE 21 AE FC            LXI H,0FCAEH
5731   26D1 CD 8A 27            CALL L0084
5732   26D4 C3 39 42            JMP L0742
5733   26D7 46                  MOV B,M
5734   26D8 6F                  MOV L,A
5735   26D9 75                  MOV M,L
5736   26DA 6E                  MOV L,M
5737   26DB 64                  MOV H,H
5738   26DC 3A 00 53            LDA 5300H
5739   26DF 6B                  MOV L,E
5740   26E0 69                  MOV L,C
5741   26E1 70                  MOV M,B
5742   26E2 20                  RIM
5743   26E3 3A 00 CD            LDA 0CD00H
5744   26E6 EF                  RST 5
5745   26E7 28                  UNRECOGNIZED
5746   26E8 7E                  MOV A,M
5747   26E9 23                  INX H
5748   26EA 4E                  MOV C,M
5749   26EB 23                  INX H
5750   26EC 46                  MOV B,M
5751   26ED D1                  POP D
5752   26EE C5                  PUSH B
5753   26EF F5                  PUSH PSW
5754   26F0 CD F6 28            CALL L0743
5755   26F3 F1                  POP PSW
5756   26F4 57                  MOV D,A
5757   26F5 5E                  MOV E,M
5758   26F6 23                  INX H
5759   26F7 4E                  MOV C,M
5760   26F8 23                  INX H
5761   26F9 46                  MOV B,M
5762   26FA E1                  POP H
5763   26FB 7B          L0744:  MOV A,E
5764   26FC B2                  ORA D
5765   26FD C8                  RZ
5766   26FE 7A                  MOV A,D
5767   26FF D6 01               SUI 01H
5768   2701 D8                  RC
5769   2702 AF                  XRA A
5770   2703 BB                  CMP E
5771   2704 3C                  INR A
5772   2705 D0                  RNC
5773   2706 15                  DCR D
5774   2707 1D                  DCR E
5775   2708 0A                  LDAX B
5776   2709 03                  INX B
5777   270A BE                  CMP M
5778   270B 23                  INX H
5779   270C CA FB 26            JZ L0744
5780   270F 3F                  CMC
5781   2710 C3 C2 33            JMP L0745
;273AH -  STR$ Function
5782   2713 CD C1 39            CALL L0233
5783   2716 CD 44 27            CALL L0234
5784   2719 CD F2 28            CALL L0746
5785   271C 01 42 29            LXI B,2942H
5786   271F C5                  PUSH B
5787   2720 7E          L0191:  MOV A,M
5788   2721 23                  INX H
5789   2722 E5                  PUSH H
5790   2723 CD A1 27            CALL L0747
5791   2726 E1                  POP H
5792   2727 4E                  MOV C,M
5793   2728 23                  INX H
5794   2729 46                  MOV B,M
5795   272A CD 39 27            CALL L0748
5796   272D E5                  PUSH H
5797   272E 6F                  MOV L,A
5798   272F CD E5 28            CALL L0749
5799   2732 D1                  POP D
5800   2733 C9                  RET
;
5801   2734 3E 01       L0771:  MVI A,01H
5802   2736 CD A1 27    L0523:  CALL L0747
5803   2739 21 9B FB    L0748:  LXI H,0FB9BH
5804   273C E5                  PUSH H
5805   273D 77                  MOV M,A
5806   273E 23                  INX H
5807   273F 73                  MOV M,E
5808   2740 23                  INX H
5809   2741 72                  MOV M,D
5810   2742 E1                  POP H
5811   2743 C9                  RET
;
5812   2744 2B          L0234:  DCX H
5813   2745 06 22       L0259:  MVI B,22H
5814   2747 50          L0254:  MOV D,B
5815   2748 E5          L0270:  PUSH H
5816   2749 0E FF               MVI C,0FFH
5817   274B 23          L0751:  INX H
5818   274C 7E                  MOV A,M
5819   274D 0C                  INR C
5820   274E B7                  ORA A
5821   274F CA 5A 27            JZ L0750
5822   2752 BA                  CMP D
5823   2753 CA 5A 27            JZ L0750
5824   2756 B8                  CMP B
5825   2757 C2 4B 27            JNZ L0751
5826   275A FE 22       L0750:  CPI 22H
5827   275C CC 5F 08            CZ L0003
5828   275F E3                  XTHL
5829   2760 23                  INX H
5830   2761 EB                  XCHG
5831   2762 79                  MOV A,C
5832   2763 CD 39 27            CALL L0748
5833   2766 11 9B FB    L0514:  LXI D,0FB9BH
5834   2769 3E D5               MVI A,0D5H
5835   276B 2A 7B FB            LHLD 0FB7BH
5836   276E 22 2C FC            SHLD 0FC2CH
5837   2771 3E 03               MVI A,03H
5838   2773 32 77 FB            STA 0FB77H
5839   2776 CD 3E 34            CALL L0144
5840   2779 11 9E FB            LXI D,0FB9EH
5841   277C DF                  RST 3
5842   277D 22 7B FB            SHLD 0FB7BH
5843   2780 E1                  POP H
5844   2781 7E                  MOV A,M
5845   2782 C0                  RNZ
5846   2783 11 10 00            LXI D,0010H
5847   2786 C3 64 04            JMP L0072
5848   2789 23                  INX H
;27B1H -  Print buffer pointed to by HL until a null (00H) or '"' is 
;        found.  Print begins at current cursor position.
;         Entry:
;               HL - Points to buffer to be printed
5849   278A CD 44 27    L0084:  CALL L0234
5850   278D CD F2 28    L0239:  CALL L0746
5851   2790 CD 2B 34            CALL L0752
5852   2793 14                  INR D
5853   2794 15          L0753:  DCR D
5854   2795 C8                  RZ
5855   2796 0A                  LDAX B
5856   2797 E7                  RST 4
5857   2798 FE 0D               CPI 0DH
5858   279A CC 9F 4B            CZ L0238
5859   279D 03                  INX B
5860   279E C3 94 27            JMP L0753
5861   27A1 B7          L0747:  ORA A
5862   27A2 0E F1               MVI C,0F1H
5863   27A4 F5                  PUSH PSW
5864   27A5 2A 7F F6            LHLD 0F67FH
5865   27A8 EB                  XCHG
5866   27A9 2A 9E FB            LHLD 0FB9EH
5867   27AC 2F                  CMA
5868   27AD 4F                  MOV C,A
5869   27AE 06 FF               MVI B,0FFH
5870   27B0 09                  DAD B
5871   27B1 23                  INX H
5872   27B2 DF                  RST 3
5873   27B3 DA BD 27            JC L0754
5874   27B6 22 9E FB            SHLD 0FB9EH
5875   27B9 23                  INX H
5876   27BA EB                  XCHG
5877   27BB F1          L0380:  POP PSW
5878   27BC C9                  RET
;
5879   27BD F1          L0754:  POP PSW
5880   27BE 11 0E 00            LXI D,000EH
5881   27C1 CA 64 04            JZ L0072
5882   27C4 BF                  CMP A
5883   27C5 F5                  PUSH PSW
5884   27C6 01 A3 27            LXI B,27A3H
5885   27C9 C5                  PUSH B
5886   27CA 2A 79 FB    L0795:  LHLD 0FB79H
5887   27CD 22 9E FB    L0765:  SHLD 0FB9EH
5888   27D0 21 00 00            LXI H,0000H
5889   27D3 E5                  PUSH H
5890   27D4 2A C8 FB            LHLD 0FBC8H
5891   27D7 E5                  PUSH H
5892   27D8 21 7D FB            LXI H,0FB7DH
5893   27DB EB                  XCHG
5894   27DC 2A 7B FB            LHLD 0FB7BH
5895   27DF EB                  XCHG
5896   27E0 DF                  RST 3
5897   27E1 01 DB 27            LXI B,27DBH
5898   27E4 C2 60 28            JNZ L0755
5899   27E7 21 EB FB            LXI H,0FBEBH
5900   27EA 22 F4 FB            SHLD 0FBF4H
5901   27ED 2A C6 FB            LHLD 0FBC6H
5902   27F0 22 F1 FB            SHLD 0FBF1H
5903   27F3 2A C4 FB            LHLD 0FBC4H
5904   27F6 EB          L0759:  XCHG
5905   27F7 2A F1 FB            LHLD 0FBF1H
5906   27FA EB                  XCHG
5907   27FB DF                  RST 3
5908   27FC CA 13 28            JZ L0756
5909   27FF 7E                  MOV A,M
5910   2800 23                  INX H
5911   2801 23                  INX H
5912   2802 23                  INX H
5913   2803 FE 03               CPI 03H
5914   2805 C2 0C 28            JNZ L0757
5915   2808 CD 61 28            CALL L0758
5916   280B AF                  XRA A
5917   280C 5F          L0757:  MOV E,A
5918   280D 16 00               MVI D,00H
5919   280F 19                  DAD D
5920   2810 C3 F6 27            JMP L0759
5921   2813 2A F4 FB    L0756:  LHLD 0FBF4H
5922   2816 5E                  MOV E,M
5923   2817 23                  INX H
5924   2818 56                  MOV D,M
5925   2819 7A                  MOV A,D
5926   281A B3                  ORA E
5927   281B 2A C6 FB            LHLD 0FBC6H
5928   281E CA 35 28            JZ L0760
5929   2821 EB                  XCHG
5930   2822 22 F4 FB            SHLD 0FBF4H
5931   2825 23                  INX H
5932   2826 23                  INX H
5933   2827 5E                  MOV E,M
5934   2828 23                  INX H
5935   2829 56                  MOV D,M
5936   282A 23                  INX H
5937   282B EB                  XCHG
5938   282C 19                  DAD D
5939   282D 22 F1 FB            SHLD 0FBF1H
5940   2830 EB                  XCHG
5941   2831 C3 F6 27            JMP L0759
5942   2834 C1          L0763:  POP B
5943   2835 EB          L0760:  XCHG
5944   2836 2A C8 FB            LHLD 0FBC8H
5945   2839 EB                  XCHG
5946   283A DF                  RST 3
5947   283B CA 81 28            JZ L0761
5948   283E 7E                  MOV A,M
5949   283F 23                  INX H
5950   2840 CD 29 34            CALL L0762
5951   2843 E5                  PUSH H
5952   2844 09                  DAD B
5953   2845 FE 03               CPI 03H
5954   2847 C2 34 28            JNZ L0763
5955   284A 22 A2 FB            SHLD 0FBA2H
5956   284D E1                  POP H
5957   284E 4E                  MOV C,M
5958   284F 06 00               MVI B,00H
5959   2851 09                  DAD B
5960   2852 09                  DAD B
5961   2853 23                  INX H
5962   2854 EB                  XCHG
5963   2855 2A A2 FB            LHLD 0FBA2H
5964   2858 EB                  XCHG
5965   2859 DF                  RST 3
5966   285A CA 35 28            JZ L0760
5967   285D 01 54 28            LXI B,2854H
5968   2860 C5          L0755:  PUSH B
5969   2861 AF          L0758:  XRA A
5970   2862 B6                  ORA M
5971   2863 23                  INX H
5972   2864 5E                  MOV E,M
5973   2865 23                  INX H
5974   2866 56                  MOV D,M
5975   2867 23                  INX H
5976   2868 C8                  RZ
5977   2869 44                  MOV B,H
5978   286A 4D                  MOV C,L
5979   286B 2A 9E FB            LHLD 0FB9EH
5980   286E DF                  RST 3
5981   286F 60                  MOV H,B
5982   2870 69                  MOV L,C
5983   2871 D8                  RC
5984   2872 E1                  POP H
5985   2873 E3                  XTHL
5986   2874 DF                  RST 3
5987   2875 E3                  XTHL
5988   2876 E5                  PUSH H
5989   2877 60                  MOV H,B
5990   2878 69                  MOV L,C
5991   2879 D0                  RNC
5992   287A C1                  POP B
5993   287B F1                  POP PSW
5994   287C F1                  POP PSW
5995   287D E5                  PUSH H
5996   287E D5                  PUSH D
5997   287F C5                  PUSH B
5998   2880 C9                  RET
;
5999   2881 D1          L0761:  POP D
6000   2882 E1                  POP H
6001   2883 7C                  MOV A,H
6002   2884 B5                  ORA L
6003   2885 C8                  RZ
6004   2886 2B                  DCX H
6005   2887 46                  MOV B,M
6006   2888 2B                  DCX H
6007   2889 4E                  MOV C,M
6008   288A E5                  PUSH H
6009   288B 2B                  DCX H
6010   288C 6E                  MOV L,M
6011   288D 26 00               MVI H,00H
6012   288F 09                  DAD B
6013   2890 50                  MOV D,B
6014   2891 59                  MOV E,C
6015   2892 2B                  DCX H
6016   2893 44                  MOV B,H
6017   2894 4D                  MOV C,L
6018   2895 2A 9E FB            LHLD 0FB9EH
6019   2898 CD CF 3E            CALL L0764
6020   289B E1                  POP H
6021   289C 71                  MOV M,C
6022   289D 23                  INX H
6023   289E 70                  MOV M,B
6024   289F 60                  MOV H,B
6025   28A0 69                  MOV L,C
6026   28A1 2B                  DCX H
6027   28A2 C3 CD 27            JMP L0765
6028   28A5 C5          L0282:  PUSH B
6029   28A6 E5                  PUSH H
6030   28A7 2A 2C FC            LHLD 0FC2CH
6031   28AA E3                  XTHL
6032   28AB CD 23 0F            CALL L0279
6033   28AE E3                  XTHL
6034   28AF CD B2 35            CALL L0253
6035   28B2 7E                  MOV A,M
6036   28B3 E5                  PUSH H
6037   28B4 2A 2C FC            LHLD 0FC2CH
6038   28B7 E5                  PUSH H
6039   28B8 86                  ADD M
6040   28B9 11 0F 00            LXI D,000FH
6041   28BC DA 64 04            JC L0072
6042   28BF CD 36 27            CALL L0523
6043   28C2 D1                  POP D
6044   28C3 CD F6 28            CALL L0743
6045   28C6 E3                  XTHL
6046   28C7 CD F5 28            CALL L0766
6047   28CA E5                  PUSH H
6048   28CB 2A 9C FB            LHLD 0FB9CH
6049   28CE EB                  XCHG
6050   28CF CD DD 28            CALL L0767
6051   28D2 CD DD 28            CALL L0767
6052   28D5 21 BE 0D            LXI H,0DBEH
6053   28D8 E3                  XTHL
6054   28D9 E5                  PUSH H
6055   28DA C3 66 27            JMP L0514
6056   28DD E1          L0767:  POP H
6057   28DE E3                  XTHL
6058   28DF 7E                  MOV A,M
6059   28E0 23                  INX H
6060   28E1 4E                  MOV C,M
6061   28E2 23                  INX H
6062   28E3 46                  MOV B,M
6063   28E4 6F                  MOV L,A
6064   28E5 2C          L0749:  INR L
6065   28E6 2D          L0768:  DCR L
6066   28E7 C8                  RZ
;290FH -  Move the memory pointed to by BC to the memory pointed to by 
;        DE  L times.  BC and DE are incremented on each cycle of the 
;        move.
;         Entry:
;               BC - Points to the start of the source memory
;               DE - Points to the start of the destination memory
;                L - Number of bytes to move
;         Exit:
;          HL & DE - Incremented past last byte moved
;                A - Destroyed
6067   28E8 0A                  LDAX B
6068   28E9 12                  STAX D
6069   28EA 03                  INX B
6070   28EB 13                  INX D
6071   28EC C3 E6 28            JMP L0768
6072   28EF CD B2 35    L0536:  CALL L0253
6073   28F2 2A 2C FC    L0746:  LHLD 0FC2CH
6074   28F5 EB          L0766:  XCHG
6075   28F6 CD 0E 29    L0743:  CALL L0190
6076   28F9 EB                  XCHG
6077   28FA C0                  RNZ
6078   28FB D5                  PUSH D
6079   28FC 50                  MOV D,B
6080   28FD 59                  MOV E,C
6081   28FE 1B                  DCX D
6082   28FF 4E                  MOV C,M
6083   2900 2A 9E FB            LHLD 0FB9EH
6084   2903 DF                  RST 3
6085   2904 C2 0C 29            JNZ L0769
6086   2907 47                  MOV B,A
6087   2908 09                  DAD B
6088   2909 22 9E FB            SHLD 0FB9EH
6089   290C E1          L0769:  POP H
6090   290D C9                  RET
;
6091   290E 2A 7B FB    L0190:  LHLD 0FB7BH
6092   2911 2B                  DCX H
6093   2912 46                  MOV B,M
6094   2913 2B                  DCX H
6095   2914 4E                  MOV C,M
6096   2915 2B                  DCX H
6097   2916 DF                  RST 3
6098   2917 C0                  RNZ
6099   2918 22 7B FB            SHLD 0FB7BH
6100   291B C9                  RET
;
6101   291C 01 D8 10            LXI B,10D8H
6102   291F C5                  PUSH B
6103   2920 CD EF 28    L0770:  CALL L0536
6104   2923 AF                  XRA A
6105   2924 57                  MOV D,A
6106   2925 7E                  MOV A,M
6107   2926 B7                  ORA A
6108   2927 C9                  RET
;
6109   2928 01 D8 10            LXI B,10D8H
6110   292B C5                  PUSH B
6111   292C CD 20 29    L0774:  CALL L0770
6112   292F CA E2 08            JZ L0214
6113   2932 23                  INX H
6114   2933 5E                  MOV E,M
6115   2934 23                  INX H
6116   2935 56                  MOV D,M
6117   2936 1A                  LDAX D
6118   2937 C9                  RET
;295FH -  CHR$ Function
6119   2938 CD 34 27            CALL L0771
6120   293B CD 38 11            CALL L0352
6121   293E 2A 9C FB    L1316:  LHLD 0FB9CH
6122   2941 73                  MOV M,E
6123   2942 C1          L0776:  POP B
6124   2943 C3 66 27            JMP L0514
;296DH -  STRING$ Function
6125   2946 D7          L0329:  RST 2
6126   2947 CF                  RST 1
6127   2948 28                  UNRECOGNIZED
6128   2949 CD 35 11            CALL L0200
6129   294C D5                  PUSH D
6130   294D CF                  RST 1
6131   294E 2C                  INR L
6132   294F CD B2 0D            CALL L0134
6133   2952 CF                  RST 1
6134   2953 29                  DAD H
6135   2954 E3                  XTHL
6136   2955 E5                  PUSH H
6137   2956 EF                  RST 5
6138   2957 CA 60 29            JZ L0772
6139   295A CD 38 11            CALL L0352
6140   295D C3 63 29            JMP L0773
6141   2960 CD 2C 29    L0772:  CALL L0774
6142   2963 D1          L0773:  POP D
6143   2964 CD 6C 29            CALL L0775
;298EH -  SPACE$ Function
6144   2967 CD 38 11            CALL L0352
6145   296A 3E 20               MVI A,20H
6146   296C F5          L0775:  PUSH PSW
6147   296D 7B                  MOV A,E
6148   296E CD 36 27            CALL L0523
6149   2971 47                  MOV B,A
6150   2972 F1                  POP PSW
6151   2973 04                  INR B
6152   2974 05                  DCR B
6153   2975 CA 42 29            JZ L0776
6154   2978 2A 9C FB            LHLD 0FB9CH
6155   297B 77          L0777:  MOV M,A
6156   297C 23                  INX H
6157   297D 05                  DCR B
6158   297E C2 7B 29            JNZ L0777
6159   2981 C3 42 29            JMP L0776
;29ABH -  LEFT$ Function
6160   2984 CD 08 2A            CALL L0778
6161   2987 AF                  XRA A
6162   2988 E3          L0780:  XTHL
6163   2989 4F                  MOV C,A
6164   298A 3E E5               MVI A,0E5H
6165   298C E5                  PUSH H
6166   298D 7E                  MOV A,M
6167   298E B8                  CMP B
6168   298F DA 94 29            JC L0779
6169   2992 78                  MOV A,B
6170   2993 11 0E 00            LXI D,000EH
6171   2996 C5                  PUSH B
6172   2997 CD A1 27            CALL L0747
6173   299A C1                  POP B
6174   299B E1                  POP H
6175   299C E5                  PUSH H
6176   299D 23                  INX H
6177   299E 46                  MOV B,M
6178   299F 23                  INX H
6179   29A0 66                  MOV H,M
6180   29A1 68                  MOV L,B
6181   29A2 06 00               MVI B,00H
6182   29A4 09                  DAD B
6183   29A5 44                  MOV B,H
6184   29A6 4D                  MOV C,L
6185   29A7 CD 39 27            CALL L0748
6186   29AA 6F                  MOV L,A
6187   29AB CD E5 28            CALL L0749
6188   29AE D1                  POP D
6189   29AF CD F6 28            CALL L0743
6190   29B2 C3 66 27            JMP L0514
;29DCH -  RIGHT$ Function
6191   29B5 CD 08 2A            CALL L0778
6192   29B8 D1                  POP D
6193   29B9 D5                  PUSH D
6194   29BA 1A                  LDAX D
6195   29BB 90                  SUB B
6196   29BC C3 88 29            JMP L0780
;29E6H -  MID$ Function
6197   29BF EB                  XCHG
6198   29C0 7E                  MOV A,M
6199   29C1 CD 0B 2A            CALL L0781
6200   29C4 04                  INR B
6201   29C5 05                  DCR B
6202   29C6 CA E2 08            JZ L0214
6203   29C9 C5                  PUSH B
6204   29CA CD 16 2B            CALL L0782
6205   29CD F1                  POP PSW
6206   29CE E3                  XTHL
6207   29CF 01 8C 29            LXI B,298CH
6208   29D2 C5                  PUSH B
6209   29D3 3D                  DCR A
6210   29D4 BE                  CMP M
6211   29D5 06 00               MVI B,00H
6212   29D7 D0                  RNC
6213   29D8 4F                  MOV C,A
6214   29D9 7E                  MOV A,M
6215   29DA 91                  SUB C
6216   29DB BB                  CMP E
6217   29DC 47                  MOV B,A
6218   29DD D8                  RC
6219   29DE 43                  MOV B,E
6220   29DF C9                  RET
;2A07H -  VAL Function
6221   29E0 CD 20 29            CALL L0770
6222   29E3 CA D8 10            JZ L0313
6223   29E6 5F                  MOV E,A
6224   29E7 23                  INX H
6225   29E8 7E                  MOV A,M
6226   29E9 23                  INX H
6227   29EA 66                  MOV H,M
6228   29EB 6F                  MOV L,A
6229   29EC E5                  PUSH H
6230   29ED 19                  DAD D
6231   29EE 46                  MOV B,M
6232   29EF 22 85 F6            SHLD 0F685H
6233   29F2 78                  MOV A,B
6234   29F3 32 F8 FB            STA 0FBF8H
6235   29F6 72                  MOV M,D
6236   29F7 E3                  XTHL
6237   29F8 C5                  PUSH B
6238   29F9 2B                  DCX H
6239   29FA D7                  RST 2
6240   29FB CD 19 38            CALL L0272
6241   29FE 21 00 00            LXI H,0000H
6242   2A01 22 85 F6            SHLD 0F685H
6243   2A04 C1                  POP B
6244   2A05 E1                  POP H
6245   2A06 70                  MOV M,B
6246   2A07 C9                  RET
;
6247   2A08 EB          L0778:  XCHG
6248   2A09 CF                  RST 1
6249   2A0A 29                  DAD H
6250   2A0B C1          L0781:  POP B
6251   2A0C D1                  POP D
6252   2A0D C5                  PUSH B
6253   2A0E 43                  MOV B,E
6254   2A0F C9                  RET
;2A37H -  INSTR Function
6255   2A10 D7          L0327:  RST 2
6256   2A11 CD B0 0D            CALL L0334
6257   2A14 EF                  RST 5
6258   2A15 3E 01               MVI A,01H
6259   2A17 F5                  PUSH PSW
6260   2A18 CA 2C 2A            JZ L0783
6261   2A1B F1                  POP PSW
6262   2A1C CD 38 11            CALL L0352
6263   2A1F B7                  ORA A
6264   2A20 CA E2 08            JZ L0214
6265   2A23 F5                  PUSH PSW
6266   2A24 CF                  RST 1
6267   2A25 2C                  INR L
6268   2A26 CD B2 0D            CALL L0134
6269   2A29 CD B2 35            CALL L0253
6270   2A2C CF          L0783:  RST 1
6271   2A2D 2C                  INR L
6272   2A2E E5                  PUSH H
6273   2A2F 2A 2C FC            LHLD 0FC2CH
6274   2A32 E3                  XTHL
6275   2A33 CD B2 0D            CALL L0134
6276   2A36 CF                  RST 1
6277   2A37 29                  DAD H
6278   2A38 E5                  PUSH H
6279   2A39 CD EF 28            CALL L0536
6280   2A3C EB                  XCHG
6281   2A3D C1                  POP B
6282   2A3E E1                  POP H
6283   2A3F F1                  POP PSW
6284   2A40 C5                  PUSH B
6285   2A41 01 17 38            LXI B,3817H
6286   2A44 C5                  PUSH B
6287   2A45 01 D8 10            LXI B,10D8H
6288   2A48 C5                  PUSH B
6289   2A49 F5                  PUSH PSW
6290   2A4A D5                  PUSH D
6291   2A4B CD F5 28            CALL L0766
6292   2A4E D1                  POP D
6293   2A4F F1                  POP PSW
6294   2A50 47                  MOV B,A
6295   2A51 3D                  DCR A
6296   2A52 4F                  MOV C,A
6297   2A53 BE                  CMP M
6298   2A54 3E 00               MVI A,00H
6299   2A56 D0                  RNC
6300   2A57 1A                  LDAX D
6301   2A58 B7                  ORA A
6302   2A59 78                  MOV A,B
6303   2A5A C8                  RZ
6304   2A5B 7E                  MOV A,M
6305   2A5C 23                  INX H
6306   2A5D 46                  MOV B,M
6307   2A5E 23                  INX H
6308   2A5F 66                  MOV H,M
6309   2A60 68                  MOV L,B
6310   2A61 06 00               MVI B,00H
6311   2A63 09                  DAD B
6312   2A64 91                  SUB C
6313   2A65 47                  MOV B,A
6314   2A66 C5                  PUSH B
6315   2A67 D5                  PUSH D
6316   2A68 E3                  XTHL
6317   2A69 4E                  MOV C,M
6318   2A6A 23                  INX H
6319   2A6B 5E                  MOV E,M
6320   2A6C 23                  INX H
6321   2A6D 56                  MOV D,M
6322   2A6E E1                  POP H
6323   2A6F E5          L0787:  PUSH H
6324   2A70 D5                  PUSH D
6325   2A71 C5                  PUSH B
6326   2A72 1A          L0786:  LDAX D
6327   2A73 BE                  CMP M
6328   2A74 C2 90 2A            JNZ L0784
6329   2A77 13                  INX D
6330   2A78 0D                  DCR C
6331   2A79 CA 87 2A            JZ L0785
6332   2A7C 23                  INX H
6333   2A7D 05                  DCR B
6334   2A7E C2 72 2A            JNZ L0786
6335   2A81 D1                  POP D
6336   2A82 D1                  POP D
6337   2A83 C1                  POP B
6338   2A84 D1          L0788:  POP D
6339   2A85 AF                  XRA A
6340   2A86 C9                  RET
;
6341   2A87 E1          L0785:  POP H
6342   2A88 D1                  POP D
6343   2A89 D1                  POP D
6344   2A8A C1                  POP B
6345   2A8B 78                  MOV A,B
6346   2A8C 94                  SUB H
6347   2A8D 81                  ADD C
6348   2A8E 3C                  INR A
6349   2A8F C9                  RET
;
6350   2A90 C1          L0784:  POP B
6351   2A91 D1                  POP D
6352   2A92 E1                  POP H
6353   2A93 23                  INX H
6354   2A94 05                  DCR B
6355   2A95 C2 6F 2A            JNZ L0787
6356   2A98 C3 84 2A            JMP L0788
6357   2A9B CF          L0351:  RST 1
6358   2A9C 28                  UNRECOGNIZED
6359   2A9D CD 46 47            CALL L0182
6360   2AA0 CD B2 35            CALL L0253
6361   2AA3 E5                  PUSH H
6362   2AA4 D5                  PUSH D
6363   2AA5 EB                  XCHG
6364   2AA6 23                  INX H
6365   2AA7 5E                  MOV E,M
6366   2AA8 23                  INX H
6367   2AA9 56                  MOV D,M
6368   2AAA 2A C8 FB            LHLD 0FBC8H
6369   2AAD DF                  RST 3
6370   2AAE DA C2 2A            JC L0789
6371   2AB1 2A 83 F6            LHLD 0F683H
6372   2AB4 DF                  RST 3
6373   2AB5 D2 C2 2A            JNC L0789
6374   2AB8 E1                  POP H
6375   2AB9 E5                  PUSH H
6376   2ABA CD 20 27            CALL L0191
6377   2ABD E1                  POP H
6378   2ABE E5                  PUSH H
6379   2ABF CD 3E 34            CALL L0144
6380   2AC2 E1          L0789:  POP H
6381   2AC3 E3                  XTHL
6382   2AC4 CF                  RST 1
6383   2AC5 2C                  INR L
6384   2AC6 CD 35 11            CALL L0200
6385   2AC9 B7                  ORA A
6386   2ACA CA E2 08            JZ L0214
6387   2ACD F5                  PUSH PSW
6388   2ACE 7E                  MOV A,M
6389   2ACF CD 16 2B            CALL L0782
6390   2AD2 D5                  PUSH D
6391   2AD3 CD AB 0D            CALL L0790
6392   2AD6 E5                  PUSH H
6393   2AD7 CD EF 28            CALL L0536
6394   2ADA EB                  XCHG
6395   2ADB E1                  POP H
6396   2ADC C1                  POP B
6397   2ADD F1                  POP PSW
6398   2ADE 47                  MOV B,A
6399   2ADF E3                  XTHL
6400   2AE0 E5                  PUSH H
6401   2AE1 21 17 38            LXI H,3817H
6402   2AE4 E3                  XTHL
6403   2AE5 79                  MOV A,C
6404   2AE6 B7                  ORA A
6405   2AE7 C8                  RZ
6406   2AE8 7E                  MOV A,M
6407   2AE9 90                  SUB B
6408   2AEA DA E2 08            JC L0214
6409   2AED 3C                  INR A
6410   2AEE B9                  CMP C
6411   2AEF DA F3 2A            JC L0791
6412   2AF2 79                  MOV A,C
6413   2AF3 48          L0791:  MOV C,B
6414   2AF4 0D                  DCR C
6415   2AF5 06 00               MVI B,00H
6416   2AF7 D5                  PUSH D
6417   2AF8 23                  INX H
6418   2AF9 5E                  MOV E,M
6419   2AFA 23                  INX H
6420   2AFB 66                  MOV H,M
6421   2AFC 6B                  MOV L,E
6422   2AFD 09                  DAD B
6423   2AFE 47                  MOV B,A
6424   2AFF D1                  POP D
6425   2B00 EB                  XCHG
6426   2B01 4E                  MOV C,M
6427   2B02 23                  INX H
6428   2B03 7E                  MOV A,M
6429   2B04 23                  INX H
6430   2B05 66                  MOV H,M
6431   2B06 6F                  MOV L,A
6432   2B07 EB                  XCHG
6433   2B08 79                  MOV A,C
6434   2B09 B7                  ORA A
6435   2B0A C8                  RZ
6436   2B0B 1A          L0792:  LDAX D
6437   2B0C 77                  MOV M,A
6438   2B0D 13                  INX D
6439   2B0E 23                  INX H
6440   2B0F 0D                  DCR C
6441   2B10 C8                  RZ
6442   2B11 05                  DCR B
6443   2B12 C2 0B 2B            JNZ L0792
6444   2B15 C9                  RET
6445   2B16 1E FF       L0782:  MVI E,0FFH
6446   2B18 FE 29               CPI 29H
6447   2B1A CA 22 2B            JZ L0793
6448   2B1D CF                  RST 1
6449   2B1E 2C                  INR L
6450   2B1F CD 35 11            CALL L0200
6451   2B22 CF          L0793:  RST 1
6452   2B23 29                  DAD H
6453   2B24 C9                  RET
;2B4CH -  FRE Function
6454   2B25 2A C8 FB            LHLD 0FBC8H
6455   2B28 EB                  XCHG
6456   2B29 21 00 00            LXI H,0000H
6457   2B2C 39                  DAD SP
6458   2B2D EF                  RST 5
6459   2B2E C2 C6 10            JNZ L0794
6460   2B31 CD F2 28            CALL L0746
6461   2B34 CD CA 27            CALL L0795
6462   2B37 EB                  XCHG
6463   2B38 2A 7F F6            LHLD 0F67FH
6464   2B3B EB                  XCHG
6465   2B3C 2A 9E FB            LHLD 0FB9EH
6466   2B3F C3 C6 10            JMP L0794
;2B69H -  Double precision subtract (FAC1=FAC1-FAC2).
;         Entry:
;             FAC1 - First double precision number
;             FAC2 - Second double precision number
;         Exit:
;             FAC1 - Result of operation
;               All other registers destroyed
6467   2B42 21 7B FC    L0872:  LXI H,0FC7BH
6468   2B45 7E                  MOV A,M
6469   2B46 B7                  ORA A
6470   2B47 C8                  RZ
6471   2B48 EE 80               XRI 80H
6472   2B4A 77                  MOV M,A
6473   2B4B C3 57 2B            JMP L0796
6474   2B4E CD 3A 34    L1144:  CALL L0797
;2B78H -  Double precision addition (FAC1=FAC1+FAC2).
;         Entry:
;             FAC1 - First double precision number
;             FAC2 - Second double precision number
;         Exit:
;             FAC1 - Result of operation
;               All other registers destroyed
6475   2B51 21 7B FC    L0892:  LXI H,0FC7BH
6476   2B54 7E                  MOV A,M
6477   2B55 B7                  ORA A
6478   2B56 C8                  RZ
6479   2B57 E6 7F       L0796:  ANI 7FH
6480   2B59 47                  MOV B,A
6481   2B5A 11 2A FC            LXI D,0FC2AH
6482   2B5D 1A                  LDAX D
6483   2B5E B7                  ORA A
6484   2B5F CA 54 34            JZ L0798
6485   2B62 E6 7F               ANI 7FH
6486   2B64 90                  SUB B
6487   2B65 D2 7B 2B            JNC L0799
6488   2B68 2F                  CMA
6489   2B69 3C                  INR A
6490   2B6A F5                  PUSH PSW
6491   2B6B E5                  PUSH H
6492   2B6C 06 08               MVI B,08H
6493   2B6E 1A          L0800:  LDAX D
6494   2B6F 4E                  MOV C,M
6495   2B70 77                  MOV M,A
6496   2B71 79                  MOV A,C
6497   2B72 12                  STAX D
6498   2B73 13                  INX D
6499   2B74 23                  INX H
6500   2B75 05                  DCR B
6501   2B76 C2 6E 2B            JNZ L0800
6502   2B79 E1                  POP H
6503   2B7A F1                  POP PSW
6504   2B7B FE 10       L0799:  CPI 10H
6505   2B7D D0                  RNC
6506   2B7E F5                  PUSH PSW
6507   2B7F AF                  XRA A
6508   2B80 32 32 FC            STA 0FC32H
6509   2B83 32 83 FC            STA 0FC83H
6510   2B86 21 7C FC            LXI H,0FC7CH
6511   2B89 F1                  POP PSW
6512   2B8A CD 86 2C            CALL L0801
6513   2B8D 21 7B FC            LXI H,0FC7BH
6514   2B90 3A 2A FC            LDA 0FC2AH
6515   2B93 AE                  XRA M
6516   2B94 FA B4 2B            JM L0802
6517   2B97 3A 83 FC            LDA 0FC83H
6518   2B9A 32 32 FC            STA 0FC32H
6519   2B9D CD 1F 2C            CALL L0803
6520   2BA0 D2 00 2C            JNC L0804
6521   2BA3 EB                  XCHG
6522   2BA4 7E                  MOV A,M
6523   2BA5 34                  INR M
6524   2BA6 AE                  XRA M
6525   2BA7 FA 5C 04            JM L0386
6526   2BAA CD CB 2C            CALL L0805
6527   2BAD 7E                  MOV A,M
6528   2BAE F6 10               ORI 10H
6529   2BB0 77                  MOV M,A
6530   2BB1 C3 00 2C            JMP L0804
6531   2BB4 CD 33 2C    L0802:  CALL L0806
6532   2BB7 21 2B FC    L0840:  LXI H,0FC2BH
6533   2BBA 01 00 08            LXI B,0800H
6534   2BBD 7E          L0808:  MOV A,M
6535   2BBE B7                  ORA A
6536   2BBF C2 CC 2B            JNZ L0807
6537   2BC2 23                  INX H
6538   2BC3 0D                  DCR C
6539   2BC4 0D                  DCR C
6540   2BC5 05                  DCR B
6541   2BC6 C2 BD 2B            JNZ L0808
6542   2BC9 C3 C6 33            JMP L0809
6543   2BCC E6 F0       L0807:  ANI 0F0H
6544   2BCE C2 D7 2B            JNZ L0810
6545   2BD1 E5                  PUSH H
6546   2BD2 CD 6D 2C            CALL L0811
6547   2BD5 E1                  POP H
6548   2BD6 0D                  DCR C
6549   2BD7 3E 08       L0810:  MVI A,08H
6550   2BD9 90                  SUB B
6551   2BDA CA F0 2B            JZ L0812
6552   2BDD F5                  PUSH PSW
6553   2BDE C5                  PUSH B
6554   2BDF 48                  MOV C,B
6555   2BE0 11 2B FC            LXI D,0FC2BH
6556   2BE3 CD B6 2E            CALL L0813
6557   2BE6 C1                  POP B
6558   2BE7 F1                  POP PSW
6559   2BE8 47                  MOV B,A
6560   2BE9 AF                  XRA A
6561   2BEA 12          L0814:  STAX D
6562   2BEB 13                  INX D
6563   2BEC 05                  DCR B
6564   2BED C2 EA 2B            JNZ L0814
6565   2BF0 79          L0812:  MOV A,C
6566   2BF1 B7                  ORA A
6567   2BF2 CA 00 2C            JZ L0804
6568   2BF5 21 2A FC            LXI H,0FC2AH
6569   2BF8 46                  MOV B,M
6570   2BF9 86                  ADD M
6571   2BFA 77                  MOV M,A
6572   2BFB A8                  XRA B
6573   2BFC FA 5C 04            JM L0386
6574   2BFF C8                  RZ
6575   2C00 21 32 FC    L0804:  LXI H,0FC32H
6576   2C03 06 07               MVI B,07H
6577   2C05 7E          L0931:  MOV A,M
6578   2C06 FE 50               CPI 50H
6579   2C08 D8                  RC
6580   2C09 2B                  DCX H
6581   2C0A AF                  XRA A
6582   2C0B 37                  STC
6583   2C0C 8E          L0815:  ADC M
6584   2C0D 27                  DAA
6585   2C0E 77                  MOV M,A
6586   2C0F D0                  RNC
6587   2C10 2B                  DCX H
6588   2C11 05                  DCR B
6589   2C12 C2 0C 2C            JNZ L0815
6590   2C15 7E                  MOV A,M
6591   2C16 34                  INR M
6592   2C17 AE                  XRA M
6593   2C18 FA 5C 04            JM L0386
6594   2C1B 23                  INX H
6595   2C1C 36 10               MVI M,10H
6596   2C1E C9                  RET
6597   2C1F 21 82 FC    L0803:  LXI H,0FC82H
6598   2C22 11 31 FC            LXI D,0FC31H
6599   2C25 06 07               MVI B,07H
6600   2C27 AF          L0832:  XRA A
;2C4FH -  Add the BCD number in the buffer pointed to by HL to the BCD 
;        number in the buffer pointed to by DE leaving the result in 
;        the buffer pointed to by DE.  Since no decimals are 
;        significant, numbers must be padded with zeros for place 
;        holders.  B contains the precision (number of bytes) of the 
;        numbers added.
;         Entry:
;               HL - Points to the end of the first BCD number buffer
;               DE - Points to the end of the second BCD number buffer
;                B - Number of bytes to add (2 times the number of 
;                    digits added)
;         Exit:
;          HL & DE - Decremented past last byte of buffer
;                B = 0
;                A - Destroyed
6601   2C28 1A          L0816:  LDAX D
6602   2C29 8E                  ADC M
6603   2C2A 27                  DAA
6604   2C2B 12                  STAX D
6605   2C2C 1B                  DCX D
6606   2C2D 2B                  DCX H
6607   2C2E 05                  DCR B
6608   2C2F C2 28 2C            JNZ L0816
6609   2C32 C9                  RET
;
6610   2C33 21 83 FC    L0806:  LXI H,0FC83H
6611   2C36 7E                  MOV A,M
6612   2C37 FE 50               CPI 50H
6613   2C39 C2 3D 2C            JNZ L0817
6614   2C3C 34                  INR M
6615   2C3D 11 32 FC    L0817:  LXI D,0FC32H
6616   2C40 06 08               MVI B,08H
6617   2C42 37                  STC
6618   2C43 3E 99       L0818:  MVI A,99H
6619   2C45 CE 00               ACI 00H
6620   2C47 96                  SUB M
6621   2C48 4F                  MOV C,A
6622   2C49 1A                  LDAX D
6623   2C4A 81                  ADD C
6624   2C4B 27                  DAA
6625   2C4C 12                  STAX D
6626   2C4D 1B                  DCX D
6627   2C4E 2B                  DCX H
6628   2C4F 05                  DCR B
6629   2C50 C2 43 2C            JNZ L0818
6630   2C53 D8                  RC
6631   2C54 EB                  XCHG
6632   2C55 7E                  MOV A,M
6633   2C56 EE 80               XRI 80H
6634   2C58 77                  MOV M,A
6635   2C59 21 32 FC            LXI H,0FC32H
6636   2C5C 06 08               MVI B,08H
6637   2C5E AF                  XRA A
6638   2C5F 3E 9A       L0819:  MVI A,9AH
6639   2C61 9E                  SBB M
6640   2C62 CE 00               ACI 00H
6641   2C64 27                  DAA
6642   2C65 3F                  CMC
6643   2C66 77                  MOV M,A
6644   2C67 2B                  DCX H
6645   2C68 05                  DCR B
6646   2C69 C2 5F 2C            JNZ L0819
6647   2C6C C9                  RET
;
6648   2C6D 21 32 FC    L0811:  LXI H,0FC32H
6649   2C70 C5          L0851:  PUSH B
6650   2C71 50                  MOV D,B
6651   2C72 0E 04               MVI C,04H
6652   2C74 E5          L0821:  PUSH H
6653   2C75 B7                  ORA A
6654   2C76 7E          L0820:  MOV A,M
6655   2C77 17                  RAL
6656   2C78 77                  MOV M,A
6657   2C79 2B                  DCX H
6658   2C7A 05                  DCR B
6659   2C7B C2 76 2C            JNZ L0820
6660   2C7E 42                  MOV B,D
6661   2C7F E1                  POP H
6662   2C80 0D                  DCR C
6663   2C81 C2 74 2C            JNZ L0821
6664   2C84 C1                  POP B
6665   2C85 C9                  RET
;
6666   2C86 B7          L0801:  ORA A
6667   2C87 1F                  RAR
6668   2C88 F5                  PUSH PSW
6669   2C89 B7                  ORA A
6670   2C8A CA D3 2C            JZ L0822
6671   2C8D F5                  PUSH PSW
6672   2C8E 2F                  CMA
6673   2C8F 3C                  INR A
6674   2C90 4F                  MOV C,A
6675   2C91 06 FF               MVI B,0FFH
6676   2C93 11 07 00            LXI D,0007H
6677   2C96 19                  DAD D
6678   2C97 54                  MOV D,H
6679   2C98 5D                  MOV E,L
6680   2C99 09                  DAD B
6681   2C9A 3E 08               MVI A,08H
6682   2C9C 81                  ADD C
6683   2C9D 4F                  MOV C,A
6684   2C9E C5                  PUSH B
6685   2C9F CD BF 2E            CALL L0823
6686   2CA2 C1                  POP B
6687   2CA3 F1                  POP PSW
6688   2CA4 23                  INX H
6689   2CA5 13                  INX D
6690   2CA6 D5                  PUSH D
6691   2CA7 47                  MOV B,A
6692   2CA8 AF                  XRA A
6693   2CA9 77          L0824:  MOV M,A
6694   2CAA 23                  INX H
6695   2CAB 05                  DCR B
6696   2CAC C2 A9 2C            JNZ L0824
6697   2CAF E1                  POP H
6698   2CB0 F1                  POP PSW
6699   2CB1 D0                  RNC
6700   2CB2 79                  MOV A,C
6701   2CB3 C5          L0827:  PUSH B
6702   2CB4 D5                  PUSH D
6703   2CB5 57                  MOV D,A
6704   2CB6 0E 04               MVI C,04H
6705   2CB8 42          L0826:  MOV B,D
6706   2CB9 E5                  PUSH H
6707   2CBA B7                  ORA A
6708   2CBB 7E          L0825:  MOV A,M
6709   2CBC 1F                  RAR
6710   2CBD 77                  MOV M,A
6711   2CBE 23                  INX H
6712   2CBF 05                  DCR B
6713   2CC0 C2 BB 2C            JNZ L0825
6714   2CC3 E1                  POP H
6715   2CC4 0D                  DCR C
6716   2CC5 C2 B8 2C            JNZ L0826
6717   2CC8 D1                  POP D
6718   2CC9 C1                  POP B
6719   2CCA C9                  RET
;
6720   2CCB 21 2B FC    L0805:  LXI H,0FC2BH
6721   2CCE 3E 08       L0828:  MVI A,08H
6722   2CD0 C3 B3 2C            JMP L0827
6723   2CD3 F1          L0822:  POP PSW
6724   2CD4 D0                  RNC
6725   2CD5 C3 CE 2C            JMP L0828
;2CFFH -  Double precision multiply (FAC1=FAC1*FAC2)
;         Entry:
;             FAC1 - First double precision number
;             FAC2 - Second double precision number
;         Exit:
;             FAC1 - Result of operation
;               All other registers destroyed
6726   2CD8 F7          L0890:  RST 6
6727   2CD9 C8                  RZ
6728   2CDA 3A 7B FC            LDA 0FC7BH
6729   2CDD B7                  ORA A
6730   2CDE CA C6 33            JZ L0809
6731   2CE1 47                  MOV B,A
6732   2CE2 21 2A FC            LXI H,0FC2AH
6733   2CE5 AE                  XRA M
6734   2CE6 E6 80               ANI 80H
6735   2CE8 4F                  MOV C,A
6736   2CE9 78                  MOV A,B
6737   2CEA E6 7F               ANI 7FH
6738   2CEC 47                  MOV B,A
6739   2CED 7E                  MOV A,M
6740   2CEE E6 7F               ANI 7FH
6741   2CF0 80                  ADD B
6742   2CF1 47                  MOV B,A
6743   2CF2 36 00               MVI M,00H
6744   2CF4 E6 C0               ANI 0C0H
6745   2CF6 C8                  RZ
6746   2CF7 FE C0               CPI 0C0H
6747   2CF9 C2 FF 2C            JNZ L0829
6748   2CFC C3 5C 04            JMP L0386
6749   2CFF 78          L0829:  MOV A,B
6750   2D00 C6 40               ADI 40H
6751   2D02 E6 7F               ANI 7FH
6752   2D04 C8                  RZ
6753   2D05 B1                  ORA C
6754   2D06 2B                  DCX H
6755   2D07 77                  MOV M,A
6756   2D08 11 79 FC            LXI D,0FC79H
6757   2D0B 01 08 00            LXI B,0008H
6758   2D0E 21 31 FC            LXI H,0FC31H
6759   2D11 D5                  PUSH D
6760   2D12 CD BF 2E            CALL L0823
6761   2D15 23                  INX H
6762   2D16 AF                  XRA A
6763   2D17 06 08               MVI B,08H
6764   2D19 77          L0830:  MOV M,A
6765   2D1A 23                  INX H
6766   2D1B 05                  DCR B
6767   2D1C C2 19 2D            JNZ L0830
6768   2D1F D1                  POP D
6769   2D20 01 81 2D            LXI B,2D81H
6770   2D23 C5                  PUSH B
6771   2D24 CD 88 2D    L0905:  CALL L0831
6772   2D27 E5                  PUSH H
6773   2D28 01 08 00            LXI B,0008H
6774   2D2B EB                  XCHG
6775   2D2C CD BF 2E            CALL L0823
6776   2D2F EB                  XCHG
6777   2D30 21 71 FC            LXI H,0FC71H
6778   2D33 06 08               MVI B,08H
6779   2D35 CD 27 2C            CALL L0832
6780   2D38 D1                  POP D
6781   2D39 CD 88 2D            CALL L0831
6782   2D3C 0E 07               MVI C,07H
6783   2D3E 11 82 FC            LXI D,0FC82H
6784   2D41 1A          L0834:  LDAX D
6785   2D42 B7                  ORA A
6786   2D43 C2 4B 2D            JNZ L0833
6787   2D46 1B                  DCX D
6788   2D47 0D                  DCR C
6789   2D48 C3 41 2D            JMP L0834
6790   2D4B 1A          L0833:  LDAX D
6791   2D4C 1B                  DCX D
6792   2D4D D5                  PUSH D
6793   2D4E 21 41 FC            LXI H,0FC41H
6794   2D51 87          L0837:  ADD A
6795   2D52 DA 5F 2D            JC L0835
6796   2D55 CA 6E 2D            JZ L0836
6797   2D58 11 08 00    L0838:  LXI D,0008H
6798   2D5B 19                  DAD D
6799   2D5C C3 51 2D            JMP L0837
6800   2D5F F5          L0835:  PUSH PSW
6801   2D60 06 08               MVI B,08H
6802   2D62 11 31 FC            LXI D,0FC31H
6803   2D65 E5                  PUSH H
6804   2D66 CD 27 2C            CALL L0832
6805   2D69 E1                  POP H
6806   2D6A F1                  POP PSW
6807   2D6B C3 58 2D            JMP L0838
6808   2D6E 06 0F       L0836:  MVI B,0FH
6809   2D70 11 38 FC            LXI D,0FC38H
6810   2D73 21 39 FC            LXI H,0FC39H
6811   2D76 CD 4B 34            CALL L0839
6812   2D79 36 00               MVI M,00H
6813   2D7B D1                  POP D
6814   2D7C 0D                  DCR C
6815   2D7D C2 4B 2D            JNZ L0833
6816   2D80 C9                  RET
6817   2D81 2B          L0862:  DCX H
6818   2D82 7E                  MOV A,M
6819   2D83 23                  INX H
6820   2D84 77                  MOV M,A
6821   2D85 C3 B7 2B            JMP L0840
6822   2D88 21 F8 FF    L0831:  LXI H,0FFF8H
6823   2D8B 19                  DAD D
6824   2D8C 0E 03               MVI C,03H
6825   2D8E 06 08       L0842:  MVI B,08H
6826   2D90 B7                  ORA A
6827   2D91 1A          L0841:  LDAX D
6828   2D92 8F                  ADC A
6829   2D93 27                  DAA
6830   2D94 77                  MOV M,A
6831   2D95 2B                  DCX H
6832   2D96 1B                  DCX D
6833   2D97 05                  DCR B
6834   2D98 C2 91 2D            JNZ L0841
6835   2D9B 0D                  DCR C
6836   2D9C C2 8E 2D            JNZ L0842
6837   2D9F C9                  RET
;2DC7H -  Double precision divide (FAC1=FAC1/FAC2)
;         Entry:
;             FAC1 - Double precision numerator
;             FAC2 - Double precision denominator
;         Exit:
;             FAC1 - Result of operation
;               All other registers destroyed
6838   2DA0 3A 7B FC    L0882:  LDA 0FC7BH
6839   2DA3 B7                  ORA A
6840   2DA4 CA 50 04            JZ L0843
6841   2DA7 47                  MOV B,A
6842   2DA8 21 2A FC            LXI H,0FC2AH
6843   2DAB 7E                  MOV A,M
6844   2DAC B7                  ORA A
6845   2DAD CA C6 33            JZ L0809
6846   2DB0 A8                  XRA B
6847   2DB1 E6 80               ANI 80H
6848   2DB3 4F                  MOV C,A
6849   2DB4 78                  MOV A,B
6850   2DB5 E6 7F               ANI 7FH
6851   2DB7 47                  MOV B,A
6852   2DB8 7E                  MOV A,M
6853   2DB9 E6 7F               ANI 7FH
6854   2DBB 90                  SUB B
6855   2DBC 47                  MOV B,A
6856   2DBD 1F                  RAR
6857   2DBE A8                  XRA B
6858   2DBF E6 40               ANI 40H
6859   2DC1 36 00               MVI M,00H
6860   2DC3 CA CD 2D            JZ L0844
6861   2DC6 78                  MOV A,B
6862   2DC7 E6 80               ANI 80H
6863   2DC9 C0                  RNZ
6864   2DCA C3 5C 04    L0845:  JMP L0386
6865   2DCD 78          L0844:  MOV A,B
6866   2DCE C6 41               ADI 41H
6867   2DD0 E6 7F               ANI 7FH
6868   2DD2 77                  MOV M,A
6869   2DD3 CA CA 2D            JZ L0845
6870   2DD6 B1                  ORA C
6871   2DD7 36 00               MVI M,00H
6872   2DD9 2B                  DCX H
6873   2DDA 77                  MOV M,A
6874   2DDB 11 31 FC            LXI D,0FC31H
6875   2DDE 21 82 FC            LXI H,0FC82H
6876   2DE1 06 07               MVI B,07H
6877   2DE3 7E          L0847:  MOV A,M
6878   2DE4 B7                  ORA A
6879   2DE5 C2 EE 2D            JNZ L0846
6880   2DE8 1B                  DCX D
6881   2DE9 2B                  DCX H
6882   2DEA 05                  DCR B
6883   2DEB C2 E3 2D            JNZ L0847
6884   2DEE 22 26 FC    L0846:  SHLD 0FC26H
6885   2DF1 EB                  XCHG
6886   2DF2 22 24 FC            SHLD 0FC24H
6887   2DF5 78                  MOV A,B
6888   2DF6 32 28 FC            STA 0FC28H
6889   2DF9 21 72 FC            LXI H,0FC72H
6890   2DFC 06 0F       L0858:  MVI B,0FH
6891   2DFE E5          L0861:  PUSH H
6892   2DFF C5                  PUSH B
6893   2E00 2A 26 FC            LHLD 0FC26H
6894   2E03 EB                  XCHG
6895   2E04 2A 24 FC            LHLD 0FC24H
6896   2E07 3A 28 FC            LDA 0FC28H
6897   2E0A 0E FF               MVI C,0FFH
6898   2E0C 37          L0849:  STC
6899   2E0D 0C                  INR C
6900   2E0E 47                  MOV B,A
6901   2E0F E5                  PUSH H
6902   2E10 D5                  PUSH D
6903   2E11 3E 99       L0848:  MVI A,99H
6904   2E13 CE 00               ACI 00H
6905   2E15 EB                  XCHG
6906   2E16 96                  SUB M
6907   2E17 EB                  XCHG
6908   2E18 86                  ADD M
6909   2E19 27                  DAA
6910   2E1A 77                  MOV M,A
6911   2E1B 2B                  DCX H
6912   2E1C 1B                  DCX D
6913   2E1D 05                  DCR B
6914   2E1E C2 11 2E            JNZ L0848
6915   2E21 7E                  MOV A,M
6916   2E22 3F                  CMC
6917   2E23 DE 00               SBI 00H
6918   2E25 77                  MOV M,A
6919   2E26 D1                  POP D
6920   2E27 E1                  POP H
6921   2E28 3A 28 FC            LDA 0FC28H
6922   2E2B D2 0C 2E            JNC L0849
6923   2E2E 47                  MOV B,A
6924   2E2F EB                  XCHG
6925   2E30 CD 27 2C            CALL L0832
6926   2E33 D2 38 2E            JNC L0850
6927   2E36 EB                  XCHG
6928   2E37 34                  INR M
6929   2E38 79          L0850:  MOV A,C
6930   2E39 C1                  POP B
6931   2E3A 4F                  MOV C,A
6932   2E3B C5                  PUSH B
6933   2E3C 78                  MOV A,B
6934   2E3D B7                  ORA A
6935   2E3E 1F                  RAR
6936   2E3F 47                  MOV B,A
6937   2E40 04                  INR B
6938   2E41 58                  MOV E,B
6939   2E42 16 00               MVI D,00H
6940   2E44 21 29 FC            LXI H,0FC29H
6941   2E47 19                  DAD D
6942   2E48 CD 70 2C            CALL L0851
6943   2E4B C1                  POP B
6944   2E4C E1                  POP H
6945   2E4D 78                  MOV A,B
6946   2E4E 0C                  INR C
6947   2E4F 0D                  DCR C
6948   2E50 C2 94 2E            JNZ L0852
6949   2E53 FE 0F               CPI 0FH
6950   2E55 CA 85 2E            JZ L0853
6951   2E58 0F                  RRC
6952   2E59 07                  RLC
6953   2E5A D2 94 2E            JNC L0852
6954   2E5D C5                  PUSH B
6955   2E5E E5                  PUSH H
6956   2E5F 21 2A FC            LXI H,0FC2AH
6957   2E62 06 08               MVI B,08H
6958   2E64 7E          L0855:  MOV A,M
6959   2E65 B7                  ORA A
6960   2E66 C2 7F 2E            JNZ L0854
6961   2E69 23                  INX H
6962   2E6A 05                  DCR B
6963   2E6B C2 64 2E            JNZ L0855
6964   2E6E E1                  POP H
6965   2E6F C1                  POP B
6966   2E70 78                  MOV A,B
6967   2E71 B7                  ORA A
6968   2E72 1F                  RAR
6969   2E73 3C                  INR A
6970   2E74 47                  MOV B,A
6971   2E75 AF                  XRA A
6972   2E76 77          L0856:  MOV M,A
6973   2E77 23                  INX H
6974   2E78 05                  DCR B
6975   2E79 C2 76 2E            JNZ L0856
6976   2E7C C3 A8 2E            JMP L0857
6977   2E7F E1          L0854:  POP H
6978   2E80 C1                  POP B
6979   2E81 78                  MOV A,B
6980   2E82 C3 94 2E            JMP L0852
6981   2E85 3A 29 FC    L0853:  LDA 0FC29H
6982   2E88 5F                  MOV E,A
6983   2E89 3D                  DCR A
6984   2E8A 32 29 FC            STA 0FC29H
6985   2E8D AB                  XRA E
6986   2E8E F2 FC 2D            JP L0858
6987   2E91 C3 C6 33            JMP L0809
6988   2E94 1F          L0852:  RAR
6989   2E95 79                  MOV A,C
6990   2E96 DA 9F 2E            JC L0859
6991   2E99 B6                  ORA M
6992   2E9A 77                  MOV M,A
6993   2E9B 23                  INX H
6994   2E9C C3 A4 2E            JMP L0860
6995   2E9F 87          L0859:  ADD A
6996   2EA0 87                  ADD A
6997   2EA1 87                  ADD A
6998   2EA2 87                  ADD A
6999   2EA3 77                  MOV M,A
7000   2EA4 05          L0860:  DCR B
7001   2EA5 C2 FE 2D            JNZ L0861
7002   2EA8 21 32 FC    L0857:  LXI H,0FC32H
7003   2EAB 11 79 FC            LXI D,0FC79H
7004   2EAE 06 08               MVI B,08H
7005   2EB0 CD 4B 34            CALL L0839
7006   2EB3 C3 81 2D            JMP L0862
7007   2EB6 7E          L0813:  MOV A,M
7008   2EB7 12                  STAX D
7009   2EB8 23                  INX H
7010   2EB9 13                  INX D
7011   2EBA 0D                  DCR C
7012   2EBB C2 B6 2E            JNZ L0813
7013   2EBE C9                  RET
;2EE6H -  Move the memory pointed to by HL to the memory pointed to by 
;        DE for C bytes.  HL and DE are decremented on each cycle of 
;        the move.
;         Entry:
;               HL - Points to end of source memory
;               DE - Points to end of destination memory
;                C - Number of bytes to move
;         Exit:
;          HL & DE - Decremented past last byte moved
;                A - Destroyed
7014   2EBF 7E          L0823:  MOV A,M
7015   2EC0 12                  STAX D
7016   2EC1 2B                  DCX H
7017   2EC2 1B                  DCX D
7018   2EC3 0D                  DCR C
7019   2EC4 C2 BF 2E            JNZ L0823
7020   2EC7 C9                  RET
;2EEFH -  COS Function
;         Entry:
;             FAC1 - Angle in radians
;         Exit:
;             FAC1 - Result of COSine
7021   2EC8 21 A7 32    L0878:  LXI H,32A7H
7022   2ECB CD 7C 31            CALL L0863
7023   2ECE 3A 2A FC            LDA 0FC2AH
7024   2ED1 E6 7F               ANI 7FH
7025   2ED3 32 2A FC            STA 0FC2AH
7026   2ED6 21 67 32            LXI H,3267H
7027   2ED9 CD 73 31            CALL L0864
7028   2EDC CD D6 33            CALL L0865
7029   2EDF C3 E8 2E            JMP L0866
;2F09H -  SIN Function
;         Entry:
;             FAC1 - Angle in radians
;         Exit:
;             FAC1 - Result of SINe
7030   2EE2 21 A7 32    L0880:  LXI H,32A7H
7031   2EE5 CD 7C 31            CALL L0863
7032   2EE8 3A 2A FC    L0866:  LDA 0FC2AH
7033   2EEB B7                  ORA A
7034   2EEC FC BC 31            CM L0867
7035   2EEF CD 0D 32            CALL L0868
7036   2EF2 CD 2D 36            CALL L0869
7037   2EF5 CD 8E 31            CALL L0870
7038   2EF8 CD 24 32            CALL L0871
7039   2EFB CD 42 2B            CALL L0872
7040   2EFE 3A 2A FC            LDA 0FC2AH
7041   2F01 FE 40               CPI 40H
7042   2F03 DA 2B 2F            JC L0873
7043   2F06 3A 2B FC            LDA 0FC2BH
7044   2F09 FE 25               CPI 25H
7045   2F0B DA 2B 2F            JC L0873
7046   2F0E FE 75               CPI 75H
7047   2F10 D2 22 2F            JNC L0874
7048   2F13 CD 8E 31            CALL L0870
7049   2F16 21 55 32            LXI H,3255H
7050   2F19 CD 9D 31            CALL L0875
7051   2F1C CD 42 2B            CALL L0872
7052   2F1F C3 2B 2F            JMP L0873
7053   2F22 21 5F 32    L0874:  LXI H,325FH
7054   2F25 CD 91 31            CALL L0876
7055   2F28 CD 42 2B            CALL L0872
7056   2F2B 21 33 33    L0873:  LXI H,3333H
7057   2F2E C3 D0 31            JMP L0877
;2F58H -  TAN Function
;         Entry:
;             FAC1 - Angle in radians
;         Exit:
;             FAC1 - Result of TANgent
7058   2F31 CD 0D 32            CALL L0868
7059   2F34 CD C8 2E            CALL L0878
7060   2F37 CD AB 31            CALL L0879
7061   2F3A CD E2 2E            CALL L0880
7062   2F3D CD 1E 32            CALL L0881
7063   2F40 3A 7B FC            LDA 0FC7BH
7064   2F43 B7                  ORA A
7065   2F44 C2 A0 2D            JNZ L0882
7066   2F47 C3 5C 04            JMP L0386
;2F71H -  ATN Function
;         Entry:
;             FAC1 - TANgent value
;         Exit:
;             FAC1 - Angle in radians
7067   2F4A 3A 2A FC            LDA 0FC2AH
7068   2F4D B7                  ORA A
7069   2F4E C8                  RZ
7070   2F4F FC BC 31            CM L0867
7071   2F52 FE 41               CPI 41H
7072   2F54 DA 72 2F            JC L0883
7073   2F57 CD 8E 31            CALL L0870
7074   2F5A 21 5F 32            LXI H,325FH
7075   2F5D CD 9D 31            CALL L0875
7076   2F60 CD A0 2D            CALL L0882
7077   2F63 CD 72 2F            CALL L0883
7078   2F66 CD 8E 31            CALL L0870
7079   2F69 21 87 32            LXI H,3287H
7080   2F6C CD 9D 31            CALL L0875
7081   2F6F C3 42 2B            JMP L0872
7082   2F72 21 8F 32    L0883:  LXI H,328FH
7083   2F75 CD 88 31            CALL L0884
7084   2F78 FA A2 2F            JM L0885
7085   2F7B CD 0D 32            CALL L0868
7086   2F7E 21 97 32            LXI H,3297H
7087   2F81 CD 6D 31            CALL L0886
7088   2F84 CD AB 31            CALL L0879
7089   2F87 21 97 32            LXI H,3297H
7090   2F8A CD 7C 31            CALL L0863
7091   2F8D 21 5F 32            LXI H,325FH
7092   2F90 CD 73 31            CALL L0864
7093   2F93 CD 1E 32            CALL L0881
7094   2F96 CD A0 2D            CALL L0882
7095   2F99 CD A2 2F            CALL L0885
7096   2F9C 21 9F 32            LXI H,329FH
7097   2F9F C3 6D 31            JMP L0886
7098   2FA2 21 74 33    L0885:  LXI H,3374H
7099   2FA5 C3 D0 31            JMP L0877
;2FCFH -  LOG Function
;         Entry:
;             FAC1 - LOG value
;         Exit:
;             FAC1 - Result of LOG
7100   2FA8 F7          L1087:  RST 6
7101   2FA9 FA E2 08            JM L0214
7102   2FAC CA E2 08            JZ L0214
7103   2FAF 21 2A FC            LXI H,0FC2AH
7104   2FB2 7E                  MOV A,M
7105   2FB3 F5                  PUSH PSW
7106   2FB4 36 41               MVI M,41H
7107   2FB6 21 6F 32            LXI H,326FH
7108   2FB9 CD 88 31            CALL L0884
7109   2FBC FA C6 2F            JM L0887
7110   2FBF F1                  POP PSW
7111   2FC0 3C                  INR A
7112   2FC1 F5                  PUSH PSW
7113   2FC2 21 2A FC            LXI H,0FC2AH
7114   2FC5 35                  DCR M
7115   2FC6 F1          L0887:  POP PSW
7116   2FC7 32 A0 FB            STA 0FBA0H
7117   2FCA CD 0D 32            CALL L0868
7118   2FCD 21 5F 32            LXI H,325FH
7119   2FD0 CD 6D 31            CALL L0886
7120   2FD3 CD AB 31            CALL L0879
7121   2FD6 21 5F 32            LXI H,325FH
7122   2FD9 CD 73 31            CALL L0864
7123   2FDC CD 1E 32            CALL L0881
7124   2FDF CD A0 2D            CALL L0882
7125   2FE2 CD 0D 32            CALL L0868
7126   2FE5 CD 79 31            CALL L0888
7127   2FE8 CD 0D 32            CALL L0868
7128   2FEB CD 0D 32            CALL L0868
7129   2FEE 21 0A 33            LXI H,330AH
7130   2FF1 CD E2 31            CALL L0889
7131   2FF4 CD AB 31            CALL L0879
7132   2FF7 21 E9 32            LXI H,32E9H
7133   2FFA CD E2 31            CALL L0889
7134   2FFD CD 1E 32            CALL L0881
7135   3000 CD A0 2D            CALL L0882
7136   3003 CD 1E 32            CALL L0881
7137   3006 CD D8 2C            CALL L0890
7138   3009 21 77 32            LXI H,3277H
7139   300C CD 6D 31            CALL L0886
7140   300F CD 1E 32            CALL L0881
7141   3012 CD D8 2C            CALL L0890
7142   3015 CD 0D 32            CALL L0868
7143   3018 3A A0 FB            LDA 0FBA0H
7144   301B D6 41               SUI 41H
7145   301D 6F                  MOV L,A
7146   301E 87                  ADD A
7147   301F 9F                  SBB A
7148   3020 67                  MOV H,A
7149   3021 CD 1C 35            CALL L0304
7150   3024 CD 9B 35            CALL L0891
7151   3027 CD 1E 32            CALL L0881
7152   302A CD 51 2B            CALL L0892
7153   302D 21 7F 32            LXI H,327FH
7154   3030 C3 7C 31            JMP L0863
;305AH -  SQR Function
;         Entry:
;             FAC1 - Number to find square root of
;         Exit:
;             FAC1 - Square root of number
7155   3033 F7                  RST 6
7156   3034 C8                  RZ
7157   3035 FA E2 08            JM L0214
7158   3038 CD 8E 31            CALL L0870
7159   303B 3A 2A FC            LDA 0FC2AH
7160   303E B7                  ORA A
7161   303F 1F                  RAR
7162   3040 CE 20               ACI 20H
7163   3042 32 7B FC            STA 0FC7BH
7164   3045 3A 2B FC            LDA 0FC2BH
7165   3048 B7                  ORA A
7166   3049 0F                  RRC
7167   304A B7                  ORA A
7168   304B 0F                  RRC
7169   304C E6 33               ANI 33H
7170   304E C6 10               ADI 10H
7171   3050 32 7C FC            STA 0FC7CH
7172   3053 3E 07               MVI A,07H
7173   3055 32 A0 FB    L0894:  STA 0FBA0H
7174   3058 CD 0D 32            CALL L0868
7175   305B CD 07 32            CALL L0893
7176   305E CD A0 2D            CALL L0882
7177   3061 CD 1E 32            CALL L0881
7178   3064 CD 51 2B            CALL L0892
7179   3067 21 55 32            LXI H,3255H
7180   306A CD 7C 31            CALL L0863
7181   306D CD 8E 31            CALL L0870
7182   3070 CD 24 32            CALL L0871
7183   3073 3A A0 FB            LDA 0FBA0H
7184   3076 3D                  DCR A
7185   3077 C2 55 30            JNZ L0894
7186   307A C3 9A 31            JMP L0895
;30A4H -  EXP Function
;         Entry:
;             FAC1 - Value for EXP
;         Exit:
;             FAC1 - Natural exponent result
7187   307D 21 4D 32    L1088:  LXI H,324DH
7188   3080 CD 7C 31            CALL L0863
7189   3083 CD 0D 32            CALL L0868
7190   3086 CD DA 34            CALL L0137
7191   3089 7D                  MOV A,L
7192   308A 17                  RAL
7193   308B 9F                  SBB A
7194   308C BC                  CMP H
7195   308D CA A4 30            JZ L0896
7196   3090 7C                  MOV A,H
7197   3091 B7                  ORA A
7198   3092 F2 A1 30            JP L0897
7199   3095 CD A8 35            CALL L0898
7200   3098 CD 24 32            CALL L0871
7201   309B 21 57 32            LXI H,3257H
7202   309E C3 9D 31            JMP L0875
7203   30A1 C3 5C 04    L0897:  JMP L0386
7204   30A4 22 A0 FB    L0896:  SHLD 0FBA0H
7205   30A7 CD 93 35            CALL L0141
7206   30AA CD 8E 31            CALL L0870
7207   30AD CD 24 32            CALL L0871
7208   30B0 CD 42 2B            CALL L0872
7209   30B3 21 55 32            LXI H,3255H
7210   30B6 CD 88 31            CALL L0884
7211   30B9 F5                  PUSH PSW
7212   30BA CA C6 30            JZ L0899
7213   30BD DA C6 30            JC L0899
7214   30C0 21 55 32            LXI H,3255H
7215   30C3 CD 73 31            CALL L0864
7216   30C6 CD 0D 32    L0899:  CALL L0868
7217   30C9 21 D0 32            LXI H,32D0H
7218   30CC CD D0 31            CALL L0877
7219   30CF CD AB 31            CALL L0879
7220   30D2 21 AF 32            LXI H,32AFH
7221   30D5 CD C4 31            CALL L0900
7222   30D8 CD 1E 32            CALL L0881
7223   30DB CD 07 32            CALL L0893
7224   30DE CD 0D 32            CALL L0868
7225   30E1 CD 42 2B            CALL L0872
7226   30E4 21 72 FC            LXI H,0FC72H
7227   30E7 CD A3 31            CALL L0901
7228   30EA CD 1E 32            CALL L0881
7229   30ED CD 24 32            CALL L0871
7230   30F0 CD 51 2B            CALL L0892
7231   30F3 21 72 FC            LXI H,0FC72H
7232   30F6 CD 91 31            CALL L0876
7233   30F9 CD A0 2D            CALL L0882
7234   30FC F1                  POP PSW
7235   30FD DA 09 31            JC L0902
7236   3100 CA 09 31            JZ L0902
7237   3103 21 6F 32            LXI H,326FH
7238   3106 CD 7C 31            CALL L0863
7239   3109 3A A0 FB    L0902:  LDA 0FBA0H
7240   310C 21 2A FC            LXI H,0FC2AH
7241   310F 4E                  MOV C,M
7242   3110 86                  ADD M
7243   3111 77                  MOV M,A
7244   3112 A9                  XRA C
7245   3113 F0                  RP
7246   3114 C3 5C 04            JMP L0386
;313EH -  RND Function
7247   3117 F7                  RST 6
7248   3118 21 8B FC            LXI H,0FC8BH
7249   311B CA 4C 31            JZ L0903
7250   311E FC A3 31            CM L0901
7251   3121 21 72 FC            LXI H,0FC72H
7252   3124 11 8B FC            LXI D,0FC8BH
7253   3127 CD A6 31            CALL L0904
7254   312A 21 3D 32            LXI H,323DH
7255   312D CD 91 31            CALL L0876
7256   3130 21 35 32            LXI H,3235H
7257   3133 CD 9D 31            CALL L0875
7258   3136 11 79 FC            LXI D,0FC79H
7259   3139 CD 24 2D            CALL L0905
7260   313C 11 32 FC            LXI D,0FC32H
7261   313F 21 8C FC            LXI H,0FC8CH
7262   3142 06 07               MVI B,07H
7263   3144 CD 42 34            CALL L0540
7264   3147 21 8B FC            LXI H,0FC8BH
7265   314A 36 00               MVI M,00H
7266   314C CD 9D 31    L0903:  CALL L0875
7267   314F 21 2A FC            LXI H,0FC2AH
7268   3152 36 40               MVI M,40H
7269   3154 AF                  XRA A
7270   3155 32 32 FC            STA 0FC32H
7271   3158 C3 B7 2B            JMP L0840
7272   315B 11 45 32    L1105:  LXI D,3245H
7273   315E 21 8B FC            LXI H,0FC8BH
7274   3161 C3 A6 31            JMP L0904
7275   3164 CD 1C 35            CALL L0304
7276   3167 21 8B FC            LXI H,0FC8BH
7277   316A C3 A3 31            JMP L0901
7278   316D CD 91 31    L0886:  CALL L0876
7279   3170 C3 51 2B            JMP L0892
7280   3173 CD 91 31    L0864:  CALL L0876
7281   3176 C3 42 2B            JMP L0872
;31A0H -  Double precision square of FAC1 (FAC1=FAC1 squared)
;         Entry:
;           FAC1 - Double precision number to square
;         Exit:
;           FAC1 - Result of FAC1 squared
;               All other registers destroyed
7282   3179 21 2A FC    L0888:  LXI H,0FC2AH
7283   317C CD 91 31    L0863:  CALL L0876
7284   317F C3 D8 2C            JMP L0890
7285   3182 CD 91 31            CALL L0876
7286   3185 C3 A0 2D            JMP L0882
7287   3188 CD 91 31    L0884:  CALL L0876
7288   318B C3 AB 34            JMP L0906
;31B5H -  Move FAC1 to FAC2
;         Exit:
;               All registers destroyed
7289   318E 21 2A FC    L0870:  LXI H,0FC2AH
;31B8H -  Move the floating point buffer pointed to by HL to FAC2.
;         Entry:
;               HL - Points to 8 byte floating point buffer
;         Exit:
;               All registers destroyed
7290   3191 11 7B FC    L0876:  LXI D,0FC7BH
7291   3194 EB          L0907:  XCHG
7292   3195 CD A6 31            CALL L0904
7293   3198 EB                  XCHG
7294   3199 C9                  RET
;31C1H -  Move FAC2 to FAC1
;         Exit:
;               All registers destroyed
7295   319A 21 7B FC    L0895:  LXI H,0FC7BH
;31C4H -  Move the 8 byte floating point accumulator pointed to by HL 
;        to FAC1
;         Entry:
;               HL - Points to start of source memory
;         Exit:
;               All registers destroyed
7296   319D 11 2A FC    L0875:  LXI D,0FC2AH
7297   31A0 C3 94 31            JMP L0907
;31CAH -  Move FAC1 to the 8 byte floating point accumulator pointed to 
;        by HL.
;         Entry:
;               HL - Points to start of buffer for FAC1
;         Exit:
;               All registers destroyed
7298   31A3 11 2A FC    L0901:  LXI D,0FC2AH
7299   31A6 06 08       L0904:  MVI B,08H
7300   31A8 C3 42 34            JMP L0540
7301   31AB E1          L0879:  POP H
7302   31AC 22 F9 FB            SHLD 0FBF9H
7303   31AF CD 1E 32            CALL L0881
7304   31B2 CD 0D 32            CALL L0868
7305   31B5 CD 9A 31            CALL L0895
7306   31B8 2A F9 FB            LHLD 0FBF9H
7307   31BB E9                  PCHL
7308   31BC CD D6 33    L0867:  CALL L0865
7309   31BF 21 D6 33            LXI H,33D6H
7310   31C2 E3                  XTHL
7311   31C3 E9                  PCHL
7312   31C4 22 F9 FB    L0900:  SHLD 0FBF9H
7313   31C7 CD 79 31            CALL L0888
7314   31CA 2A F9 FB            LHLD 0FBF9H
7315   31CD C3 E2 31            JMP L0889
7316   31D0 22 F9 FB    L0877:  SHLD 0FBF9H
7317   31D3 CD 0D 32            CALL L0868
7318   31D6 2A F9 FB            LHLD 0FBF9H
7319   31D9 CD C4 31            CALL L0900
7320   31DC CD 1E 32            CALL L0881
7321   31DF C3 D8 2C            JMP L0890
7322   31E2 7E          L0889:  MOV A,M
7323   31E3 F5                  PUSH PSW
7324   31E4 23                  INX H
7325   31E5 E5                  PUSH H
7326   31E6 21 F9 FB            LXI H,0FBF9H
7327   31E9 CD A3 31            CALL L0901
7328   31EC E1                  POP H
7329   31ED CD 9D 31            CALL L0875
7330   31F0 F1          L0908:  POP PSW
7331   31F1 3D                  DCR A
7332   31F2 C8                  RZ
7333   31F3 F5                  PUSH PSW
7334   31F4 E5                  PUSH H
7335   31F5 21 F9 FB            LXI H,0FBF9H
7336   31F8 CD 7C 31            CALL L0863
7337   31FB E1                  POP H
7338   31FC CD 91 31            CALL L0876
7339   31FF E5                  PUSH H
7340   3200 CD 51 2B            CALL L0892
7341   3203 E1                  POP H
7342   3204 C3 F0 31            JMP L0908
;322EH -  Push FAC2 on stack
;         Exit:
;               All registers destroyed
7343   3207 21 82 FC    L0893:  LXI H,0FC82H
7344   320A C3 10 32            JMP L0909
;3234H -  Push FAC1 on stack
;         Exit:
;               All registers destroyed
7345   320D 21 31 FC    L0868:  LXI H,0FC31H
7346   3210 3E 04       L0909:  MVI A,04H
7347   3212 D1                  POP D
7348   3213 46          L0910:  MOV B,M
7349   3214 2B                  DCX H
7350   3215 4E                  MOV C,M
7351   3216 2B                  DCX H
7352   3217 C5                  PUSH B
7353   3218 3D                  DCR A
7354   3219 C2 13 32            JNZ L0910
7355   321C EB                  XCHG
7356   321D E9                  PCHL
;3245H -  Pop FAC2 off stack
;        Exit:
;           FAC2 - Floating point value POPed off stack
;               All registers destroyed
7357   321E 21 7B FC    L0881:  LXI H,0FC7BH
7358   3221 C3 27 32            JMP L0911
;324BH -  Pop FAC1 off stack
;         Exit:
;           FAC1 - Floating point value POPed off stack
;               All registers destroyed
7359   3224 21 2A FC    L0871:  LXI H,0FC2AH
7360   3227 3E 04       L0911:  MVI A,04H
7361   3229 D1                  POP D
7362   322A C1          L0912:  POP B
7363   322B 71                  MOV M,C
7364   322C 23                  INX H
7365   322D 70                  MOV M,B
7366   322E 23                  INX H
7367   322F 3D                  DCR A
7368   3230 C2 2A 32            JNZ L0912
7369   3233 EB                  XCHG
7370   3234 E9                  PCHL
7371   3235 00                  NOP
7372   3236 14                  INR D
7373   3237 38                  UNRECOGNIZED
7374   3238 98                  SBB B
7375   3239 20                  RIM
7376   323A 42                  MOV B,D
7377   323B 08                  UNRECOGNIZED
7378   323C 21 00 21            LXI H,2100H
7379   323F 13                  INX D
7380   3240 24                  INR H
7381   3241 86                  ADD M
7382   3242 54                  MOV D,H
7383   3243 05                  DCR B
7384   3244 19                  DAD D
7385   3245 00                  NOP
7386   3246 40                  MOV B,B
7387   3247 64                  MOV H,H
7388   3248 96                  SUB M
7389   3249 51                  MOV D,C
7390   324A 37                  STC
7391   324B 23                  INX H
7392   324C 58                  MOV E,B
7393   324D 40                  MOV B,B
7394   324E 43                  MOV B,E
7395   324F 42                  MOV B,D
7396   3250 94                  SUB H
7397   3251 48                  MOV C,B
7398   3252 19                  DAD D
7399   3253 03                  INX B
7400   3254 24                  INR H
7401   3255 40                  MOV B,B
7402   3256 50                  MOV D,B
7403   3257 00                  NOP
7404   3258 00                  NOP
7405   3259 00                  NOP
7406   325A 00                  NOP
7407   325B 00                  NOP
7408   325C 00                  NOP
7409   325D 00                  NOP
7410   325E 00                  NOP
7411   325F 41                  MOV B,C
7412   3260 10                  UNRECOGNIZED
7413   3261 00                  NOP
7414   3262 00                  NOP
7415   3263 00                  NOP
7416   3264 00                  NOP
7417   3265 00                  NOP
7418   3266 00                  NOP
7419   3267 40                  MOV B,B
7420   3268 25                  DCR H
7421   3269 00                  NOP
7422   326A 00                  NOP
7423   326B 00                  NOP
7424   326C 00                  NOP
7425   326D 00                  NOP
7426   326E 00                  NOP
7427   326F 41                  MOV B,C
7428   3270 31 62 27            LXI SP,2762H
7429   3273 76                  HLT
7430   3274 60                  MOV H,B
7431   3275 16 84               MVI D,84H
7432   3277 40                  MOV B,B
7433   3278 86                  ADD M
7434   3279 85                  ADD L
7435   327A 88                  ADC B
7436   327B 96                  SUB M
7437   327C 38                  UNRECOGNIZED
7438   327D 06 50               MVI B,50H
7439   327F 41                  MOV B,C
7440   3280 23                  INX H
7441   3281 02                  STAX B
7442   3282 58                  MOV E,B
7443   3283 50                  MOV D,B
7444   3284 92                  SUB D
7445   3285 99                  SBB C
7446   3286 40                  MOV B,B
7447   3287 41                  MOV B,C
7448   3288 15                  DCR D
7449   3289 70                  MOV M,B
7450   328A 79                  MOV A,C
7451   328B 63                  MOV H,E
7452   328C 26 79               MVI H,79H
7453   328E 49                  MOV C,C
7454   328F 40                  MOV B,B
7455   3290 26 79               MVI H,79H
7456   3292 49                  MOV C,C
7457   3293 19                  DAD D
7458   3294 24                  INR H
7459   3295 31 12 41            LXI SP,4112H
7460   3298 17                  RAL
7461   3299 32 05 08            STA 0805H
7462   329C 07                  RLC
7463   329D 56                  MOV D,M
7464   329E 89                  ADC C
7465   329F 40                  MOV B,B
7466   32A0 52                  MOV D,D
7467   32A1 35                  DCR M
7468   32A2 98                  SBB B
7469   32A3 77                  MOV M,A
7470   32A4 55                  MOV D,L
7471   32A5 98                  SBB B
7472   32A6 30                  SIM
7473   32A7 40                  MOV B,B
7474   32A8 15                  DCR D
7475   32A9 91                  SUB C
7476   32AA 54                  MOV D,H
7477   32AB 94                  SUB H
7478   32AC 30                  SIM
7479   32AD 91                  SUB C
7480   32AE 90                  SUB B
7481   32AF 04                  INR B
7482   32B0 41                  MOV B,C
7483   32B1 10                  UNRECOGNIZED
7484   32B2 00                  NOP
7485   32B3 00                  NOP
7486   32B4 00                  NOP
7487   32B5 00                  NOP
7488   32B6 00                  NOP
7489   32B7 00                  NOP
7490   32B8 43                  MOV B,E
7491   32B9 15                  DCR D
7492   32BA 93                  SUB E
7493   32BB 74                  MOV M,H
7494   32BC 15                  DCR D
7495   32BD 23                  INX H
7496   32BE 60                  MOV H,B
7497   32BF 31 44 27            LXI SP,2744H
7498   32C2 09                  DAD B
7499   32C3 31 69 40            LXI SP,4069H
7500   32C6 85                  ADD L
7501   32C7 16 44               MVI D,44H
7502   32C9 44                  MOV B,H
7503   32CA 97                  SUB A
7504   32CB 63                  MOV H,E
7505   32CC 35                  DCR M
7506   32CD 57                  MOV D,A
7507   32CE 40                  MOV B,B
7508   32CF 58                  MOV E,B
7509   32D0 03                  INX B
7510   32D1 42                  MOV B,D
7511   32D2 18                  UNRECOGNIZED
7512   32D3 31 23 60            LXI SP,6023H
7513   32D6 15                  DCR D
7514   32D7 92                  SUB D
7515   32D8 75                  MOV M,L
7516   32D9 43                  MOV B,E
7517   32DA 83                  ADD E
7518   32DB 14                  INR D
7519   32DC 06 72               MVI B,72H
7520   32DE 12                  STAX D
7521   32DF 93                  SUB E
7522   32E0 71                  MOV M,C
7523   32E1 44                  MOV B,H
7524   32E2 51                  MOV D,C
7525   32E3 78                  MOV A,B
7526   32E4 09                  DAD B
7527   32E5 19                  DAD D
7528   32E6 91                  SUB C
7529   32E7 51                  MOV D,C
7530   32E8 62                  MOV H,D
7531   32E9 04                  INR B
7532   32EA C0                  RNZ
7533   32EB 71                  MOV M,C
7534   32EC 43                  MOV B,E
7535   32ED 33                  INX SP
7536   32EE 82                  ADD D
7537   32EF 15                  DCR D
7538   32F0 32 26 41            STA 4126H
7539   32F3 62                  MOV H,D
7540   32F4 50                  MOV D,B
7541   32F5 36 51               MVI M,51H
7542   32F7 12                  STAX D
7543   32F8 79                  MOV A,C
7544   32F9 08                  UNRECOGNIZED
7545   32FA C2 13 68            JNZ L0913
7546   32FD 23                  INX H
7547   32FE 70                  MOV M,B
7548   32FF 24                  INR H
7549   3300 15                  DCR D
7550   3301 03                  INX B
7551   3302 41                  MOV B,C
7552   3303 85                  ADD L
7553   3304 16 73               MVI D,73H
7554   3306 19                  DAD D
7555   3307 87                  ADD A
7556   3308 23                  INX H
7557   3309 89                  ADC C
7558   330A 05                  DCR B
7559   330B 41                  MOV B,C
7560   330C 10                  UNRECOGNIZED
7561   330D 00                  NOP
7562   330E 00                  NOP
7563   330F 00                  NOP
7564   3310 00                  NOP
7565   3311 00                  NOP
7566   3312 00                  NOP
7567   3313 C2 13 21            JNZ L0914
7568   3316 04                  INR B
7569   3317 78                  MOV A,B
7570   3318 35                  DCR M
7571   3319 01 56 42            LXI B,4256H
7572   331C 47                  MOV B,A
7573   331D 92                  SUB D
7574   331E 52                  MOV D,D
7575   331F 56                  MOV D,M
7576   3320 04                  INR B
7577   3321 38                  UNRECOGNIZED
7578   3322 73                  MOV M,E
7579   3323 C2 64 90            JNZ L0915
7580   3326 66                  MOV H,M
7581   3327 82                  ADD D
7582   3328 74                  MOV M,H
7583   3329 09                  DAD B
7584   332A 43                  MOV B,E
7585   332B 42                  MOV B,D
7586   332C 29                  DAD H
7587   332D 41                  MOV B,C
7588   332E 57                  MOV D,A
7589   332F 50                  MOV D,B
7590   3330 17                  RAL
7591   3331 23                  INX H
7592   3332 23                  INX H
7593   3333 08                  UNRECOGNIZED
7594   3334 C0                  RNZ
7595   3335 69                  MOV L,C
7596   3336 21 56 92            LXI H,9256H
7597   3339 29                  DAD H
7598   333A 18                  UNRECOGNIZED
7599   333B 09                  DAD B
7600   333C 41                  MOV B,C
7601   333D 38                  UNRECOGNIZED
7602   333E 17                  RAL
7603   333F 28                  UNRECOGNIZED
7604   3340 86                  ADD M
7605   3341 38                  UNRECOGNIZED
7606   3342 57                  MOV D,A
7607   3343 71                  MOV M,C
7608   3344 C2 15 09            JNZ L0916
7609   3347 44                  MOV B,H
7610   3348 99                  SBB C
7611   3349 47                  MOV B,A
7612   334A 48                  MOV C,B
7613   334B 01 42 42            LXI B,4242H
7614   334E 05                  DCR B
7615   334F 86                  ADD M
7616   3350 89                  ADC C
7617   3351 66                  MOV H,M
7618   3352 73                  MOV M,E
7619   3353 55                  MOV D,L
7620   3354 C2 76 70            JNZ L0917
7621   3357 58                  MOV E,B
7622   3358 59                  MOV E,C
7623   3359 68                  MOV L,B
7624   335A 32 91 42            STA 4291H
7625   335D 81                  ADD C
7626   335E 60                  MOV H,B
7627   335F 52                  MOV D,D
7628   3360 49                  MOV C,C
7629   3361 27                  DAA
7630   3362 55                  MOV D,L
7631   3363 13                  INX D
7632   3364 C2 41 34            JNZ L0918
7633   3367 17                  RAL
7634   3368 02                  STAX B
7635   3369 24                  INR H
7636   336A 03                  INX B
7637   336B 98                  SBB B
7638   336C 41                  MOV B,C
7639   336D 62                  MOV H,D
7640   336E 83                  ADD E
7641   336F 18                  UNRECOGNIZED
7642   3370 53                  MOV D,E
7643   3371 07                  RLC
7644   3372 17                  RAL
7645   3373 96                  SUB M
7646   3374 08                  UNRECOGNIZED
7647   3375 BF                  CMP A
7648   3376 52                  MOV D,D
7649   3377 08                  UNRECOGNIZED
7650   3378 69                  MOV L,C
7651   3379 39                  DAD SP
7652   337A 04                  INR B
7653   337B 00                  NOP
7654   337C 00                  NOP
7655   337D 3F                  CMC
7656   337E 75                  MOV M,L
7657   337F 30                  SIM
7658   3380 71                  MOV M,C
7659   3381 49                  MOV C,C
7660   3382 13                  INX D
7661   3383 48                  MOV C,B
7662   3384 00                  NOP
7663   3385 BF                  CMP A
7664   3386 90                  SUB B
7665   3387 81                  ADD C
7666   3388 34                  INR M
7667   3389 32 24 70            STA 7024H
7668   338C 50                  MOV D,B
7669   338D 40                  MOV B,B
7670   338E 11 11 07            LXI D,0711H
7671   3391 94                  SUB H
7672   3392 18                  UNRECOGNIZED
7673   3393 40                  MOV B,B
7674   3394 29                  DAD H
7675   3395 C0                  RNZ
7676   3396 14                  INR D
7677   3397 28                  UNRECOGNIZED
7678   3398 56                  MOV D,M
7679   3399 08                  UNRECOGNIZED
7680   339A 55                  MOV D,L
7681   339B 48                  MOV C,B
7682   339C 84                  ADD H
7683   339D 40                  MOV B,B
7684   339E 19                  DAD D
7685   339F 99                  SBB C
7686   33A0 99                  SBB C
7687   33A1 99                  SBB C
7688   33A2 94                  SUB H
7689   33A3 89                  ADC C
7690   33A4 67                  MOV H,A
7691   33A5 C0                  RNZ
7692   33A6 33                  INX SP
7693   33A7 33                  INX SP
7694   33A8 33                  INX SP
7695   33A9 33                  INX SP
7696   33AA 33                  INX SP
7697   33AB 31 60 41            LXI SP,4160H
7698   33AE 10                  UNRECOGNIZED
7699   33AF 00                  NOP
7700   33B0 00                  NOP
7701   33B1 00                  NOP
7702   33B2 00                  NOP
7703   33B3 00                  NOP
7704   33B4 00                  NOP
;33DCH -  RST 30H routine
7705   33B5 3A 2A FC    L0008:  LDA 0FC2AH
7706   33B8 B7                  ORA A
7707   33B9 C8                  RZ
7708   33BA 3A 2A FC            LDA 0FC2AH
7709   33BD C3 C1 33            JMP L0919
7710   33C0 2F          L0926:  CMA
7711   33C1 17          L0919:  RAL
7712   33C2 9F          L0745:  SBB A
7713   33C3 C0                  RNZ
7714   33C4 3C                  INR A
7715   33C5 C9                  RET
7716   33C6 AF          L0809:  XRA A
7717   33C7 32 2A FC            STA 0FC2AH
7718   33CA C9                  RET
;33F2H -  ABS Function
7719   33CB CD EA 33            CALL L0217
7720   33CE F0                  RP
7721   33CF EF          L0335:  RST 5
7722   33D0 FA A9 37            JM L0920
7723   33D3 CA 62 04            JZ L0133
7724   33D6 21 2A FC    L0865:  LXI H,0FC2AH
7725   33D9 7E                  MOV A,M
7726   33DA B7                  ORA A
7727   33DB C8                  RZ
7728   33DC EE 80               XRI 80H
7729   33DE 77                  MOV M,A
7730   33DF C9                  RET
;3407H -  SGN Function
7731   33E0 CD EA 33            CALL L0217
7732   33E3 6F          L0341:  MOV L,A
7733   33E4 17                  RAL
7734   33E5 9F                  SBB A
7735   33E6 67                  MOV H,A
7736   33E7 C3 E9 34            JMP L0326
7737   33EA EF          L0217:  RST 5
7738   33EB CA 62 04            JZ L0133
7739   33EE F2 B5 33            JP L0008
7740   33F1 2A 2C FC            LHLD 0FC2CH
7741   33F4 7C          L0139:  MOV A,H
7742   33F5 B5                  ORA L
7743   33F6 C8                  RZ
7744   33F7 7C                  MOV A,H
7745   33F8 C3 C1 33            JMP L0919
;3422H -  PUSH the single precision value in FAC1 onto the stack
;         Exit:
;               DE - Destroyed
7746   33FB EB          L0303:  XCHG
7747   33FC 2A 2C FC            LHLD 0FC2CH
7748   33FF E3                  XTHL
7749   3400 E5                  PUSH H
7750   3401 2A 2A FC            LHLD 0FC2AH
7751   3404 E3                  XTHL
7752   3405 E5                  PUSH H
7753   3406 EB                  XCHG
7754   3407 C9                  RET
;342FH -  Load the 4 byte number pointed to by HL into FAC1.  The 
;        buffer pointed to by HL reverses the two words prior to 
;        storing them into FAC1
;         Entry:
;               HL - 4 byte number that will be put in FAC1 in reverse 
;                    order
;         Exit:
;               HL - Incremented past last byte moved
;               All other registers destroyed
7755   3408 CD 29 34            CALL L0762
;3432H -  Load the single precision value in BCDE into FAC1
;         Entry:
;             BCDE - Single precision number
;         Exit:
;               BC & DE destroyed
7756   340B EB          L0299:  XCHG
7757   340C 22 2C FC            SHLD 0FC2CH
7758   340F 60                  MOV H,B
7759   3410 69                  MOV L,C
7760   3411 22 2A FC            SHLD 0FC2AH
7761   3414 EB                  XCHG
7762   3415 C9                  RET
;343DH -  Load the single precision value in FAC1 into BCDE
;         Exit:
;             BCDE - Single precision number from FAC1
;               HL - Destroyed
7763   3416 2A 2C FC    L0147:  LHLD 0FC2CH
7764   3419 EB                  XCHG
7765   341A 2A 2A FC            LHLD 0FC2AH
7766   341D 4D                  MOV C,L
7767   341E 44                  MOV B,H
7768   341F C9                  RET
;3447H -  Load 4 byte single precision buffer pointed to by HL  into 
;        BCDE.
;         Entry:
;               HL - Points to the buffer containing the 4 byte single 
;                    precision number
;         Exit:
;             BCDE - Floating point number that is in the buffer 
;                    pointed to by HL
7769   3420 4E          L1137:  MOV C,M
7770   3421 23                  INX H
7771   3422 46                  MOV B,M
7772   3423 23                  INX H
7773   3424 5E                  MOV E,M
7774   3425 23                  INX H
7775   3426 56                  MOV D,M
7776   3427 23                  INX H
7777   3428 C9                  RET
;3450H -  Load the 4 byte number pointed to by HL into DEBC (note 
;        reverse order!!).
;         Entry:
;               HL - Points to the buffer containing the 4 byte single 
;                    precision number
;         Exit:
;             DEBC - Floating point number that is in the buffer 
;                    pointed to by HL
7778   3429 5E          L0762:  MOV E,M
7779   342A 23                  INX H
7780   342B 56          L0752:  MOV D,M
7781   342C 23                  INX H
7782   342D 4E                  MOV C,M
7783   342E 23                  INX H
7784   342F 46                  MOV B,M
7785   3430 23          L0093:  INX H
7786   3431 C9                  RET
;3459H -  Move the single precision floating point number in FAC1 to 
;        the buffer pointed to by HL.
;         Entry:
;               HL - Points to destination buffer for single precision 
;                    FAC1 (4 bytes)
;         Exit:
;               HL - Incremented past last byte moved
;               DE - Destroyed
;                B - Destroyed
7787   3432 11 2A FC    L1138:  LXI D,0FC2AH
7788   3435 06 04               MVI B,04H
7789   3437 C3 42 34            JMP L0540
;3461H -  Move the buffer pointed to by HL to FAC2.  The number of 
;        bytes transfered depends on the current precision in FB65H.
;         Entry:
;               HL - Points to source buffer for floating point number
;         Exit:
;               HL - Incremented past last byte transfered
;               All other registers destroyed
7790   343A 11 7B FC    L0797:  LXI D,0FC7BH
7791   343D EB                  XCHG
7792   343E 3A 77 FB    L0144:  LDA 0FB77H
7793   3441 47          L0918:  MOV B,A
;3469H -  Move the memory pointed to by DE to the memory pointed to by 
;        HL for B number of bytes.  HL and DE are incremented on each 
;        byte moved.
;         Entry:
;               DE - Points to start of source memory
;               HL - Points to start of destination memory
;                B - Number of bytes to move
;         Exit:
;          HL & DE - Incremented past last byte transfered
;            A & B - Destroyed
7794   3442 1A          L0540:  LDAX D
7795   3443 77                  MOV M,A
7796   3444 13                  INX D
7797   3445 23                  INX H
7798   3446 05                  DCR B
7799   3447 C2 42 34            JNZ L0540
7800   344A C9                  RET
;3472H -  Move the memory pointed to by DE to the memory pointed to by 
;        HL for B number of bytes.  HL and DE are decremented on each 
;        byte moved.
;         Entry:
;               DE - Points to end of source memory
;               HL - Points to end of destination memory
;                B - Number of bytes to move
;         Exit:
;          HL & DE - Decremented past the last byte transfered
;            A & B - Destroyed
7801   344B 1A          L0839:  LDAX D
7802   344C 77                  MOV M,A
7803   344D 1B                  DCX D
7804   344E 2B                  DCX H
7805   344F 05                  DCR B
7806   3450 C2 4B 34            JNZ L0839
7807   3453 C9                  RET
7808   3454 21 7B FC    L0798:  LXI H,0FC7BH
7809   3457 11 3D 34    L0336:  LXI D,343DH
7810   345A C3 63 34            JMP L0921
7811   345D 21 7B FC    L0298:  LXI H,0FC7BH
7812   3460 11 3E 34    L0142:  LXI D,343EH
7813   3463 D5          L0921:  PUSH D
7814   3464 11 2A FC            LXI D,0FC2AH
7815   3467 3A 77 FB            LDA 0FB77H
7816   346A FE 02               CPI 02H
7817   346C C0                  RNZ
7818   346D 11 2C FC            LXI D,0FC2CH
7819   3470 C9                  RET
;3498H -  Compare the single precision number in BCDE with FAC1.
;         Entry:
;             BCDE - First single precision number
;             FAC1 - Second single precision number
;         Exit:
;               HL - Destroyed
;                A = 255 (-1) if BCDE>FAC1
;                    1 if BCDE<FAC1
;                    0 if BCDE=FAC1
;           Z flag - Set if BCDE=FAC1
;           S flag - Set (M) if BCDE>FAC1
7820   3471 79          L0385:  MOV A,C
7821   3472 B7                  ORA A
7822   3473 CA B5 33            JZ L0008
7823   3476 21 C0 33            LXI H,33C0H
7824   3479 E5                  PUSH H
7825   347A F7                  RST 6
7826   347B 79                  MOV A,C
7827   347C C8                  RZ
7828   347D 21 2A FC            LXI H,0FC2AH
7829   3480 AE                  XRA M
7830   3481 79                  MOV A,C
7831   3482 F8                  RM
7832   3483 CD 89 34            CALL L0922
7833   3486 1F                  RAR
7834   3487 A9                  XRA C
7835   3488 C9                  RET
7836   3489 79          L0922:  MOV A,C
7837   348A BE                  CMP M
7838   348B C0                  RNZ
7839   348C 23                  INX H
7840   348D 78                  MOV A,B
7841   348E BE                  CMP M
7842   348F C0                  RNZ
7843   3490 23                  INX H
7844   3491 7B                  MOV A,E
7845   3492 BE                  CMP M
7846   3493 C0                  RNZ
7847   3494 23                  INX H
7848   3495 7A                  MOV A,D
7849   3496 96                  SUB M
7850   3497 C0                  RNZ
7851   3498 E1                  POP H
7852   3499 E1                  POP H
7853   349A C9                  RET
;34C2H -  Compare the signed integer in DE to the signed integer in HL.
;         Entry:
;               HL - First integer to compare
;               DE - Second integer to compare
;         Exit:
;                A = 255 (-1) if DE>HL
;                    1 if DE<HL
;                    0 if DE=HL
;           Z flag - Set if DE=HL
;           S flag - Set (M) if DE>HL
7854   349B 7A          L1141:  MOV A,D
7855   349C AC                  XRA H
7856   349D 7C                  MOV A,H
7857   349E FA C1 33            JM L0919
7858   34A1 BA                  CMP D
7859   34A2 C2 A8 34            JNZ L0923
7860   34A5 7D                  MOV A,L
7861   34A6 93                  SUB E
7862   34A7 C8                  RZ
7863   34A8 C3 C2 33    L0923:  JMP L0745
7864   34AB 11 7B FC    L0906:  LXI D,0FC7BH
7865   34AE 1A                  LDAX D
7866   34AF B7                  ORA A
7867   34B0 CA B5 33            JZ L0008
7868   34B3 21 C0 33            LXI H,33C0H
7869   34B6 E5                  PUSH H
7870   34B7 F7                  RST 6
7871   34B8 1A                  LDAX D
7872   34B9 4F                  MOV C,A
7873   34BA C8                  RZ
7874   34BB 21 2A FC            LXI H,0FC2AH
7875   34BE AE                  XRA M
7876   34BF 79                  MOV A,C
7877   34C0 F8                  RM
7878   34C1 06 08               MVI B,08H
7879   34C3 1A          L0925:  LDAX D
7880   34C4 96                  SUB M
7881   34C5 C2 D0 34            JNZ L0924
7882   34C8 13                  INX D
7883   34C9 23                  INX H
7884   34CA 05                  DCR B
7885   34CB C2 C3 34            JNZ L0925
7886   34CE C1                  POP B
7887   34CF C9                  RET
;
7888   34D0 1F          L0924:  RAR
7889   34D1 A9                  XRA C
7890   34D2 C9                  RET
;
7891   34D3 CD AB 34            CALL L0906
7892   34D6 C2 C0 33            JNZ L0926
7893   34D9 C9                  RET
;3501H -  CINT Function.  Convert floating point number in FAC1 to an
;        integer.
;         Entry:
;             FAC1 - Floating point number to convert
;         Exit:
;               HL - Converted signed integer in FAC1
;             FAC1 - Converted to an integer
7894   34DA EF          L0137:  RST 5
7895   34DB 2A 2C FC            LHLD 0FC2CH
7896   34DE F8                  RM
7897   34DF CA 62 04            JZ L0133
7898   34E2 CD B7 35            CALL L0927
7899   34E5 DA 5C 04            JC L0386
7900   34E8 EB                  XCHG
;3510H -  Load the signed integer in HL into FAC1
;         Entry:
;               HL - Signed integer to put in FAC1
;         Exit:
;                A = 2
7901   34E9 22 2C FC    L0326:  SHLD 0FC2CH
7902   34EC 3E 02       L0977:  MVI A,02H
7903   34EE 32 77 FB    L0942:  STA 0FB77H
7904   34F1 C9                  RET
;
7905   34F2 01 C5 32    L1000:  LXI B,32C5H
7906   34F5 11 76 80            LXI D,8076H
7907   34F8 CD 71 34            CALL L0385
7908   34FB C0                  RNZ
7909   34FC 21 00 80            LXI H,8000H
7910   34FF D1          L0961:  POP D
7911   3500 C3 E9 34            JMP L0326
;352AH -  CSNG Function. Convert the number in FAC1 to a single
;        precision value.
;         Entry:
;             FAC1 - Number to convert
;         Exit:
;             FAC1 - Converted single precision number
7912   3503 EF          L0146:  RST 5
7913   3504 E0                  RPO
7914   3505 FA 19 35            JM L0928
7915   3508 CA 62 04            JZ L0133
7916   350B CD AD 35            CALL L0929
7917   350E CD DD 3C            CALL L0930
7918   3511 23                  INX H
7919   3512 78                  MOV A,B
7920   3513 B7                  ORA A
7921   3514 1F                  RAR
7922   3515 47                  MOV B,A
7923   3516 C3 05 2C            JMP L0931
;3540H -  Convert the signed integer in FAC1 to single precision.
;         Entry:
;             FAC1 - Contains signed integer to convert
;         Exit:
;             FAC1 - Converted single precision number
7931   3540 2A 1A FC    L0940:  LHLD 0FC1AH
;3543H -  Convert the signed integer in HL to a single precision number
;        in FAC1.
;         Entry:
;               HL - Contains signed integer to convert
;         Exit:
;             FAC1 - Converted single precision number
7924   3519 2A 2C FC    L0928:  LHLD 0FC2CH
7925   351C 7C          L0304:  MOV A,H
7926   351D B7          L0976:  ORA A
7927   351E F5                  PUSH PSW
7928   351F FC 9F 37            CM L0932
7929   3522 CD AD 35            CALL L0929
7930   3525 EB                  XCHG
7931   3526 21 00 00            LXI H,0000H
7932   3529 22 2A FC            SHLD 0FC2AH
7933   352C 22 2C FC            SHLD 0FC2CH
7934   352F 7A                  MOV A,D
7935   3530 B3                  ORA E
7936   3531 CA BB 27            JZ L0380
7937   3534 01 00 05            LXI B,0500H
7938   3537 21 2B FC            LXI H,0FC2BH
7939   353A E5                  PUSH H
7940   353B 21 89 35            LXI H,3589H
7941   353E 3E FF       L0939:  MVI A,0FFH
7942   3540 D5                  PUSH D
7943   3541 5E                  MOV E,M
7944   3542 23                  INX H
7945   3543 56                  MOV D,M
7946   3544 23                  INX H
7947   3545 E3                  XTHL
7948   3546 C5                  PUSH B
7949   3547 44          L0933:  MOV B,H
7950   3548 4D                  MOV C,L
7951   3549 19                  DAD D
7952   354A 3C                  INR A
7953   354B DA 47 35            JC L0933
7954   354E 60                  MOV H,B
7955   354F 69                  MOV L,C
7956   3550 C1                  POP B
7957   3551 D1                  POP D
7958   3552 EB                  XCHG
7959   3553 0C                  INR C
7960   3554 0D                  DCR C
7961   3555 C2 64 35            JNZ L0934
7962   3558 B7                  ORA A
7963   3559 CA 7A 35            JZ L0935
7964   355C F5                  PUSH PSW
7965   355D 3E 40               MVI A,40H
7966   355F 80                  ADD B
7967   3560 32 2A FC            STA 0FC2AH
7968   3563 F1                  POP PSW
7969   3564 0C          L0934:  INR C
7970   3565 E3                  XTHL
7971   3566 F5                  PUSH PSW
7972   3567 79                  MOV A,C
7973   3568 1F                  RAR
7974   3569 D2 75 35            JNC L0936
7975   356C F1                  POP PSW
7976   356D 87                  ADD A
7977   356E 87                  ADD A
7978   356F 87                  ADD A
7979   3570 87                  ADD A
7980   3571 77                  MOV M,A
7981   3572 C3 79 35            JMP L0937
7982   3575 F1          L0936:  POP PSW
7983   3576 B6                  ORA M
7984   3577 77                  MOV M,A
7985   3578 23                  INX H
7986   3579 E3          L0937:  XTHL
7987   357A 7A          L0935:  MOV A,D
7988   357B B3                  ORA E
7989   357C CA 83 35            JZ L0938
7990   357F 05                  DCR B
7991   3580 C2 3E 35            JNZ L0939
7992   3583 E1          L0938:  POP H
7993   3584 F1                  POP PSW
7994   3585 F0                  RP
7995   3586 C3 D6 33            JMP L0865
7996   3589 F0                  RP
7997   358A D8                  RC
7998   358B 18                  UNRECOGNIZED
7999   358C FC 9C FF            CM L0940
8000   358F F6 FF               ORI 0FFH
8001   3591 FF                  RST 7
8002   3592 FF                  RST 7
;35BAH -  CDBL function.  Convert the number in FAC1 to a double
;        precision floating point number.
;         Entry:
;             FAC1 - Number to convert to double precision
;         Exit:
;             FAC1 - Converted double precision number
8003   3593 EF          L0141:  RST 5
8004   3594 D0                  RNC
8005   3595 CA 62 04            JZ L0133
8006   3598 FC 19 35            CM L0928
8007   359B 21 00 00    L0891:  LXI H,0000H
8008   359E 22 2E FC            SHLD 0FC2EH
8009   35A1 22 30 FC            SHLD 0FC30H
8010   35A4 7C                  MOV A,H
8011   35A5 32 32 FC            STA 0FC32H
8012   35A8 3E 08       L0898:  MVI A,08H
8013   35AA C3 AF 35            JMP L0941
8014   35AD 3E 04       L0929:  MVI A,04H
8015   35AF C3 EE 34    L0941:  JMP L0942
8016   35B2 EF          L0253:  RST 5
8017   35B3 C8                  RZ
8018   35B4 C3 62 04            JMP L0133
8019   35B7 21 1A 36    L0927:  LXI H,361AH
8020   35BA E5                  PUSH H
8021   35BB 21 2A FC            LXI H,0FC2AH
8022   35BE 7E                  MOV A,M
8023   35BF E6 7F               ANI 7FH
8024   35C1 FE 46               CPI 46H
8025   35C3 D0                  RNC
8026   35C4 D6 41               SUI 41H
8027   35C6 D2 CF 35            JNC L0943
8028   35C9 B7                  ORA A
8029   35CA D1                  POP D
8030   35CB 11 00 00            LXI D,0000H
8031   35CE C9                  RET
;
8032   35CF 3C          L0943:  INR A
8033   35D0 47                  MOV B,A
8034   35D1 11 00 00            LXI D,0000H
8035   35D4 4A                  MOV C,D
8036   35D5 23                  INX H
8037   35D6 79          L0946:  MOV A,C
8038   35D7 0C                  INR C
8039   35D8 1F                  RAR
8040   35D9 7E                  MOV A,M
8041   35DA DA E4 35            JC L0944
8042   35DD 1F                  RAR
8043   35DE 1F                  RAR
8044   35DF 1F                  RAR
8045   35E0 1F                  RAR
8046   35E1 C3 E5 35            JMP L0945
8047   35E4 23          L0944:  INX H
8048   35E5 E6 0F       L0945:  ANI 0FH
8049   35E7 22 24 FC            SHLD 0FC24H
8050   35EA 62                  MOV H,D
8051   35EB 6B                  MOV L,E
8052   35EC 29                  DAD H
8053   35ED D8                  RC
8054   35EE 29                  DAD H
8055   35EF D8                  RC
8056   35F0 19                  DAD D
8057   35F1 D8                  RC
8058   35F2 29                  DAD H
8059   35F3 D8                  RC
8060   35F4 5F                  MOV E,A
8061   35F5 16 00               MVI D,00H
8062   35F7 19                  DAD D
8063   35F8 D8                  RC
8064   35F9 EB                  XCHG
8065   35FA 2A 24 FC            LHLD 0FC24H
8066   35FD 05                  DCR B
8067   35FE C2 D6 35            JNZ L0946
8068   3601 21 00 80            LXI H,8000H
8069   3604 DF                  RST 3
8070   3605 3A 2A FC            LDA 0FC2AH
8071   3608 D8                  RC
8072   3609 CA 16 36            JZ L0947
8073   360C E1                  POP H
8074   360D B7                  ORA A
8075   360E F0                  RP
8076   360F EB                  XCHG
8077   3610 CD 9F 37            CALL L0932
8078   3613 EB                  XCHG
8079   3614 B7                  ORA A
8080   3615 C9                  RET
;
8081   3616 B7          L0947:  ORA A
8082   3617 F0                  RP
8083   3618 E1                  POP H
8084   3619 C9                  RET
;
8085   361A 37                  STC
8086   361B C9                  RET
8087   361C 0B                  DCX B
8088   361D C9                  RET
;
8089   361E EF                  RST 5
8090   361F F8                  RM
8091   3620 F7                  RST 6
8092   3621 F2 2D 36            JP L0869
8093   3624 CD D6 33            CALL L0865
8094   3627 CD 2D 36            CALL L0869
8095   362A C3 CF 33            JMP L0335
;3654H -  INT Function.  Find the integer portion of the floating point
;        number in FAC1.
;         Entry:
;             FAC1 - Floating point number
;         Exit:
;             FAC1 - Integer portion of floating point number
8096   362D EF          L0869:  RST 5
8097   362E F8                  RM
8098   362F 21 32 FC            LXI H,0FC32H
8099   3632 0E 0E               MVI C,0EH
8100   3634 D2 3F 36            JNC L0948
8101   3637 CA 62 04            JZ L0133
8102   363A 21 2E FC            LXI H,0FC2EH
8103   363D 0E 06               MVI C,06H
8104   363F 3A 2A FC    L0948:  LDA 0FC2AH
8105   3642 B7                  ORA A
8106   3643 FA 61 36            JM L0949
8107   3646 E6 7F               ANI 7FH
8108   3648 D6 41               SUI 41H
8109   364A DA C6 33            JC L0809
8110   364D 3C                  INR A
8111   364E 91                  SUB C
8112   364F D0                  RNC
8113   3650 2F                  CMA
8114   3651 3C                  INR A
8115   3652 47                  MOV B,A
8116   3653 2B          L0950:  DCX H
8117   3654 7E                  MOV A,M
8118   3655 E6 F0               ANI 0F0H
8119   3657 77                  MOV M,A
8120   3658 05                  DCR B
8121   3659 C8                  RZ
8122   365A AF                  XRA A
8123   365B 77                  MOV M,A
8124   365C 05                  DCR B
8125   365D C2 53 36            JNZ L0950
8126   3660 C9                  RET
;
8127   3661 E6 7F       L0949:  ANI 7FH
8128   3663 D6 41               SUI 41H
8129   3665 D2 6E 36            JNC L0951
8130   3668 21 FF FF            LXI H,0FFFFH
8131   366B C3 E9 34            JMP L0326
8132   366E 3C          L0951:  INR A
8133   366F 91                  SUB C
8134   3670 D0                  RNC
8135   3671 2F                  CMA
8136   3672 3C                  INR A
8137   3673 47                  MOV B,A
8138   3674 1E 00               MVI E,00H
8139   3676 2B          L0955:  DCX H
8140   3677 7E                  MOV A,M
8141   3678 57                  MOV D,A
8142   3679 E6 F0               ANI 0F0H
8143   367B 77                  MOV M,A
8144   367C BA                  CMP D
8145   367D CA 81 36            JZ L0952
8146   3680 1C                  INR E
8147   3681 05          L0952:  DCR B
8148   3682 CA 90 36            JZ L0953
8149   3685 AF                  XRA A
8150   3686 77                  MOV M,A
8151   3687 BA                  CMP D
8152   3688 CA 8C 36            JZ L0954
8153   368B 1C                  INR E
8154   368C 05          L0954:  DCR B
8155   368D C2 76 36            JNZ L0955
8156   3690 1C          L0953:  INR E
8157   3691 1D                  DCR E
8158   3692 C8                  RZ
8159   3693 79                  MOV A,C
8160   3694 FE 06               CPI 06H
8161   3696 01 C1 10            LXI B,10C1H
8162   3699 11 00 00            LXI D,0000H
8163   369C CA CD 37            JZ L0387
8164   369F EB                  XCHG
8165   36A0 22 81 FC            SHLD 0FC81H
8166   36A3 22 7F FC            SHLD 0FC7FH
8167   36A6 22 7D FC            SHLD 0FC7DH
8168   36A9 60                  MOV H,B
8169   36AA 69                  MOV L,C
8170   36AB 22 7B FC            SHLD 0FC7BH
8171   36AE C3 51 2B            JMP L0892
8172   36B1 E5          L1265:  PUSH H
8173   36B2 21 00 00            LXI H,0000H
8174   36B5 78                  MOV A,B
8175   36B6 B1                  ORA C
8176   36B7 CA CE 36            JZ L0956
8177   36BA 3E 10               MVI A,10H
8178   36BC 29          L0959:  DAD H
8179   36BD DA C4 48            JC L0957
8180   36C0 EB                  XCHG
8181   36C1 29                  DAD H
8182   36C2 EB                  XCHG
8183   36C3 D2 CA 36            JNC L0958
8184   36C6 09                  DAD B
8185   36C7 DA C4 48            JC L0957
8186   36CA 3D          L0958:  DCR A
8187   36CB C2 BC 36            JNZ L0959
8188   36CE EB          L0956:  XCHG
8189   36CF E1                  POP H
8190   36D0 C9                  RET
;36F8H -  Subtract the signed integer in HL from the signed integer in
;        DE.
;         Entry:
;               HL - First number to subtract
;               DE - Second number to subtract
;         Exit:
;             FAC1 - Result of subtract
;               HL - Integer result of subtract
8191   36D1 7C                  MOV A,H
8192   36D2 17                  RAL
8193   36D3 9F                  SBB A
8194   36D4 47                  MOV B,A
8195   36D5 CD 9F 37            CALL L0932
8196   36D8 79                  MOV A,C
8197   36D9 98                  SBB B
8198   36DA C3 E0 36            JMP L0960
;3704H -  Add the signed integer in HL to the signed integer in DE.  If
;        the result is greater than 32767, the result is converted
;        into single precision.
;         Entry:
;               HL - First number to add
;               DE - Second number to add
;         Exit:
;             FAC1 - Result of addition
;               HL - Integer result of addition
8199   36DD 7C          L1140:  MOV A,H
8200   36DE 17                  RAL
8201   36DF 9F                  SBB A
8202   36E0 47          L0960:  MOV B,A
8203   36E1 E5                  PUSH H
8204   36E2 7A                  MOV A,D
8205   36E3 17                  RAL
8206   36E4 9F                  SBB A
8207   36E5 19                  DAD D
8208   36E6 88                  ADC B
8209   36E7 0F                  RRC
8210   36E8 AC                  XRA H
8211   36E9 F2 FF 34            JP L0961
8212   36EC C5                  PUSH B
8213   36ED EB                  XCHG
8214   36EE CD 1C 35            CALL L0304
8215   36F1 F1                  POP PSW
8216   36F2 E1                  POP H
8217   36F3 CD FB 33            CALL L0303
8218   36F6 CD 1C 35            CALL L0304
8219   36F9 C1                  POP B
8220   36FA D1                  POP D
8221   36FB C3 CD 37            JMP L0387
;3725H -  Multiply the signed integer in HL by the signed integer in
;        DE.  If the result is greater than 32767, the result is
;        converted into single precision.
;         Entry:
;               HL - First integer to multiply
;               DE - Second integer to multiply
;         Exit:
;             FAC1 - Result of multiplication
;               HL - Integer result of multiplication
8222   36FE 7C          L1100:  MOV A,H
8223   36FF B5                  ORA L
8224   3700 CA E9 34            JZ L0326
8225   3703 E5                  PUSH H
8226   3704 D5                  PUSH D
8227   3705 CD 93 37            CALL L0962
8228   3708 C5                  PUSH B
8229   3709 44                  MOV B,H
8230   370A 4D                  MOV C,L
8231   370B 21 00 00            LXI H,0000H
8232   370E 3E 10               MVI A,10H
8233   3710 29          L0965:  DAD H
8234   3711 DA 38 37            JC L0963
8235   3714 EB                  XCHG
8236   3715 29                  DAD H
8237   3716 EB                  XCHG
8238   3717 D2 1E 37            JNC L0964
8239   371A 09                  DAD B
8240   371B DA 38 37            JC L0963
8241   371E 3D          L0964:  DCR A
8242   371F C2 10 37            JNZ L0965
8243   3722 C1                  POP B
8244   3723 D1                  POP D
8245   3724 7C          L0974:  MOV A,H
8246   3725 B7                  ORA A
8247   3726 FA 2E 37            JM L0966
8248   3729 D1                  POP D
8249   372A 78                  MOV A,B
8250   372B C3 9B 37            JMP L0967
8251   372E EE 80       L0966:  XRI 80H
8252   3730 B5                  ORA L
8253   3731 CA 49 37            JZ L0968
8254   3734 EB                  XCHG
8255   3735 C3 3A 37            JMP L0969
8256   3738 C1          L0963:  POP B
8257   3739 E1                  POP H
8258   373A CD 1C 35    L0969:  CALL L0304
8259   373D E1                  POP H
8260   373E CD FB 33            CALL L0303
8261   3741 CD 1C 35            CALL L0304
8262   3744 C1                  POP B
8263   3745 D1                  POP D
8264   3746 C3 DC 37            JMP L0970
8265   3749 78          L0968:  MOV A,B
8266   374A B7                  ORA A
8267   374B C1                  POP B
8268   374C FA E9 34            JM L0326
8269   374F D5                  PUSH D
8270   3750 CD 1C 35            CALL L0304
8271   3753 D1                  POP D
8272   3754 C3 D6 33            JMP L0865
;377EH -  Divide the signed integer in DE by the signed integer in HL.
;         Entry:
;               HL - Integer Numerator
;               DE - Integer Denominator
;         Exit:
;             FAC1 - Result of division
8273   3757 7C          L0345:  MOV A,H
8274   3758 B5                  ORA L
8275   3759 CA 50 04            JZ L0843
8276   375C CD 93 37            CALL L0962
8277   375F C5                  PUSH B
8278   3760 EB                  XCHG
8279   3761 CD 9F 37            CALL L0932
8280   3764 44                  MOV B,H
8281   3765 4D                  MOV C,L
8282   3766 21 00 00            LXI H,0000H
8283   3769 3E 11               MVI A,11H
8284   376B F5                  PUSH PSW
8285   376C B7                  ORA A
8286   376D C3 7C 37            JMP L0971
8287   3770 F5          L0973:  PUSH PSW
8288   3771 E5                  PUSH H
8289   3772 09                  DAD B
8290   3773 D2 7B 37            JNC L0972
8291   3776 F1                  POP PSW
8292   3777 37                  STC
8293   3778 C3 7C 37            JMP L0971
8294   377B E1          L0972:  POP H
8295   377C 7B          L0971:  MOV A,E
8296   377D 17                  RAL
8297   377E 5F                  MOV E,A
8298   377F 7A                  MOV A,D
8299   3780 17                  RAL
8300   3781 57                  MOV D,A
8301   3782 7D                  MOV A,L
8302   3783 17                  RAL
8303   3784 6F                  MOV L,A
8304   3785 7C                  MOV A,H
8305   3786 17                  RAL
8306   3787 67                  MOV H,A
8307   3788 F1                  POP PSW
8308   3789 3D                  DCR A
8309   378A C2 70 37            JNZ L0973
8310   378D EB                  XCHG
8311   378E C1                  POP B
8312   378F D5                  PUSH D
8313   3790 C3 24 37            JMP L0974
8314   3793 7C          L0962:  MOV A,H
8315   3794 AA                  XRA D
8316   3795 47                  MOV B,A
8317   3796 CD 9A 37            CALL L0975
8318   3799 EB                  XCHG
8319   379A 7C          L0975:  MOV A,H
8320   379B B7          L0967:  ORA A
8321   379C F2 E9 34            JP L0326
8322   379F AF          L0932:  XRA A
8323   37A0 4F                  MOV C,A
8324   37A1 95                  SUB L
8325   37A2 6F                  MOV L,A
8326   37A3 79                  MOV A,C
8327   37A4 9C                  SBB H
8328   37A5 67                  MOV H,A
8329   37A6 C3 E9 34            JMP L0326
8330   37A9 2A 2C FC    L0920:  LHLD 0FC2CH
8331   37AC CD 9F 37            CALL L0932
8332   37AF 7C                  MOV A,H
8333   37B0 EE 80               XRI 80H
8334   37B2 B5                  ORA L
8335   37B3 C0                  RNZ
8336   37B4 AF          L0315:  XRA A
8337   37B5 C3 1D 35            JMP L0976
8338   37B8 D5          L0344:  PUSH D
8339   37B9 CD 57 37            CALL L0345
8340   37BC AF                  XRA A
8341   37BD 82                  ADD D
8342   37BE 1F                  RAR
8343   37BF 67                  MOV H,A
8344   37C0 7B                  MOV A,E
8345   37C1 1F                  RAR
8346   37C2 6F                  MOV L,A
8347   37C3 CD EC 34            CALL L0977
8348   37C6 F1                  POP PSW
8349   37C7 C3 9B 37            JMP L0967
8350   37CA CD 29 34            CALL L0762
;37F4H -  Add the single precision numbers in FAC1 and BCDE
;        (FAC1=FAC1+BCDE)
;         Entry:
;             FAC1 - First single precision number
;             BCDE - Second single precision number
;         Exit:
;             FAC1 - Result of single precision addition
8351   37CD CD 00 38    L0387:  CALL L0978
;37F7H -  Add the single precision numbers in FAC1 and FAC2
;        (FAC1=FAC1+FAC2).
;         Entry:
;             FAC1 - First single precision number
;             FAC2 - Second single precision number
;         Exit:
;             FAC1 - Result of single precision addition
8352   37D0 CD 9B 35            CALL L0891
8353   37D3 C3 51 2B            JMP L0892
;37FDH -  Subtract the single precision numbers in FAC1 and BCDE
;        (FAC1=FAC1-BCDE)
;         Entry:
;             FAC1 - First single precision number
;             BCDE - Second single precision number
;         Exit:
;             FAC1 - Result of subtract
8354   37D6 CD D6 33            CALL L0865
8355   37D9 C3 CD 37            JMP L0387
;3803H -  Multiply the single precision numbers in FAC1 and BCDE
;        (FAC1=FAC1*BCDE)
;         Entry:
;             FAC1 - First single precision number
;             BCDE - Second single precision number
;         Exit:
;             FAC1 - Result of multiply
8356   37DC CD 00 38    L0970:  CALL L0978
;3806H -  Multiply the single precision numbers in FAC1 and FAC2
;        (FAC1=FAC1*FAC2)
;         Entry:
;             FAC1 - First single precision number
;             FAC2 - Second single precision number
;         Exit:
;             FAC1 - Result of multiply
8357   37DF CD 9B 35            CALL L0891
8358   37E2 C3 D8 2C            JMP L0890
8359   37E5 C1          L0306:  POP B
8360   37E6 D1                  POP D
;380EH -  Single precision divide (FAC1=BCDE/FAC1)
;         Entry:
;             BCDE - Single precision numerator
;             FAC1 - Single precision denominator
;         Exit:
;             FAC1 - Result of divide
8361   37E7 2A 2C FC            LHLD 0FC2CH
8362   37EA EB                  XCHG
8363   37EB 22 2C FC            SHLD 0FC2CH
8364   37EE C5                  PUSH B
8365   37EF 2A 2A FC            LHLD 0FC2AH
8366   37F2 E3                  XTHL
8367   37F3 22 2A FC            SHLD 0FC2AH
8368   37F6 C1                  POP B
8369   37F7 CD 00 38            CALL L0978
8370   37FA CD 9B 35            CALL L0891
8371   37FD C3 A0 2D            JMP L0882
;3827H -  Load FAC2 with the single precision number in BCDE.
;         Entry:
;             BCDE - Single precision number
;         Exit:
;             FAC2 - Copy of single precision number
;               HL - Destroyed
8372   3800 EB          L0978:  XCHG
8373   3801 22 7D FC            SHLD 0FC7DH
8374   3804 60                  MOV H,B
8375   3805 69                  MOV L,C
8376   3806 22 7B FC            SHLD 0FC7BH
8377   3809 21 00 00            LXI H,0000H
8378   380C 22 7F FC            SHLD 0FC7FH
8379   380F 22 81 FC            SHLD 0FC81H
8380   3812 C9                  RET
;
8381   3813 3D          L1049:  DCR A
8382   3814 C9                  RET
;
8383   3815 2B          L1033:  DCX H
8384   3816 C9                  RET
;
8385   3817 E1          L1262:  POP H
8386   3818 C9                  RET
;3840H -  Convert the ASCII number pointed to by HL to its double
;        precision equivalent.
;         Entry:
;               HL - Points to buffer with ASCII number
;         Exit:
;             FAC1 - Value of ASCII number
;               All registers destroyed
8387   3819 EB          L0272:  XCHG
8388   381A 01 FF 00            LXI B,00FFH
8389   381D 60                  MOV H,B
8390   381E 68                  MOV L,B
8391   381F CD E9 34            CALL L0326
8392   3822 EB                  XCHG
8393   3823 7E                  MOV A,M
8394   3824 FE 2D               CPI 2DH
8395   3826 F5                  PUSH PSW
8396   3827 CA 30 38            JZ L0979
8397   382A FE 2B               CPI 2BH
8398   382C CA 30 38            JZ L0979
8399   382F 2B                  DCX H
8400   3830 D7          L0979:  RST 2
8401   3831 DA 19 39            JC L0980
8402   3834 FE 2E               CPI 2EH
8403   3836 CA DD 38            JZ L0981
8404   3839 FE 65               CPI 65H
8405   383B CA 40 38            JZ L0982
8406   383E FE 45               CPI 45H
8407   3840 C2 63 38    L0982:  JNZ L0983
8408   3843 E5                  PUSH H
8409   3844 D7                  RST 2
8410   3845 FE 6C               CPI 6CH
8411   3847 CA 56 38            JZ L0984
8412   384A FE 4C               CPI 4CH
8413   384C CA 56 38            JZ L0984
8414   384F FE 71               CPI 71H
8415   3851 CA 56 38            JZ L0984
8416   3854 FE 51               CPI 51H
8417   3856 E1          L0984:  POP H
8418   3857 CA 62 38            JZ L0985
8419   385A EF                  RST 5
8420   385B D2 7C 38            JNC L0986
8421   385E AF                  XRA A
8422   385F C3 7D 38            JMP L0987
8423   3862 7E          L0985:  MOV A,M
8424   3863 FE 25       L0983:  CPI 25H
8425   3865 CA F3 38            JZ L0988
8426   3868 FE 23               CPI 23H
8427   386A CA 02 39            JZ L0989
8428   386D FE 21               CPI 21H
8429   386F CA 03 39            JZ L0990
8430   3872 FE 64               CPI 64H
8431   3874 CA 7C 38            JZ L0986
8432   3877 FE 44               CPI 44H
8433   3879 C2 AA 38            JNZ L0991
8434   387C B7          L0986:  ORA A
8435   387D CD 0A 39    L0987:  CALL L0992
8436   3880 D7                  RST 2
8437   3881 D5                  PUSH D
8438   3882 16 00               MVI D,00H
8439   3884 CD 3E 10            CALL L0993
8440   3887 4A                  MOV C,D
8441   3888 D1                  POP D
8442   3889 D7          L0996:  RST 2
8443   388A D2 A3 38            JNC L0994
8444   388D 7B                  MOV A,E
8445   388E FE 0C               CPI 0CH
8446   3890 D2 9E 38            JNC L0995
8447   3893 07                  RLC
8448   3894 07                  RLC
8449   3895 83                  ADD E
8450   3896 07                  RLC
8451   3897 86                  ADD M
8452   3898 D6 30               SUI 30H
8453   389A 5F                  MOV E,A
8454   389B C3 89 38            JMP L0996
8455   389E 1E 80       L0995:  MVI E,80H
8456   38A0 C3 89 38            JMP L0996
8457   38A3 0C          L0994:  INR C
8458   38A4 C2 AA 38            JNZ L0991
8459   38A7 AF                  XRA A
8460   38A8 93                  SUB E
8461   38A9 5F                  MOV E,A
8462   38AA EF          L0991:  RST 5
8463   38AB FA C1 38            JM L0997
8464   38AE 3A 2A FC            LDA 0FC2AH
8465   38B1 B7                  ORA A
8466   38B2 CA C1 38            JZ L0997
8467   38B5 7A                  MOV A,D
8468   38B6 90                  SUB B
8469   38B7 83                  ADD E
8470   38B8 C6 40               ADI 40H
8471   38BA 32 2A FC            STA 0FC2AH
8472   38BD B7                  ORA A
8473   38BE FC DA 38            CM L0998
8474   38C1 F1          L0997:  POP PSW
8475   38C2 E5                  PUSH H
8476   38C3 CC CF 33            CZ L0335
8477   38C6 EF                  RST 5
8478   38C7 D2 D5 38            JNC L0999
8479   38CA E1                  POP H
8480   38CB E8                  RPE
8481   38CC E5                  PUSH H
8482   38CD 21 17 38            LXI H,3817H
8483   38D0 E5                  PUSH H
8484   38D1 CD F2 34            CALL L1000
8485   38D4 C9                  RET
8486   38D5 CD 00 2C    L0999:  CALL L0804
8487   38D8 E1                  POP H
8488   38D9 C9                  RET
;
8489   38DA C3 5C 04    L0998:  JMP L0386
8490   38DD EF          L0981:  RST 5
8491   38DE 0C                  INR C
8492   38DF C2 AA 38            JNZ L0991
8493   38E2 D2 F0 38            JNC L1001
8494   38E5 CD 0A 39            CALL L0992
8495   38E8 3A 2A FC            LDA 0FC2AH
8496   38EB B7                  ORA A
8497   38EC C2 F0 38            JNZ L1001
8498   38EF 57                  MOV D,A
8499   38F0 C3 30 38    L1001:  JMP L0979
8500   38F3 D7          L0988:  RST 2
8501   38F4 F1                  POP PSW
8502   38F5 E5                  PUSH H
8503   38F6 21 17 38            LXI H,3817H
8504   38F9 E5                  PUSH H
8505   38FA 21 DA 34            LXI H,34DAH
8506   38FD E5                  PUSH H
8507   38FE F5                  PUSH PSW
8508   38FF C3 AA 38            JMP L0991
8509   3902 B7          L0989:  ORA A
8510   3903 CD 0A 39    L0990:  CALL L0992
8511   3906 D7                  RST 2
8512   3907 C3 AA 38            JMP L0991
8513   390A E5          L0992:  PUSH H
8514   390B D5                  PUSH D
8515   390C C5                  PUSH B
8516   390D F5                  PUSH PSW
8517   390E CC 03 35            CZ L0146
8518   3911 F1                  POP PSW
8519   3912 C4 93 35            CNZ L0141
8520   3915 C1                  POP B
8521   3916 D1                  POP D
8522   3917 E1                  POP H
8523   3918 C9                  RET
;
8524   3919 D6 30       L0980:  SUI 30H
8525   391B C2 26 39            JNZ L1002
8526   391E B1                  ORA C
8527   391F CA 26 39            JZ L1002
8528   3922 A2                  ANA D
8529   3923 CA 30 38            JZ L0979
8530   3926 14          L1002:  INR D
8531   3927 7A                  MOV A,D
8532   3928 FE 07               CPI 07H
8533   392A C2 31 39            JNZ L1003
8534   392D B7                  ORA A
8535   392E CD 0A 39            CALL L0992
8536   3931 D5          L1003:  PUSH D
8537   3932 78                  MOV A,B
8538   3933 81                  ADD C
8539   3934 3C                  INR A
8540   3935 47                  MOV B,A
8541   3936 C5                  PUSH B
8542   3937 E5                  PUSH H
8543   3938 7E                  MOV A,M
8544   3939 D6 30               SUI 30H
8545   393B F5                  PUSH PSW
8546   393C EF                  RST 5
8547   393D F2 66 39            JP L1004
8548   3940 2A 2C FC            LHLD 0FC2CH
8549   3943 11 CD 0C            LXI D,0CCDH
8550   3946 DF                  RST 3
8551   3947 D2 63 39            JNC L1005
8552   394A 54                  MOV D,H
8553   394B 5D                  MOV E,L
8554   394C 29                  DAD H
8555   394D 29                  DAD H
8556   394E 19                  DAD D
8557   394F 29                  DAD H
8558   3950 F1                  POP PSW
8559   3951 4F                  MOV C,A
8560   3952 09                  DAD B
8561   3953 7C                  MOV A,H
8562   3954 B7                  ORA A
8563   3955 FA 61 39            JM L1006
8564   3958 22 2C FC            SHLD 0FC2CH
8565   395B E1          L1009:  POP H
8566   395C C1                  POP B
8567   395D D1                  POP D
8568   395E C3 30 38            JMP L0979
8569   3961 79          L1006:  MOV A,C
8570   3962 F5                  PUSH PSW
8571   3963 CD 19 35    L1005:  CALL L0928
8572   3966 F1          L1004:  POP PSW
8573   3967 E1                  POP H
8574   3968 C1                  POP B
8575   3969 D1                  POP D
8576   396A C2 7A 39            JNZ L1007
8577   396D 3A 2A FC            LDA 0FC2AH
8578   3970 B7                  ORA A
8579   3971 3E 00               MVI A,00H
8580   3973 C2 7A 39            JNZ L1007
8581   3976 57                  MOV D,A
8582   3977 C3 30 38            JMP L0979
8583   397A D5          L1007:  PUSH D
8584   397B C5                  PUSH B
8585   397C E5                  PUSH H
8586   397D F5                  PUSH PSW
8587   397E 21 2A FC            LXI H,0FC2AH
8588   3981 36 01               MVI M,01H
8589   3983 7A                  MOV A,D
8590   3984 FE 10               CPI 10H
8591   3986 DA 8D 39            JC L1008
8592   3989 F1                  POP PSW
8593   398A C3 5B 39            JMP L1009
8594   398D 3C          L1008:  INR A
8595   398E B7                  ORA A
8596   398F 1F                  RAR
8597   3990 06 00               MVI B,00H
8598   3992 4F                  MOV C,A
8599   3993 09                  DAD B
8600   3994 F1                  POP PSW
8601   3995 4F                  MOV C,A
8602   3996 7A                  MOV A,D
8603   3997 1F                  RAR
8604   3998 79                  MOV A,C
8605   3999 D2 A0 39            JNC L1010
8606   399C 87                  ADD A
8607   399D 87                  ADD A
8608   399E 87                  ADD A
8609   399F 87                  ADD A
8610   39A0 B6          L1010:  ORA M
8611   39A1 77                  MOV M,A
8612   39A2 C3 5B 39            JMP L1009
8613   39A5 E5          L0085:  PUSH H
8614   39A6 21 F8 03            LXI H,03F8H
8615   39A9 CD 8A 27            CALL L0084
8616   39AC E1                  POP H
;39D4H -  Print HL in ASCII form at the current cursor position
;         Entry:
;               HL - Contains 16 bit binary number to print
;         Exit:
;               All registers destroyed
8617   39AD 01 89 27    L0360:  LXI B,2789H
8618   39B0 C5                  PUSH B
8619   39B1 CD E9 34            CALL L0326
8620   39B4 AF                  XRA A
8621   39B5 32 A0 FB            STA 0FBA0H
8622   39B8 21 FA FB            LXI H,0FBFAH
8623   39BB 36 20               MVI M,20H
8624   39BD B6                  ORA M
8625   39BE C3 DE 39            JMP L1011
;39E8H -  Convert the binary number in FAC1 to ASCII
;         Entry:
;               HL - Points to the start of the buffer where the ASCII
;                    number will be stored
;             FAC1 - Binary Number
;         Exit:
;               All registers destroyed
8626   39C1 AF          L0233:  XRA A
8627   39C2 CD EA 3C    L1296:  CALL L1012
;39ECH -  Convert the binary number in FAC1 to ASCII.  This routine
;        will format the ASCII output with the same parameters offered
;        by BASIC's PRINT USING statement.
;         Entry:
;                A - Bit configuration for PRINT USING options
;                    Bit:
;                        0 - Exponential notation
;                        1 - Not used (reset)
;                        2 - Sign (+ or -) follows ASCII number
;                        3 - Sign (+ or -) preceeds number
;                        4 - Print leading '$'
;                        5 - Asterisks fill
;                        6 - Print commas every third digit
;                        7 - Set, allow print using formating
;                            Reset, do no formating on number
;                B - Number of digits to the left of the decimal
;                    point.  This value is used for placeholder filling
;                C - Number of digits to the right of the decimal
;                    point.   This value is used for placeholder
;                    filling
;               HL - Start of receiving buffer for ASCII number
;             FAC1 - Binary number to convert
;         Exit:
;               All registers destroyed
8628   39C5 E6 08               ANI 08H
8629   39C7 CA CC 39            JZ L1013
8630   39CA 36 2B               MVI M,2BH
8631   39CC EB          L1013:  XCHG
8632   39CD CD EA 33            CALL L0217
8633   39D0 EB                  XCHG
8634   39D1 F2 DE 39            JP L1011
8635   39D4 36 2D               MVI M,2DH
8636   39D6 C5                  PUSH B
8637   39D7 E5                  PUSH H
8638   39D8 CD CF 33            CALL L0335
8639   39DB E1                  POP H
8640   39DC C1                  POP B
8641   39DD B4                  ORA H
8642   39DE 23          L1011:  INX H
8643   39DF 36 30               MVI M,30H
8644   39E1 3A A0 FB            LDA 0FBA0H
8645   39E4 57                  MOV D,A
8646   39E5 17                  RAL
8647   39E6 3A 77 FB            LDA 0FB77H
8648   39E9 DA A3 3A            JC L1014
8649   39EC CA 9B 3A            JZ L1015
8650   39EF FE 04               CPI 04H
8651   39F1 D2 48 3A            JNC L1016
8652   39F4 01 00 00            LXI B,0000H
8653   39F7 CD 9C 3C            CALL L1017
8654   39FA 21 FA FB    L1034:  LXI H,0FBFAH
8655   39FD 46                  MOV B,M
8656   39FE 0E 20               MVI C,20H
8657   3A00 3A A0 FB            LDA 0FBA0H
8658   3A03 5F                  MOV E,A
8659   3A04 E6 20               ANI 20H
8660   3A06 CA 17 3A            JZ L1018
8661   3A09 78                  MOV A,B
8662   3A0A B9                  CMP C
8663   3A0B 0E 2A               MVI C,2AH
8664   3A0D C2 17 3A            JNZ L1018
8665   3A10 7B                  MOV A,E
8666   3A11 E6 04               ANI 04H
8667   3A13 C2 17 3A            JNZ L1018
8668   3A16 41                  MOV B,C
8669   3A17 71          L1018:  MOV M,C
8670   3A18 D7                  RST 2
8671   3A19 CA 35 3A            JZ L1019
8672   3A1C FE 45               CPI 45H
8673   3A1E CA 35 3A            JZ L1019
8674   3A21 FE 44               CPI 44H
8675   3A23 CA 35 3A            JZ L1019
8676   3A26 FE 30               CPI 30H
8677   3A28 CA 17 3A            JZ L1018
8678   3A2B FE 2C               CPI 2CH
8679   3A2D CA 17 3A            JZ L1018
8680   3A30 FE 2E               CPI 2EH
8681   3A32 C2 38 3A            JNZ L1020
8682   3A35 2B          L1019:  DCX H
8683   3A36 36 30               MVI M,30H
8684   3A38 7B          L1020:  MOV A,E
8685   3A39 E6 10               ANI 10H
8686   3A3B CA 41 3A            JZ L1021
8687   3A3E 2B                  DCX H
8688   3A3F 36 24               MVI M,24H
8689   3A41 7B          L1021:  MOV A,E
8690   3A42 E6 04               ANI 04H
8691   3A44 C0                  RNZ
8692   3A45 2B                  DCX H
8693   3A46 70                  MOV M,B
8694   3A47 C9                  RET
;
8695   3A48 E5          L1016:  PUSH H
8696   3A49 CD DD 3C            CALL L0930
8697   3A4C 50                  MOV D,B
8698   3A4D 14                  INR D
8699   3A4E 01 00 03            LXI B,0300H
8700   3A51 3A 2A FC            LDA 0FC2AH
8701   3A54 D6 3F               SUI 3FH
8702   3A56 DA 62 3A            JC L1022
8703   3A59 14                  INR D
8704   3A5A BA                  CMP D
8705   3A5B D2 62 3A            JNC L1022
8706   3A5E 3C                  INR A
8707   3A5F 47                  MOV B,A
8708   3A60 3E 02               MVI A,02H
8709   3A62 D6 02       L1022:  SUI 02H
8710   3A64 E1                  POP H
8711   3A65 F5                  PUSH PSW
8712   3A66 CD 49 3C            CALL L1023
8713   3A69 36 30               MVI M,30H
8714   3A6B CC 30 34            CZ L0093
8715   3A6E CD 70 3C            CALL L1024
8716   3A71 2B          L1025:  DCX H
8717   3A72 7E                  MOV A,M
8718   3A73 FE 30               CPI 30H
8719   3A75 CA 71 3A            JZ L1025
8720   3A78 FE 2E               CPI 2EH
8721   3A7A C4 30 34            CNZ L0093
8722   3A7D F1                  POP PSW
8723   3A7E CA 9C 3A            JZ L1026
8724   3A81 36 45       L1062:  MVI M,45H
8725   3A83 23                  INX H
8726   3A84 36 2B               MVI M,2BH
8727   3A86 F2 8D 3A            JP L1027
8728   3A89 36 2D               MVI M,2DH
8729   3A8B 2F                  CMA
8730   3A8C 3C                  INR A
8731   3A8D 06 2F       L1027:  MVI B,2FH
8732   3A8F 04          L1028:  INR B
8733   3A90 D6 0A               SUI 0AH
8734   3A92 D2 8F 3A            JNC L1028
8735   3A95 C6 3A               ADI 3AH
8736   3A97 23                  INX H
8737   3A98 70                  MOV M,B
8738   3A99 23                  INX H
8739   3A9A 77                  MOV M,A
8740   3A9B 23          L1015:  INX H
8741   3A9C 36 00       L1026:  MVI M,00H
8742   3A9E EB                  XCHG
8743   3A9F 21 FA FB            LXI H,0FBFAH
8744   3AA2 C9                  RET
;
8745   3AA3 23          L1014:  INX H
8746   3AA4 C5                  PUSH B
8747   3AA5 FE 04               CPI 04H
8748   3AA7 7A                  MOV A,D
8749   3AA8 D2 1B 3B            JNC L1029
8750   3AAB 1F                  RAR
8751   3AAC DA A5 3B            JC L1030
8752   3AAF 01 03 06            LXI B,0603H
8753   3AB2 CD 41 3C            CALL L1031
8754   3AB5 D1                  POP D
8755   3AB6 7A                  MOV A,D
8756   3AB7 D6 05               SUI 05H
8757   3AB9 F4 1D 3C            CP L1032
8758   3ABC CD 9C 3C            CALL L1017
8759   3ABF 7B          L1048:  MOV A,E
8760   3AC0 B7                  ORA A
8761   3AC1 CC 15 38            CZ L1033
8762   3AC4 3D                  DCR A
8763   3AC5 F4 1D 3C            CP L1032
8764   3AC8 E5          L1056:  PUSH H
8765   3AC9 CD FA 39            CALL L1034
8766   3ACC E1                  POP H
8767   3ACD CA D2 3A            JZ L1035
8768   3AD0 70                  MOV M,B
8769   3AD1 23                  INX H
8770   3AD2 36 00       L1035:  MVI M,00H
8771   3AD4 21 F9 FB            LXI H,0FBF9H
8772   3AD7 23          L1036:  INX H
8773   3AD8 3A BA FB    L1040:  LDA 0FBBAH
8774   3ADB 95                  SUB L
8775   3ADC 92                  SUB D
8776   3ADD C8                  RZ
8777   3ADE 7E                  MOV A,M
8778   3ADF FE 20               CPI 20H
8779   3AE1 CA D7 3A            JZ L1036
8780   3AE4 FE 2A               CPI 2AH
8781   3AE6 CA D7 3A            JZ L1036
8782   3AE9 2B                  DCX H
8783   3AEA E5                  PUSH H
8784   3AEB F5                  PUSH PSW
8785   3AEC 01 EB 3A            LXI B,3AEBH
8786   3AEF C5                  PUSH B
8787   3AF0 D7                  RST 2
8788   3AF1 FE 2D               CPI 2DH
8789   3AF3 C8                  RZ
8790   3AF4 FE 2B               CPI 2BH
8791   3AF6 C8                  RZ
8792   3AF7 FE 24               CPI 24H
8793   3AF9 C8                  RZ
8794   3AFA C1                  POP B
8795   3AFB FE 30               CPI 30H
8796   3AFD C2 13 3B            JNZ L1037
8797   3B00 23                  INX H
8798   3B01 D7                  RST 2
8799   3B02 D2 13 3B            JNC L1037
8800   3B05 2B                  DCX H
8801   3B06 C3 0B 3B            JMP L1038
8802   3B09 2B          L1039:  DCX H
8803   3B0A 77                  MOV M,A
8804   3B0B F1          L1038:  POP PSW
8805   3B0C CA 09 3B            JZ L1039
8806   3B0F C1                  POP B
8807   3B10 C3 D8 3A            JMP L1040
8808   3B13 F1          L1037:  POP PSW
8809   3B14 CA 13 3B            JZ L1037
8810   3B17 E1                  POP H
8811   3B18 36 25               MVI M,25H
8812   3B1A C9                  RET
;
8813   3B1B E5          L1029:  PUSH H
8814   3B1C 1F                  RAR
8815   3B1D DA AB 3B            JC L1041
8816   3B20 CD DD 3C            CALL L0930
8817   3B23 50                  MOV D,B
8818   3B24 3A 2A FC            LDA 0FC2AH
8819   3B27 D6 4F               SUI 4FH
8820   3B29 DA 37 3B            JC L1042
8821   3B2C E1                  POP H
8822   3B2D C1                  POP B
8823   3B2E CD C1 39            CALL L0233
8824   3B31 21 F9 FB            LXI H,0FBF9H
8825   3B34 36 25               MVI M,25H
8826   3B36 C9                  RET
;
8827   3B37 F7          L1042:  RST 6
8828   3B38 C4 2E 3D            CNZ L1043
8829   3B3B E1                  POP H
8830   3B3C C1                  POP B
8831   3B3D FA 5A 3B            JM L1044
8832   3B40 C5                  PUSH B
8833   3B41 5F                  MOV E,A
8834   3B42 78                  MOV A,B
8835   3B43 92                  SUB D
8836   3B44 93                  SUB E
8837   3B45 F4 1D 3C            CP L1032
8838   3B48 CD 34 3C            CALL L1045
8839   3B4B CD 70 3C            CALL L1024
8840   3B4E B3                  ORA E
8841   3B4F C4 2D 3C            CNZ L1046
8842   3B52 B3                  ORA E
8843   3B53 C4 5C 3C            CNZ L1047
8844   3B56 D1                  POP D
8845   3B57 C3 BF 3A            JMP L1048
8846   3B5A 5F          L1044:  MOV E,A
8847   3B5B 79                  MOV A,C
8848   3B5C B7                  ORA A
8849   3B5D C4 13 38            CNZ L1049
8850   3B60 83                  ADD E
8851   3B61 FA 65 3B            JM L1050
8852   3B64 AF                  XRA A
8853   3B65 C5          L1050:  PUSH B
8854   3B66 F5                  PUSH PSW
8855   3B67 FC 06 3D            CM L1051
8856   3B6A C1                  POP B
8857   3B6B 7B                  MOV A,E
8858   3B6C 90                  SUB B
8859   3B6D C1                  POP B
8860   3B6E 5F                  MOV E,A
8861   3B6F 82                  ADD D
8862   3B70 78                  MOV A,B
8863   3B71 FA 80 3B            JM L1052
8864   3B74 92                  SUB D
8865   3B75 93                  SUB E
8866   3B76 F4 1D 3C            CP L1032
8867   3B79 C5                  PUSH B
8868   3B7A CD 34 3C            CALL L1045
8869   3B7D C3 91 3B            JMP L1053
8870   3B80 CD 1D 3C    L1052:  CALL L1032
8871   3B83 79                  MOV A,C
8872   3B84 CD 60 3C            CALL L1054
8873   3B87 4F                  MOV C,A
8874   3B88 AF                  XRA A
8875   3B89 92                  SUB D
8876   3B8A 93                  SUB E
8877   3B8B CD 1D 3C            CALL L1032
8878   3B8E C5                  PUSH B
8879   3B8F 47                  MOV B,A
8880   3B90 4F                  MOV C,A
8881   3B91 CD 70 3C    L1053:  CALL L1024
8882   3B94 C1                  POP B
8883   3B95 B1                  ORA C
8884   3B96 C2 9C 3B            JNZ L1055
8885   3B99 2A BA FB            LHLD 0FBBAH
8886   3B9C 83          L1055:  ADD E
8887   3B9D 3D                  DCR A
8888   3B9E F4 1D 3C            CP L1032
8889   3BA1 50                  MOV D,B
8890   3BA2 C3 C8 3A            JMP L1056
8891   3BA5 E5          L1030:  PUSH H
8892   3BA6 D5                  PUSH D
8893   3BA7 CD 19 35            CALL L0928
8894   3BAA D1                  POP D
8895   3BAB CD DD 3C    L1041:  CALL L0930
8896   3BAE 58                  MOV E,B
8897   3BAF F7                  RST 6
8898   3BB0 F5                  PUSH PSW
8899   3BB1 C4 2E 3D            CNZ L1043
8900   3BB4 F1                  POP PSW
8901   3BB5 E1                  POP H
8902   3BB6 C1                  POP B
8903   3BB7 F5                  PUSH PSW
8904   3BB8 79                  MOV A,C
8905   3BB9 B7                  ORA A
8906   3BBA F5                  PUSH PSW
8907   3BBB C4 13 38            CNZ L1049
8908   3BBE 80                  ADD B
8909   3BBF 4F                  MOV C,A
8910   3BC0 7A                  MOV A,D
8911   3BC1 E6 04               ANI 04H
8912   3BC3 FE 01               CPI 01H
8913   3BC5 9F                  SBB A
8914   3BC6 57                  MOV D,A
8915   3BC7 81                  ADD C
8916   3BC8 4F                  MOV C,A
8917   3BC9 93                  SUB E
8918   3BCA F5                  PUSH PSW
8919   3BCB F2 DD 3B            JP L1057
8920   3BCE CD 06 3D            CALL L1051
8921   3BD1 C2 DD 3B            JNZ L1057
8922   3BD4 E5                  PUSH H
8923   3BD5 CD CB 2C            CALL L0805
8924   3BD8 21 2A FC            LXI H,0FC2AH
8925   3BDB 34                  INR M
8926   3BDC E1                  POP H
8927   3BDD F1          L1057:  POP PSW
8928   3BDE C5                  PUSH B
8929   3BDF F5                  PUSH PSW
8930   3BE0 FA E4 3B            JM L1058
8931   3BE3 AF                  XRA A
8932   3BE4 2F          L1058:  CMA
8933   3BE5 3C                  INR A
8934   3BE6 80                  ADD B
8935   3BE7 3C                  INR A
8936   3BE8 82                  ADD D
8937   3BE9 47                  MOV B,A
8938   3BEA 0E 00               MVI C,00H
8939   3BEC CC 49 3C            CZ L1023
8940   3BEF CD 70 3C            CALL L1024
8941   3BF2 F1                  POP PSW
8942   3BF3 F4 26 3C            CP L1059
8943   3BF6 CD 5C 3C            CALL L1047
8944   3BF9 C1                  POP B
8945   3BFA F1                  POP PSW
8946   3BFB C2 0A 3C            JNZ L1060
8947   3BFE CD 15 38            CALL L1033
8948   3C01 7E                  MOV A,M
8949   3C02 FE 2E               CPI 2EH
8950   3C04 C4 30 34            CNZ L0093
8951   3C07 22 BA FB            SHLD 0FBBAH
8952   3C0A F1          L1060:  POP PSW
8953   3C0B 3A 2A FC            LDA 0FC2AH
8954   3C0E CA 14 3C            JZ L1061
8955   3C11 83                  ADD E
8956   3C12 90                  SUB B
8957   3C13 92                  SUB D
8958   3C14 C5          L1061:  PUSH B
8959   3C15 CD 81 3A            CALL L1062
8960   3C18 EB                  XCHG
8961   3C19 D1                  POP D
8962   3C1A C3 C8 3A            JMP L1056
8963   3C1D B7          L1032:  ORA A
8964   3C1E C8          L1063:  RZ
8965   3C1F 3D                  DCR A
8966   3C20 36 30               MVI M,30H
8967   3C22 23                  INX H
8968   3C23 C3 1E 3C            JMP L1063
8969   3C26 C2 2D 3C    L1059:  JNZ L1046
8970   3C29 C8          L1064:  RZ
8971   3C2A CD 5C 3C            CALL L1047
8972   3C2D 36 30       L1046:  MVI M,30H
8973   3C2F 23                  INX H
8974   3C30 3D                  DCR A
8975   3C31 C3 29 3C            JMP L1064
8976   3C34 7B          L1045:  MOV A,E
8977   3C35 82                  ADD D
8978   3C36 3C                  INR A
8979   3C37 47                  MOV B,A
8980   3C38 3C                  INR A
8981   3C39 D6 03       L1065:  SUI 03H
8982   3C3B D2 39 3C            JNC L1065
8983   3C3E C6 05               ADI 05H
8984   3C40 4F                  MOV C,A
8985   3C41 3A A0 FB    L1031:  LDA 0FBA0H
8986   3C44 E6 40               ANI 40H
8987   3C46 C0                  RNZ
8988   3C47 4F                  MOV C,A
8989   3C48 C9                  RET
;
8990   3C49 05          L1023:  DCR B
8991   3C4A F2 5D 3C            JP L1066
8992   3C4D 22 BA FB            SHLD 0FBBAH
8993   3C50 36 2E               MVI M,2EH
8994   3C52 23          L1067:  INX H
8995   3C53 36 30               MVI M,30H
8996   3C55 04                  INR B
8997   3C56 48                  MOV C,B
8998   3C57 C2 52 3C            JNZ L1067
8999   3C5A 23                  INX H
9000   3C5B C9                  RET
;
9001   3C5C 05          L1047:  DCR B
9002   3C5D C2 68 3C    L1066:  JNZ L1068
9003   3C60 36 2E       L1054:  MVI M,2EH
9004   3C62 22 BA FB            SHLD 0FBBAH
9005   3C65 23                  INX H
9006   3C66 48                  MOV C,B
9007   3C67 C9                  RET
;
9008   3C68 0D          L1068:  DCR C
9009   3C69 C0                  RNZ
9010   3C6A 36 2C               MVI M,2CH
9011   3C6C 23                  INX H
9012   3C6D 0E 03               MVI C,03H
9013   3C6F C9                  RET
;
9014   3C70 D5          L1024:  PUSH D
9015   3C71 E5                  PUSH H
9016   3C72 C5                  PUSH B
9017   3C73 CD DD 3C            CALL L0930
9018   3C76 78                  MOV A,B
9019   3C77 C1                  POP B
9020   3C78 E1                  POP H
9021   3C79 11 2B FC            LXI D,0FC2BH
9022   3C7C 37                  STC
9023   3C7D F5          L1071:  PUSH PSW
9024   3C7E CD 5C 3C            CALL L1047
9025   3C81 1A                  LDAX D
9026   3C82 D2 8C 3C            JNC L1069
9027   3C85 1F                  RAR
9028   3C86 1F                  RAR
9029   3C87 1F                  RAR
9030   3C88 1F                  RAR
9031   3C89 C3 8D 3C            JMP L1070
9032   3C8C 13          L1069:  INX D
9033   3C8D E6 0F       L1070:  ANI 0FH
9034   3C8F C6 30               ADI 30H
9035   3C91 77                  MOV M,A
9036   3C92 23                  INX H
9037   3C93 F1                  POP PSW
9038   3C94 3D                  DCR A
9039   3C95 3F                  CMC
9040   3C96 C2 7D 3C            JNZ L1071
9041   3C99 C3 CD 3C            JMP L1072
9042   3C9C D5          L1017:  PUSH D
9043   3C9D 11 D3 3C            LXI D,3CD3H
9044   3CA0 3E 05               MVI A,05H
9045   3CA2 CD 5C 3C    L1074:  CALL L1047
9046   3CA5 C5                  PUSH B
9047   3CA6 F5                  PUSH PSW
9048   3CA7 E5                  PUSH H
9049   3CA8 EB                  XCHG
9050   3CA9 4E                  MOV C,M
9051   3CAA 23                  INX H
9052   3CAB 46                  MOV B,M
9053   3CAC C5                  PUSH B
9054   3CAD 23                  INX H
9055   3CAE E3                  XTHL
9056   3CAF EB                  XCHG
9057   3CB0 2A 2C FC            LHLD 0FC2CH
9058   3CB3 06 2F               MVI B,2FH
9059   3CB5 04          L1073:  INR B
9060   3CB6 7D                  MOV A,L
9061   3CB7 93                  SUB E
9062   3CB8 6F                  MOV L,A
9063   3CB9 7C                  MOV A,H
9064   3CBA 9A                  SBB D
9065   3CBB 67                  MOV H,A
9066   3CBC D2 B5 3C            JNC L1073
9067   3CBF 19                  DAD D
9068   3CC0 22 2C FC            SHLD 0FC2CH
9069   3CC3 D1                  POP D
9070   3CC4 E1                  POP H
9071   3CC5 70                  MOV M,B
9072   3CC6 23                  INX H
9073   3CC7 F1                  POP PSW
9074   3CC8 C1                  POP B
9075   3CC9 3D                  DCR A
9076   3CCA C2 A2 3C            JNZ L1074
9077   3CCD CD 5C 3C    L1072:  CALL L1047
9078   3CD0 77                  MOV M,A
9079   3CD1 D1                  POP D
9080   3CD2 C9                  RET
9081   3CD3 10                  UNRECOGNIZED
9082   3CD4 27                  DAA
9083   3CD5 E8                  RPE
9084   3CD6 03                  INX B
9085   3CD7 64                  MOV H,H
9086   3CD8 00                  NOP
9087   3CD9 0A                  LDAX B
9088   3CDA 00                  NOP
9089   3CDB 01 00 EF            LXI B,0EF00H
9090   3CDE 21 31 FC            LXI H,0FC31H
9091   3CE1 06 0E               MVI B,0EH
9092   3CE3 D0                  RNC
9093   3CE4 21 2D FC            LXI H,0FC2DH
9094   3CE7 06 06               MVI B,06H
9095   3CE9 C9                  RET
;
9096   3CEA 32 A0 FB    L1012:  STA 0FBA0H
9097   3CED F5                  PUSH PSW
9098   3CEE C5                  PUSH B
9099   3CEF D5                  PUSH D
9100   3CF0 CD 93 35            CALL L0141
9101   3CF3 21 57 32            LXI H,3257H
9102   3CF6 3A 2A FC            LDA 0FC2AH
9103   3CF9 A7                  ANA A
9104   3CFA CC 9D 31            CZ L0875
9105   3CFD D1                  POP D
9106   3CFE C1                  POP B
9107   3CFF F1                  POP PSW
9108   3D00 21 FA FB            LXI H,0FBFAH
9109   3D03 36 20               MVI M,20H
9110   3D05 C9                  RET
;
9111   3D06 E5          L1051:  PUSH H
9112   3D07 D5                  PUSH D
9113   3D08 C5                  PUSH B
9114   3D09 F5          L0060:  PUSH PSW
9115   3D0A 2F                  CMA
9116   3D0B 3C                  INR A
9117   3D0C 5F                  MOV E,A
9118   3D0D 3E 01               MVI A,01H
9119   3D0F CA 28 3D            JZ L1075
9120   3D12 CD DD 3C            CALL L0930
9121   3D15 E5                  PUSH H
9122   3D16 CD CB 2C    L1076:  CALL L0805
9123   3D19 1D                  DCR E
9124   3D1A C2 16 3D            JNZ L1076
9125   3D1D E1                  POP H
9126   3D1E 23                  INX H
9127   3D1F 78                  MOV A,B
9128   3D20 0F                  RRC
9129   3D21 47                  MOV B,A
9130   3D22 CD 05 2C            CALL L0931
9131   3D25 CD 40 3D            CALL L1077
9132   3D28 C1          L1075:  POP B
9133   3D29 80                  ADD B
9134   3D2A C1                  POP B
9135   3D2B D1                  POP D
9136   3D2C E1                  POP H
9137   3D2D C9                  RET
;
9138   3D2E C5          L1043:  PUSH B
9139   3D2F E5                  PUSH H
9140   3D30 CD DD 3C            CALL L0930
9141   3D33 3A 2A FC            LDA 0FC2AH
9142   3D36 D6 40               SUI 40H
9143   3D38 90                  SUB B
9144   3D39 32 2A FC            STA 0FC2AH
9145   3D3C E1                  POP H
9146   3D3D C1                  POP B
9147   3D3E B7                  ORA A
9148   3D3F C9                  RET
;
9149   3D40 C5          L1077:  PUSH B
9150   3D41 CD DD 3C            CALL L0930
9151   3D44 7E          L1079:  MOV A,M
9152   3D45 E6 0F               ANI 0FH
9153   3D47 C2 55 3D            JNZ L1078
9154   3D4A 05                  DCR B
9155   3D4B 7E                  MOV A,M
9156   3D4C B7                  ORA A
9157   3D4D C2 55 3D            JNZ L1078
9158   3D50 2B                  DCX H
9159   3D51 05                  DCR B
9160   3D52 C2 44 3D            JNZ L1079
9161   3D55 78          L1078:  MOV A,B
9162   3D56 C1                  POP B
9163   3D57 C9                  RET
;3D7FH -  Single precision exponential function
9164   3D58 CD 00 38            CALL L0978
9165   3D5B CD 9B 35            CALL L0891
9166   3D5E CD 07 32            CALL L0893
9167   3D61 CD AB 31            CALL L0879
9168   3D64 CD 1E 32            CALL L0881
;3D8EH -  Double precision exponential function
9169   3D67 3A 7B FC            LDA 0FC7BH
9170   3D6A B7                  ORA A
9171   3D6B CA D5 3D            JZ L1080
9172   3D6E 67                  MOV H,A
9173   3D6F 3A 2A FC            LDA 0FC2AH
9174   3D72 B7                  ORA A
9175   3D73 CA E0 3D            JZ L1081
9176   3D76 CD 0D 32            CALL L0868
9177   3D79 CD B8 3E            CALL L1082
9178   3D7C DA BB 3D            JC L1083
9179   3D7F EB                  XCHG
9180   3D80 22 A2 FB            SHLD 0FBA2H
9181   3D83 CD A8 35            CALL L0898
9182   3D86 CD 1E 32            CALL L0881
9183   3D89 CD B8 3E            CALL L1082
9184   3D8C CD A8 35            CALL L0898
9185   3D8F 2A A2 FB            LHLD 0FBA2H
9186   3D92 D2 EE 3D            JNC L1084
9187   3D95 3A 7B FC            LDA 0FC7BH
9188   3D98 F5                  PUSH PSW
9189   3D99 E5                  PUSH H
9190   3D9A CD 9A 31            CALL L0895
9191   3D9D 21 F9 FB            LXI H,0FBF9H
9192   3DA0 CD A3 31            CALL L0901
9193   3DA3 21 5F 32            LXI H,325FH
9194   3DA6 CD 9D 31            CALL L0875
9195   3DA9 E1                  POP H
9196   3DAA 7C                  MOV A,H
9197   3DAB B7                  ORA A
9198   3DAC F5                  PUSH PSW
9199   3DAD F2 B7 3D            JP L1085
9200   3DB0 AF                  XRA A
9201   3DB1 4F                  MOV C,A
9202   3DB2 95                  SUB L
9203   3DB3 6F                  MOV L,A
9204   3DB4 79                  MOV A,C
9205   3DB5 9C                  SBB H
9206   3DB6 67                  MOV H,A
9207   3DB7 E5          L1085:  PUSH H
9208   3DB8 C3 2C 3E            JMP L1086
9209   3DBB CD A8 35    L1083:  CALL L0898
9210   3DBE CD 9A 31            CALL L0895
9211   3DC1 CD AB 31            CALL L0879
9212   3DC4 CD A8 2F            CALL L1087
9213   3DC7 CD 1E 32            CALL L0881
9214   3DCA CD D8 2C            CALL L0890
9215   3DCD C3 7D 30            JMP L1088
;3DF7H -  Integer exponential function
9216   3DD0 7C                  MOV A,H
9217   3DD1 B5                  ORA L
9218   3DD2 C2 DB 3D            JNZ L1089
9219   3DD5 21 01 00    L1080:  LXI H,0001H
9220   3DD8 C3 EB 3D            JMP L1090
9221   3DDB 7A          L1089:  MOV A,D
9222   3DDC B3                  ORA E
9223   3DDD C2 EE 3D            JNZ L1084
9224   3DE0 7C          L1081:  MOV A,H
9225   3DE1 17                  RAL
9226   3DE2 D2 E8 3D            JNC L1091
9227   3DE5 C3 50 04            JMP L0843
9228   3DE8 21 00 00    L1091:  LXI H,0000H
9229   3DEB C3 E9 34    L1090:  JMP L0326
9230   3DEE 22 A2 FB    L1084:  SHLD 0FBA2H
9231   3DF1 D5                  PUSH D
9232   3DF2 7C                  MOV A,H
9233   3DF3 B7                  ORA A
9234   3DF4 F5                  PUSH PSW
9235   3DF5 FC 9F 37            CM L0932
9236   3DF8 44                  MOV B,H
9237   3DF9 4D                  MOV C,L
9238   3DFA 21 01 00            LXI H,0001H
9239   3DFD B7          L1096:  ORA A
9240   3DFE 78                  MOV A,B
9241   3DFF 1F                  RAR
9242   3E00 47                  MOV B,A
9243   3E01 79                  MOV A,C
9244   3E02 1F                  RAR
9245   3E03 4F                  MOV C,A
9246   3E04 D2 0D 3E            JNC L1092
9247   3E07 CD AB 3E            CALL L1093
9248   3E0A C2 5E 3E            JNZ L1094
9249   3E0D 78          L1092:  MOV A,B
9250   3E0E B1                  ORA C
9251   3E0F CA 7A 3E            JZ L1095
9252   3E12 E5                  PUSH H
9253   3E13 62                  MOV H,D
9254   3E14 6B                  MOV L,E
9255   3E15 CD AB 3E            CALL L1093
9256   3E18 EB                  XCHG
9257   3E19 E1                  POP H
9258   3E1A CA FD 3D            JZ L1096
9259   3E1D C5                  PUSH B
9260   3E1E E5                  PUSH H
9261   3E1F 21 F9 FB            LXI H,0FBF9H
9262   3E22 CD A3 31            CALL L0901
9263   3E25 E1                  POP H
9264   3E26 CD 1C 35            CALL L0304
9265   3E29 CD 9B 35            CALL L0891
9266   3E2C C1          L1086:  POP B
9267   3E2D 78                  MOV A,B
9268   3E2E B7                  ORA A
9269   3E2F 1F                  RAR
9270   3E30 47                  MOV B,A
9271   3E31 79                  MOV A,C
9272   3E32 1F                  RAR
9273   3E33 4F                  MOV C,A
9274   3E34 D2 3F 3E            JNC L1097
9275   3E37 C5                  PUSH B
9276   3E38 21 F9 FB            LXI H,0FBF9H
9277   3E3B CD 7C 31            CALL L0863
9278   3E3E C1                  POP B
9279   3E3F 78          L1097:  MOV A,B
9280   3E40 B1                  ORA C
9281   3E41 CA 7A 3E            JZ L1095
9282   3E44 C5                  PUSH B
9283   3E45 CD 0D 32            CALL L0868
9284   3E48 21 F9 FB            LXI H,0FBF9H
9285   3E4B E5                  PUSH H
9286   3E4C CD 9D 31            CALL L0875
9287   3E4F E1                  POP H
9288   3E50 E5                  PUSH H
9289   3E51 CD 7C 31            CALL L0863
9290   3E54 E1                  POP H
9291   3E55 CD A3 31            CALL L0901
9292   3E58 CD 24 32            CALL L0871
9293   3E5B C3 2C 3E            JMP L1086
9294   3E5E C5          L1094:  PUSH B
9295   3E5F D5                  PUSH D
9296   3E60 CD 93 35            CALL L0141
9297   3E63 CD 8E 31            CALL L0870
9298   3E66 E1                  POP H
9299   3E67 CD 1C 35            CALL L0304
9300   3E6A CD 9B 35            CALL L0891
9301   3E6D 21 F9 FB            LXI H,0FBF9H
9302   3E70 CD A3 31            CALL L0901
9303   3E73 CD 9A 31            CALL L0895
9304   3E76 C1                  POP B
9305   3E77 C3 3F 3E            JMP L1097
9306   3E7A F1          L1095:  POP PSW
9307   3E7B C1                  POP B
9308   3E7C F0                  RP
9309   3E7D 3A 77 FB            LDA 0FB77H
9310   3E80 FE 02               CPI 02H
9311   3E82 C2 8D 3E            JNZ L1098
9312   3E85 C5                  PUSH B
9313   3E86 CD 1C 35            CALL L0304
9314   3E89 CD 9B 35            CALL L0891
9315   3E8C C1                  POP B
9316   3E8D 3A 2A FC    L1098:  LDA 0FC2AH
9317   3E90 B7                  ORA A
9318   3E91 C2 9F 3E            JNZ L1099
9319   3E94 2A A2 FB            LHLD 0FBA2H
9320   3E97 B4                  ORA H
9321   3E98 F0                  RP
9322   3E99 7D                  MOV A,L
9323   3E9A 0F                  RRC
9324   3E9B A0                  ANA B
9325   3E9C C3 5C 04            JMP L0386
9326   3E9F CD 8E 31    L1099:  CALL L0870
9327   3EA2 21 5F 32            LXI H,325FH
9328   3EA5 CD 9D 31            CALL L0875
9329   3EA8 C3 A0 2D            JMP L0882
9330   3EAB C5          L1093:  PUSH B
9331   3EAC D5                  PUSH D
9332   3EAD CD FE 36            CALL L1100
9333   3EB0 3A 77 FB            LDA 0FB77H
9334   3EB3 FE 02               CPI 02H
9335   3EB5 D1                  POP D
9336   3EB6 C1                  POP B
9337   3EB7 C9                  RET
;
9338   3EB8 CD 9A 31    L1082:  CALL L0895
9339   3EBB CD 07 32            CALL L0893
9340   3EBE CD 2D 36            CALL L0869
9341   3EC1 CD 1E 32            CALL L0881
9342   3EC4 CD AB 34            CALL L0906
9343   3EC7 37                  STC
9344   3EC8 C0                  RNZ
9345   3EC9 C3 B7 35            JMP L0927
9346   3ECC CD E4 3E    L0102:  CALL L1101
9347   3ECF C5          L0764:  PUSH B
9348   3ED0 E3                  XTHL
9349   3ED1 C1                  POP B
9350   3ED2 DF          L1102:  RST 3
9351   3ED3 7E                  MOV A,M
9352   3ED4 02                  STAX B
9353   3ED5 C8                  RZ
9354   3ED6 0B                  DCX B
9355   3ED7 2B                  DCX H
9356   3ED8 C3 D2 3E            JMP L1102
9357   3EDB E5          L0132:  PUSH H
9358   3EDC 2A C8 FB            LHLD 0FBC8H
9359   3EDF 06 00               MVI B,00H
9360   3EE1 09                  DAD B
9361   3EE2 09                  DAD B
9362   3EE3 3E E5               MVI A,0E5H
9363   3EE5 3E 88               MVI A,88H
9364   3EE7 95                  SUB L
9365   3EE8 6F                  MOV L,A
9366   3EE9 3E FF               MVI A,0FFH
9367   3EEB 9C                  SBB H
9368   3EEC 67                  MOV H,A
9369   3EED DA F3 3E            JC L0470
9370   3EF0 39                  DAD SP
9371   3EF1 E1                  POP H
9372   3EF2 D8                  RC
9373   3EF3 CD F7 05    L0470:  CALL L0616
9374   3EF6 2A 7F F6            LHLD 0F67FH
9375   3EF9 2B                  DCX H
9376   3EFA 2B                  DCX H
9377   3EFB 22 AF FB            SHLD 0FBAFH
9378   3EFE 11 07 00            LXI D,0007H
9379   3F01 C3 64 04            JMP L0072
9380   3F04 2A 83 F6    L0105:  LHLD 0F683H
9381   3F07 2B                  DCX H
9382   3F08 22 AB FB    L0170:  SHLD 0FBABH
9383   3F0B CD E5 3F    L1910:  CALL L1103
9384   3F0E 06 1A               MVI B,1AH
9385   3F10 21 CC FB            LXI H,0FBCCH
9386   3F13 36 08       L1104:  MVI M,08H
9387   3F15 23                  INX H
9388   3F16 05                  DCR B
9389   3F17 C2 13 3F            JNZ L1104
9390   3F1A CD 5B 31            CALL L1105
9391   3F1D AF                  XRA A
9392   3F1E 32 B9 FB            STA 0FBB9H
9393   3F21 6F                  MOV L,A
9394   3F22 67                  MOV H,A
9395   3F23 22 B7 FB            SHLD 0FBB7H
9396   3F26 22 BE FB            SHLD 0FBBEH
9397   3F29 2A 79 FB            LHLD 0FB79H
9398   3F2C 22 9E FB            SHLD 0FB9EH
9399   3F2F CD 5B 40            CALL L1106
9400   3F32 2A C4 FB            LHLD 0FBC4H
9401   3F35 22 C6 FB            SHLD 0FBC6H
9402   3F38 22 C8 FB            SHLD 0FBC8H
9403   3F3B CD F0 4D            CALL L0653
9404   3F3E 3A B9 FC            LDA 0FCB9H
9405   3F41 E6 01               ANI 01H
9406   3F43 C2 49 3F            JNZ L1107
9407   3F46 32 B9 FC            STA 0FCB9H
9408   3F49 C1          L1107:  POP B
9409   3F4A 2A 7F F6            LHLD 0F67FH
9410   3F4D 2B                  DCX H
9411   3F4E 2B                  DCX H
9412   3F4F 22 AF FB            SHLD 0FBAFH
9413   3F52 23                  INX H
9414   3F53 23                  INX H
9415   3F54 F9          L0076:  SPHL
9416   3F55 21 7D FB            LXI H,0FB7DH
9417   3F58 22 7B FB            SHLD 0FB7BH
9418   3F5B CD 65 4B            CALL L0086
9419   3F5E CD 40 0C            CALL L0227
9420   3F61 AF                  XRA A
9421   3F62 67                  MOV H,A
9422   3F63 6F                  MOV L,A
9423   3F64 22 E8 FB            SHLD 0FBE8H
9424   3F67 32 F3 FB            STA 0FBF3H
9425   3F6A 22 ED FB            SHLD 0FBEDH
9426   3F6D 22 F6 FB            SHLD 0FBF6H
9427   3F70 22 E6 FB            SHLD 0FBE6H
9428   3F73 32 A8 FB            STA 0FBA8H
9429   3F76 E5                  PUSH H
9430   3F77 C5                  PUSH B
9431   3F78 2A AB FB            LHLD 0FBABH
9432   3F7B C9                  RET
;3FA0H -  TIME$ ON Statement
9433   3F7C F3          L0547:  DI
9434   3F7D 7E                  MOV A,M
9435   3F7E E6 04               ANI 04H
9436   3F80 F6 01               ORI 01H
9437   3F82 BE                  CMP M
9438   3F83 77                  MOV M,A
9439   3F84 CA 8C 3F            JZ L1108
9440   3F87 E6 04               ANI 04H
9441   3F89 C2 C4 3F            JNZ L1109
9442   3F8C FB          L1108:  EI
9443   3F8D C9                  RET
;3FB2H -  TIME$ OFF Statement
9444   3F8E F3          L0548:  DI
9445   3F8F 7E                  MOV A,M
9446   3F90 36 00               MVI M,00H
9447   3F92 C3 9C 3F            JMP L1110
;3FB9H -  TIME$ STOP Statement
9448   3F95 F3          L0549:  DI
9449   3F96 7E                  MOV A,M
9450   3F97 F5                  PUSH PSW
9451   3F98 F6 02               ORI 02H
9452   3F9A 77                  MOV M,A
9453   3F9B F1                  POP PSW
9454   3F9C EE 05       L1110:  XRI 05H
9455   3F9E CA D8 3F            JZ L1111
9456   3FA1 FB                  EI
9457   3FA2 C9                  RET
;
9458   3FA3 F3          L0176:  DI
9459   3FA4 7E                  MOV A,M
9460   3FA5 E6 05               ANI 05H
9461   3FA7 BE                  CMP M
9462   3FA8 77                  MOV M,A
9463   3FA9 C2 BD 3F            JNZ L1112
9464   3FAC FB                  EI
9465   3FAD C9                  RET
;
9466   3FAE F3          L0556:  DI
9467   3FAF 7E                  MOV A,M
9468   3FB0 E6 01               ANI 01H
9469   3FB2 CA C2 3F            JZ L1113
9470   3FB5 7E                  MOV A,M
9471   3FB6 F6 04               ORI 04H
9472   3FB8 BE                  CMP M
9473   3FB9 CA C2 3F            JZ L1113
9474   3FBC 77                  MOV M,A
9475   3FBD EE 05       L1112:  XRI 05H
9476   3FBF CA C4 3F            JZ L1109
9477   3FC2 FB          L1113:  EI
9478   3FC3 C9                  RET
;
9479   3FC4 3A 5B F6    L1109:  LDA 0F65BH
9480   3FC7 3C                  INR A
9481   3FC8 32 5B F6            STA 0F65BH
9482   3FCB FB                  EI
9483   3FCC C9                  RET
;
9484   3FCD F3          L1122:  DI
9485   3FCE 7E                  MOV A,M
9486   3FCF E6 03               ANI 03H
9487   3FD1 BE                  CMP M
9488   3FD2 77                  MOV M,A
9489   3FD3 C2 D8 3F            JNZ L1111
9490   3FD6 FB          L1114:  EI
9491   3FD7 C9                  RET
;
9492   3FD8 3A 5B F6    L1111:  LDA 0F65BH
9493   3FDB D6 01               SUI 01H
9494   3FDD DA D6 3F            JC L1114
9495   3FE0 32 5B F6            STA 0F65BH
9496   3FE3 FB                  EI
9497   3FE4 C9                  RET
;4009H -  Clear all COM, TIME, and KEY interrupt definitions
;         Exit:
;               HL, A, and B destroyed
9498   3FE5 21 4B F9    L1103:  LXI H,0F94BH
9499   3FE8 06 0A               MVI B,0AH
9500   3FEA AF                  XRA A
9501   3FEB 77          L1115:  MOV M,A
9502   3FEC 23                  INX H
9503   3FED 77                  MOV M,A
9504   3FEE 23                  INX H
9505   3FEF 77                  MOV M,A
9506   3FF0 23                  INX H
9507   3FF1 05                  DCR B
9508   3FF2 C2 EB 3F            JNZ L1115
9509   3FF5 21 37 F6            LXI H,0F637H
9510   3FF8 06 08               MVI B,08H
9511   3FFA 77          L1116:  MOV M,A
9512   3FFB 23                  INX H
9513   3FFC 05                  DCR B
9514   3FFD C2 FA 3F            JNZ L1116
9515   4000 32 5B F6            STA 0F65BH
9516   4003 C9                  RET
9517   4004 06 02       L0152:  MVI B,02H
9518   4006 11 06 01            LXI D,0106H
9519   4009 3A B9 FB            LDA 0FBB9H
9520   400C B7                  ORA A
9521   400D C0                  RNZ
9522   400E E5                  PUSH H
9523   400F 2A 81 F6            LHLD 0F681H
9524   4012 7C                  MOV A,H
9525   4013 A5                  ANA L
9526   4014 3C                  INR A
9527   4015 CA 2E 40            JZ L1117
9528   4018 05                  DCR B
9529   4019 C2 51 40            JNZ L1118
9530   401C 21 4E F9            LXI H,0F94EH
9531   401F 06 09               MVI B,09H
9532   4021 7E                  MOV A,M
9533   4022 FE 05               CPI 05H
9534   4024 CA 30 40            JZ L1119
9535   4027 23          L1121:  INX H
9536   4028 23                  INX H
9537   4029 23                  INX H
9538   402A 05                  DCR B
9539   402B C2 21 40            JNZ L1120
9540   402E E1          L1117:  POP H
9541   402F C9                  RET
;
9542   4030 C5          L1119:  PUSH B
9543   4031 23                  INX H
9544   4032 5E                  MOV E,M
9545   4033 23                  INX H
9546   4034 56                  MOV D,M
9547   4035 2B                  DCX H
9548   4036 2B                  DCX H
9549   4037 7A                  MOV A,D
9550   4038 B3                  ORA E
9551   4039 C1                  POP B
9552   403A CA 27 40            JZ L1121
9553   403D D5                  PUSH D
9554   403E E5                  PUSH H
9555   403F CD CD 3F            CALL L1122
9556   4042 CD 95 3F            CALL L0549
9557   4045 0E 03               MVI C,03H
9558   4047 CD DB 3E            CALL L0132
9559   404A C1                  POP B
9560   404B D1                  POP D
9561   404C E1                  POP H
9562   404D F1                  POP PSW
9563   404E C3 59 09            JMP L1123
9564   4051 21 4B F9    L1118:  LXI H,0F94BH
9565   4054 7E                  MOV A,M
9566   4055 3D                  DCR A
9567   4056 CA 30 40            JZ L1119
9568   4059 E1                  POP H
9569   405A C9                  RET
;407FH -  RESTORE Statement
9570   405B EB          L1106:  XCHG
9571   405C 2A 83 F6            LHLD 0F683H
9572   405F CA 70 40            JZ L1124
9573   4062 EB                  XCHG
9574   4063 CD F2 08            CALL L0090
9575   4066 E5                  PUSH H
9576   4067 CD 2F 06            CALL L0096
9577   406A 60                  MOV H,B
9578   406B 69                  MOV L,C
9579   406C D1                  POP D
9580   406D D2 54 09            JNC L0098
9581   4070 2B          L1124:  DCX H
9582   4071 22 CA FB    L0276:  SHLD 0FBCAH
9583   4074 EB                  XCHG
9584   4075 C9                  RET
;409AH -  STOP Statement
9585   4076 C0          L0420:  RNZ
9586   4077 3C                  INR A
9587   4078 C3 85 40            JMP L1125
;409FH -  END Statement
9588   407B C0                  RNZ
9589   407C AF                  XRA A
9590   407D 32 B9 FB            STA 0FBB9H
9591   4080 F5                  PUSH PSW
9592   4081 CC F0 4D            CZ L0653
9593   4084 F1                  POP PSW
9594   4085 22 AD FB    L1125:  SHLD 0FBADH
9595   4088 21 7D FB            LXI H,0FB7DH
9596   408B 22 7B FB            SHLD 0FB7BH
9597   408E 21 F6 FF            LXI H,0FFF6H
9598   4091 C1                  POP B
9599   4092 2A 81 F6    L0073:  LHLD 0F681H
9600   4095 E5                  PUSH H
9601   4096 F5                  PUSH PSW
9602   4097 7D                  MOV A,L
9603   4098 A4                  ANA H
9604   4099 3C                  INR A
9605   409A CA A6 40            JZ L1126
9606   409D 22 BC FB            SHLD 0FBBCH
9607   40A0 2A AD FB            LHLD 0FBADH
9608   40A3 22 BE FB            SHLD 0FBBEH
9609   40A6 CD 65 4B    L1126:  CALL L0086
9610   40A9 CD 86 4B            CALL L0080
9611   40AC F1                  POP PSW
9612   40AD 21 02 04            LXI H,0402H
9613   40B0 C2 FD 04            JNZ L1127
9614   40B3 C3 08 05            JMP L0178
;40DAH -  CONT Statement
9615   40B6 2A BE FB            LHLD 0FBBEH
9616   40B9 7C                  MOV A,H
9617   40BA B5                  ORA L
9618   40BB 11 11 00            LXI D,0011H
9619   40BE CA 64 04            JZ L0072
9620   40C1 EB                  XCHG
9621   40C2 2A BC FB            LHLD 0FBBCH
9622   40C5 22 81 F6            SHLD 0F681H
9623   40C8 EB                  XCHG
9624   40C9 C9                  RET
9625   40CA C3 E2 08            JMP L0214
;40F1H -  Check to see if the current character in the buffer pointed
;        to by HL is an alpha character
;         Entry:
;               HL - Points to character to check
;         Exit:
;                A - Character pointed to by HL
;           C flag - Reset if character is a letter
9626   40CD 7E          L0163:  MOV A,M
;40F2H -  Check to see if the character in A is a letter
;         Entry:
;                A - Character to check
;         Exit:
;                A - Preserved
;           C flag - Reset if character is a letter
9627   40CE FE 41       L0308:  CPI 41H
9628   40D0 D8                  RC
9629   40D1 FE 5B               CPI 5BH
9630   40D3 3F                  CMC
9631   40D4 C9                  RET
;40F9H -  CLEAR Statement
9632   40D5 E5                  PUSH H
9633   40D6 CD 3A 22            CALL L1128
9634   40D9 E1                  POP H
9635   40DA 2B                  DCX H
9636   40DB D7                  RST 2
9637   40DC CA 08 3F            JZ L0170
9638   40DF FF                  RST 7
9639   40E0 00                  NOP
9640   40E1 CD DE 08            CALL L1129
9641   40E4 2B                  DCX H
9642   40E5 D7                  RST 2
9643   40E6 E5                  PUSH H
9644   40E7 2A F4 F5            LHLD 0F5F4H
9645   40EA 44                  MOV B,H
9646   40EB 4D                  MOV C,L
9647   40EC 2A 79 FB            LHLD 0FB79H
9648   40EF CA 1C 41            JZ L1130
9649   40F2 E1                  POP H
9650   40F3 CF                  RST 1
9651   40F4 2C                  INR L
9652   40F5 D5                  PUSH D
9653   40F6 CD A0 12            CALL L0384
9654   40F9 2B                  DCX H
9655   40FA D7                  RST 2
9656   40FB C2 4D 04            JNZ L0002
9657   40FE E3                  XTHL
9658   40FF EB                  XCHG
9659   4100 7C                  MOV A,H
9660   4101 A7                  ANA A
9661   4102 F2 E2 08            JP L0214
9662   4105 D5                  PUSH D
9663   4106 11 F1 F5            LXI D,0F5F1H
9664   4109 DF                  RST 3
9665   410A D2 E2 08            JNC L0214
9666   410D D1                  POP D
9667   410E E5                  PUSH H
9668   410F 01 F5 FE            LXI B,0FEF5H
9669   4112 3A 94 FC            LDA 0FC94H
9670   4115 09          L1131:  DAD B
9671   4116 3D                  DCR A
9672   4117 F2 15 41            JP L1131
9673   411A C1                  POP B
9674   411B 2B                  DCX H
9675   411C 7D          L1130:  MOV A,L
9676   411D 93                  SUB E
9677   411E 5F                  MOV E,A
9678   411F 7C                  MOV A,H
9679   4120 9A                  SBB D
9680   4121 57                  MOV D,A
9681   4122 DA F3 3E            JC L0470
9682   4125 E5                  PUSH H
9683   4126 2A C4 FB            LHLD 0FBC4H
9684   4129 C5                  PUSH B
9685   412A 01 A0 00            LXI B,00A0H
9686   412D 09                  DAD B
9687   412E C1                  POP B
9688   412F DF                  RST 3
9689   4130 D2 F3 3E            JNC L0470
9690   4133 EB                  XCHG
9691   4134 22 7F F6            SHLD 0F67FH
9692   4137 60                  MOV H,B
9693   4138 69                  MOV L,C
9694   4139 22 F4 F5            SHLD 0F5F4H
9695   413C E1                  POP H
9696   413D 22 79 FB            SHLD 0FB79H
9697   4140 E1                  POP H
9698   4141 CD 08 3F            CALL L0170
9699   4144 3A 94 FC            LDA 0FC94H
9700   4147 CD 1D 7C            CALL L1132
9701   414A 2A AB FB            LHLD 0FBABH
9702   414D C3 0B 08            JMP L0700
;4174H -  NEXT Statement
9703   4150 11 00 00            LXI D,0000H
9704   4153 C4 46 47            CNZ L0182
9705   4156 22 AB FB            SHLD 0FBABH
9706   4159 CD 08 04            CALL L0173
9707   415C C2 53 04            JNZ L1133
9708   415F F9                  SPHL
9709   4160 D5                  PUSH D
9710   4161 7E                  MOV A,M
9711   4162 F5                  PUSH PSW
9712   4163 23                  INX H
9713   4164 D5                  PUSH D
9714   4165 7E                  MOV A,M
9715   4166 23                  INX H
9716   4167 B7                  ORA A
9717   4168 FA 97 41            JM L1134
9718   416B 3D                  DCR A
9719   416C C2 73 41            JNZ L1135
9720   416F 01 08 00            LXI B,0008H
9721   4172 09                  DAD B
9722   4173 C6 04       L1135:  ADI 04H
9723   4175 32 77 FB            STA 0FB77H
9724   4178 CD 57 34            CALL L0336
9725   417B EB                  XCHG
9726   417C E3                  XTHL
9727   417D E5                  PUSH H
9728   417E EF                  RST 5
9729   417F D2 D2 41            JNC L1136
9730   4182 CD 20 34            CALL L1137
9731   4185 CD CD 37            CALL L0387
9732   4188 E1                  POP H
9733   4189 CD 32 34            CALL L1138
9734   418C E1                  POP H
9735   418D CD 29 34            CALL L0762
9736   4190 E5                  PUSH H
9737   4191 CD 71 34            CALL L0385
9738   4194 C3 C0 41            JMP L1139
9739   4197 01 0C 00    L1134:  LXI B,000CH
9740   419A 09                  DAD B
9741   419B 4E                  MOV C,M
9742   419C 23                  INX H
9743   419D 46                  MOV B,M
9744   419E 23                  INX H
9745   419F E3                  XTHL
9746   41A0 5E                  MOV E,M
9747   41A1 23                  INX H
9748   41A2 56                  MOV D,M
9749   41A3 E5                  PUSH H
9750   41A4 69                  MOV L,C
9751   41A5 60                  MOV H,B
9752   41A6 CD DD 36            CALL L1140
9753   41A9 3A 77 FB            LDA 0FB77H
9754   41AC FE 02               CPI 02H
9755   41AE C2 5C 04            JNZ L0386
9756   41B1 EB                  XCHG
9757   41B2 E1                  POP H
9758   41B3 72                  MOV M,D
9759   41B4 2B                  DCX H
9760   41B5 73                  MOV M,E
9761   41B6 E1                  POP H
9762   41B7 D5                  PUSH D
9763   41B8 5E                  MOV E,M
9764   41B9 23                  INX H
9765   41BA 56                  MOV D,M
9766   41BB 23                  INX H
9767   41BC E3                  XTHL
9768   41BD CD 9B 34            CALL L1141
9769   41C0 E1          L1139:  POP H
9770   41C1 C1                  POP B
9771   41C2 90                  SUB B
9772   41C3 CD 29 34            CALL L0762
9773   41C6 CA E4 41            JZ L1142
9774   41C9 EB                  XCHG
9775   41CA 22 81 F6            SHLD 0F681H
9776   41CD 69                  MOV L,C
9777   41CE 60                  MOV H,B
9778   41CF C3 07 08            JMP L1143
9779   41D2 CD 4E 2B    L1136:  CALL L1144
9780   41D5 E1                  POP H
9781   41D6 CD 60 34            CALL L0142
9782   41D9 E1                  POP H
9783   41DA CD 3A 34            CALL L0797
9784   41DD D5                  PUSH D
9785   41DE CD AB 34            CALL L0906
9786   41E1 C3 C0 41            JMP L1139
9787   41E4 F9          L1142:  SPHL
9788   41E5 22 AF FB            SHLD 0FBAFH
9789   41E8 EB                  XCHG
9790   41E9 2A AB FB            LHLD 0FBABH
9791   41EC 7E                  MOV A,M
9792   41ED FE 2C               CPI 2CH
9793   41EF C2 0B 08            JNZ L0700
9794   41F2 D7                  RST 2
9795   41F3 CD 53 41            CALL L0031
9796   41F6 E5          L0092:  PUSH H
9797   41F7 2A 9E FC            LHLD 0FC9EH
9798   41FA 7C                  MOV A,H
9799   41FB B5                  ORA L
9800   41FC E1                  POP H
9801   41FD C9                  RET
;4222H -  Send CRLF to screen or printer
;         Exit:
;                A = 10
9802   41FE 3E 0D       L0562:  MVI A,0DH
9803   4200 E7                  RST 4
;4225H -  Send LF to screen or printer
;         Exit:
;                A = 10
9804   4201 3E 0A               MVI A,0AH
9805   4203 E7                  RST 4
9806   4204 C9                  RET
;4229H -  BEEP Statement.  Beep computer.
;         Exit:
;                A = 7
9807   4205 3E 07       L0722:  MVI A,07H
9808   4207 E7                  RST 4
9809   4208 C9                  RET
;422DH -  Home cursor
;         Exit:
;                A = 11
9810   4209 3E 0B       L1151:  MVI A,0BH
9811   420B E7                  RST 4
9812   420C C9                  RET
;4231H -  CLS Statement.  Clear screen
;         Exit:
;                A = 12
9813   420D 3E 0C       L1478:  MVI A,0CH
9814   420F E7                  RST 4
9815   4210 C9                  RET
;4235H -  Protect line 8.  An ESC T is printed.
;         Exit:
;                A = 84
9816   4211 3E 54       L1159:  MVI A,54H
9817   4213 C3 4C 42            JMP L1145
;423AH -  Unprotect line 8.  An ESC U is printed.
;         Exit:
;                A = 85
9818   4216 3E 55       L1146:  MVI A,55H
9819   4218 C3 4C 42            JMP L1145
;423FH -  Stop automatic scrolling.  An ESC V is printed.
;         Exit:
;                A = 86
9820   421B 3E 56       L1444:  MVI A,56H
9821   421D C3 4C 42            JMP L1145
;4244H -  Resume automatic scrolling.  An ESC W is printed.
;         Exit:
;                A = 87
9822   4220 3E 57       L1394:  MVI A,57H
9823   4222 C3 4C 42            JMP L1145
;4249H -  Turn the cursor on.  An ESC P is printed.
;         Exit:
;                A = 80
9824   4225 3E 50       L0414:  MVI A,50H
9825   4227 C3 4C 42            JMP L1145
;424EH -  Turn the cursor off.  An ESC Q is printed.
;         Exit:
;                A = 81
9826   422A 3E 51       L0416:  MVI A,51H
9827   422C C3 4C 42            JMP L1145
;4253H -  Delete current line on screen.  An ESC M is
;        printed.
;         Exit:
;                A = 77
9828   422F 3E 4D       L1152:  MVI A,4DH
9829   4231 C3 4C 42            JMP L1145
;4258H -  Insert line at current line.  An ESC L is printed.
;         Exit:
;                A = 76
9830   4234 3E 4C       L1619:  MVI A,4CH
9831   4236 C3 4C 42            JMP L1145
;425DH -  Erase from cursor to end of line.  An ESC K is printed.
;         Exit:
;                A = 75
9832   4239 3E 4B       L0742:  MVI A,4BH
9833   423B C3 4C 42            JMP L1145
;4262H -  Send ESC X
;         Exit:
;                A = 88
9834   423E 3E 58       L0415:  MVI A,58H
9835   4240 C3 4C 42            JMP L1145
9836   4243 B6                  ORA M
9837   4244 C8                  RZ
;4269H -  Start inverse character mode.  An ESC p is printed.
;         Exit:
;                A = 112
9838   4245 3E 70               MVI A,70H
9839   4247 C3 4C 42            JMP L1145
;426EH -  Cancel inverse character mode.  An ESC q is printed.
;         Exit:
;                A = 113
9840   424A 3E 71       L1153:  MVI A,71H
;4270H -  Send escape sequence
;         Entry:
;                A - Character after escape (27)
9841   424C F5          L1145:  PUSH PSW
9842   424D 3E 1B               MVI A,1BH
9843   424F E7                  RST 4
9844   4250 F1                  POP PSW
9845   4251 E7                  RST 4
9846   4252 C9                  RET
;
9847   4253 2A 42 F6    L1147:  LHLD 0F642H
9848   4256 26 01               MVI H,01H
;427CH -  Set the current cursor position
;         Entry:
;                L - Column (1-40)
;                H - Row (1-8)
;         Exit:
;                A - Destroyed
9849   4258 3E 59       L0598:  MVI A,59H
9850   425A CD 4C 42            CALL L1145
9851   425D 7D                  MOV A,L
9852   425E C6 1F               ADI 1FH
9853   4260 E7                  RST 4
9854   4261 7C                  MOV A,H
9855   4262 C6 1F               ADI 1FH
9856   4264 E7                  RST 4
9857   4265 C9                  RET
;428AH -  Erase function key display
;         Exit:
;           HL & A - Destroyed
9858   4266 3A 44 F6    L0411:  LDA 0F644H
9859   4269 A7                  ANA A
9860   426A C8                  RZ
9861   426B CD 16 42            CALL L1146
9862   426E 2A 40 F6            LHLD 0F640H
9863   4271 E5                  PUSH H
9864   4272 CD 53 42            CALL L1147
9865   4275 CD 39 42            CALL L0742
9866   4278 E1                  POP H
9867   4279 CD 58 42            CALL L0598
9868   427C CD 3E 42            CALL L0415
9869   427F AF                  XRA A
9870   4280 C9                  RET
;42A5H -  Set and display function keys
;         Entry:
;               HL - Start address of function key table (see 5A7CH
;                    for the format of the table)
;         Exit:
;               All registers destroyed
9871   4281 CD 9F 57    L1395:  CALL L1148
;42A8H -  Display function key line
;         Exit:
;               All registers destroyed
9872   4284 2A 40 F6    L0412:  LHLD 0F640H
9873   4287 3A 42 F6            LDA 0F642H
9874   428A BD                  CMP L
9875   428B C2 9A 42            JNZ L1149
9876   428E E5                  PUSH H
9877   428F CD A1 45            CALL L1150
9878   4292 CD 09 42            CALL L1151
9879   4295 CD 2F 42            CALL L1152
9880   4298 E1                  POP H
9881   4299 2D                  DCR L
9882   429A E5          L1149:  PUSH H
9883   429B CD 16 42            CALL L1146
9884   429E CD 53 42            CALL L1147
9885   42A1 21 90 F7            LXI H,0F790H
9886   42A4 1E 08               MVI E,08H
9887   42A6 3A 4F F6            LDA 0F64FH
9888   42A9 F5                  PUSH PSW
9889   42AA CD 4A 42            CALL L1153
9890   42AD 3A 43 F6    L1158:  LDA 0F643H
9891   42B0 FE 28               CPI 28H
9892   42B2 01 0C 04            LXI B,040CH
9893   42B5 CA BB 42            JZ L1154
9894   42B8 01 07 09            LXI B,0907H
9895   42BB E5          L1154:  PUSH H
9896   42BC 21 CA FA            LXI H,0FACAH
9897   42BF 7B                  MOV A,E
9898   42C0 D6 06               SUI 06H
9899   42C2 CA C7 42            JZ L1155
9900   42C5 3D                  DCR A
9901   42C6 2B                  DCX H
9902   42C7 CC 43 42    L1155:  CZ L1156
9903   42CA E1                  POP H
9904   42CB CD A9 1B            CALL L0564
9905   42CE 09                  DAD B
9906   42CF CD 4A 42            CALL L1153
9907   42D2 1D                  DCR E
9908   42D3 C4 1E 00            CNZ L1157
9909   42D6 C2 AD 42            JNZ L1158
9910   42D9 CD 39 42            CALL L0742
9911   42DC CD 11 42            CALL L1159
9912   42DF F1                  POP PSW
9913   42E0 A7                  ANA A
9914   42E1 C4 45 42            CNZ L1160
9915   42E4 E1                  POP H
9916   42E5 CD 58 42            CALL L0598
9917   42E8 CD 3E 42            CALL L0415
9918   42EB AF                  XRA A
9919   42EC C9                  RET
;4313H -  Print the character in the A register to the screen.  This
;        routine is used by RST 20H to print characters on the screen.
;         Entry:
;                A - Character to output
9920   42ED E5          L1312:  PUSH H
9921   42EE D5                  PUSH D
9922   42EF C5                  PUSH B
9923   42F0 F5                  PUSH PSW
9924   42F1 FF                  RST 7
9925   42F2 08                  UNRECOGNIZED
9926   42F3 CD F9 42            CALL L0438
9927   42F6 C3 F8 14            JMP L1161
9928   42F9 4F          L0438:  MOV C,A
9929   42FA AF                  XRA A
9930   42FB 32 CE FA            STA 0FACEH
9931   42FE FF                  RST 7
9932   42FF 0A                  LDAX B
9933   4300 CD 0A 43            CALL L1162
9934   4303 2A 40 F6            LHLD 0F640H
9935   4306 22 47 F6            SHLD 0F647H
9936   4309 C9                  RET
;
9937   430A CD B4 70    L1162:  CALL L1163
9938   430D CD 1F 43            CALL L1164
9939   4310 2A 40 F6    L1214:  LHLD 0F640H
9940   4313 EB                  XCHG
9941   4314 CD 5A 71            CALL L1165
9942   4317 3A 46 F6            LDA 0F646H
9943   431A A7                  ANA A
9944   431B C8                  RZ
9945   431C C3 C8 70            JMP L1166
9946   431F 21 4D F6    L1164:  LXI H,0F64DH
9947   4322 7E                  MOV A,M
9948   4323 A7                  ANA A
9949   4324 C2 DA 43            JNZ L1167
9950   4327 79                  MOV A,C
9951   4328 FE 20               CPI 20H
9952   432A DA 53 43            JC L1168
9953   432D 2A 40 F6    L1184:  LHLD 0F640H
9954   4330 FE 7F               CPI 7FH
9955   4332 CA E9 44            JZ L1169
9956   4335 4F                  MOV C,A
9957   4336 CD 1D 45            CALL L1170
9958   4339 CD 33 44            CALL L1171
9959   433C C0                  RNZ
9960   433D 26 01               MVI H,01H
9961   433F CD 4E 44            CALL L0049
9962   4342 C0                  RNZ
9963   4343 3A 45 F6            LDA 0F645H
9964   4346 A7                  ANA A
9965   4347 C0                  RNZ
9966   4348 CD 57 44            CALL L1172
9967   434B CD A1 45            CALL L1150
9968   434E 2E 01               MVI L,01H
9969   4350 C3 91 44            JMP L1173
;4373H -  Control code routine for LCD output (RST 20H)
9970   4353 21 68 43    L1168:  LXI H,4368H
9971   4356 0E 08               MVI C,08H
9972   4358 23          L1174:  INX H
9973   4359 23                  INX H
9974   435A 0D                  DCR C
9975   435B F8                  RM
9976   435C BE                  CMP M
9977   435D 23                  INX H
9978   435E C2 58 43            JNZ L1174
9979   4361 7E                  MOV A,M
9980   4362 23                  INX H
9981   4363 66                  MOV H,M
9982   4364 6F                  MOV L,A
9983   4365 E5                  PUSH H
9984   4366 2A 40 F6            LHLD 0F640H
9985   4369 C9                  RET
;438AH -  Start of lookup table for RST 20H control characters.  Each
;        entry starts with the ASCII value of the character followed
;        by the two byte vector address.
9986   436A 07                  RLC
9987   436B 7C                  MOV A,H
9988   436C 73                  MOV M,E
9989   436D 08                  UNRECOGNIZED
9990   436E 41                  MOV B,C
9991   436F 44                  MOV B,H
9992   4370 09                  DAD B
9993   4371 60                  MOV H,B
9994   4372 44                  MOV B,H
9995   4373 0A                  LDAX B
9996   4374 3F                  CMC
9997   4375 43                  MOV B,E
9998   4376 0B                  DCX B
9999   4377 76                  HLT
0000   4378 44                  MOV B,H
0001   4379 0C                  INR C
0002   437A 05                  DCR B
0003   437B 45                  MOV B,L
0004   437C 0D                  DCR C
0005   437D 78                  MOV A,B
0006   437E 44                  MOV B,H
0007   437F 1B                  DCX D
0008   4380 92                  SUB D
0009   4381 43                  MOV B,E
;43A1H -  End of special ASCII character lookup table
0010   4382 3A CE FA    L1186:  LDA 0FACEH
0011   4385 A7                  ANA A
0012   4386 C8                  RZ
0013   4387 F1                  POP PSW
0014   4388 C9                  RET
;
0015   4389 3A 44 F6    L1188:  LDA 0F644H
0016   438C C6 08               ADI 08H
0017   438E C9                  RET
;43AFH -  ESC Y routine (Set cursor position)
0018   438F 3E 02               MVI A,02H
0019   4391 01 3E AF            LXI B,0AF3EH
;43B2H -  ESCape routine (27).  This routine puts the LCD output
        routine into ESCape mode.  The following characters processed
        throught the video driver will be used to determine the
        escape sequence.
;      43B2 3E AF               MVI A, AFH
0020   4394 32 4D F6            STA 0F64DH
0021   4397 C9                  RET
;43B8H -  Start of lookup table for LCD escape sequences.  Each entry
;        starts with the one byte escape letter followed by the two
;        byte vector address.
0022   4398 6A                  MOV L,D
0023   4399 05                  DCR B
0024   439A 45                  MOV B,L
;
0025   439B 45                  MOV B,L
0026   439C 05                  DCR B
0027   439D 45                  MOV B,L
;
0028   439E 4B                  MOV C,E
0029   439F F7                  RST 6
0030   43A0 44                  MOV B,H
;
0031   43A1 4A                  MOV C,D
0032   43A2 0B                  DCX B
0033   43A3 45                  MOV B,L
;
0034   43A4 6C                  MOV L,H
0035   43A5 F5                  PUSH PSW
0036   43A6 44                  MOV B,H
;
0037   43A7 4C                  MOV C,H
0038   43A8 B4                  ORA H
0039   43A9 44                  MOV B,H
;
0040   43AA 4D                  MOV C,L
0041   43AB 8E                  ADC M
0042   43AC 44                  MOV B,H
;
0043   43AD 59                  MOV E,C
0044   43AE 8F                  ADC A
0045   43AF 43                  MOV B,E
;
0046   43B0 41                  MOV B,C
0047   43B1 49                  MOV C,C
0048   43B2 44                  MOV B,H
;
0049   43B3 42                  MOV B,D
0050   43B4 4E                  MOV C,M
0051   43B5 44                  MOV B,H
;
0052   43B6 43                  MOV B,E
0053   43B7 33                  INX SP
0054   43B8 44                  MOV B,H
;
0055   43B9 44                  MOV B,H
0056   43BA 3C                  INR A
0057   43BB 44                  MOV B,H
;
0058   43BC 48                  MOV C,B
0059   43BD 76                  HLT
0060   43BE 44                  MOV B,H
;
0061   43BF 70                  MOV M,B
0062   43C0 11 44 71            LXI D,7144H
0062   43C1 44 71            LXI D,7144H
;
0062   43C2 71            LXI D,7144H
0063   43C3 12                  STAX D
0064   43C4 44                  MOV B,H
;
0065   43C5 50                  MOV D,B
0066   43C6 7D                  MOV A,L
0067   43C7 44                  MOV B,H
;
0068   43C8 51                  MOV D,C
0069   43C9 7E                  MOV A,M
0070   43CA 44                  MOV B,H
;
0071   43CB 54                  MOV D,H
0072   43CC 19                  DAD D
0073   43CD 44                  MOV B,H
;
0074   43CE 55                  MOV D,L
0075   43CF 17                  RAL
0076   43D0 44                  MOV B,H
;
0077   43D1 56                  MOV D,M
0078   43D2 1F                  RAR
0079   43D3 44                  MOV B,H
;
0080   43D4 57                  MOV D,A
0081   43D5 20                  RIM
0082   43D6 44                  MOV B,H
;
0083   43D7 58                  MOV E,B
0084   43D8 2A 
0084   43D9 44 
;43F9H -  End of escape vector lookup table
;43FAH -  ESCape sequence processor.  This routine is used after the
;       escape mode has been enabled (see 43B2H).

0084   43DA 79         Lxxxx:   MOV A,C
0085   43DB FE 1B               CPI 1BH
0086   43DD 7E                  MOV A,M
0087   43DE CA 25 44            JZ L1175
0088   43E1 A7                  ANA A
0089   43E2 F2 F1 43            JP L1176
0090   43E5 CD 93 43            CALL L1177
0091   43E8 79                  MOV A,C
0092   43E9 21 96 43            LXI H,4396H
0093   43EC 0E 16               MVI C,16H
0094   43EE C3 58 43            JMP L1174
0095   43F1 3D          L1176:  DCR A
0096   43F2 32 4D F6            STA 0F64DH
0097   43F5 3A 43 F6            LDA 0F643H
0098   43F8 11 41 F6            LXI D,0F641H
0099   43FB CA 06 44            JZ L1178
0100   43FE 3A 42 F6            LDA 0F642H
0101   4401 21 44 F6            LXI H,0F644H
0102   4404 86                  ADD M
0103   4405 1B                  DCX D
0104   4406 47          L1178:  MOV B,A
0105   4407 79                  MOV A,C
0106   4408 D6 20               SUI 20H
0107   440A B8                  CMP B
0108   440B 3C                  INR A
0109   440C 12                  STAX D
0110   440D D8                  RC
0111   440E 78                  MOV A,B
0112   440F 12                  STAX D
0113   4410 C9                  RET
;4431H -  Escape p routine (start inverse video)
0114   4411 F6 AF               ORI 0AFH
;4432H -  Escape q routine (cancel inverse video)
;      4432 AF                  XRA A
0115   4413 32 4F F6            STA 0F64FH
0116   4416 C9                  RET
;4437H -  Escape U routine (unprotect line 8)
0117   4417 AF                  XRA A
0118   4418 C2 3E FF            JNZ L1179
;4439H -  Escape T routine (protect line 8)
;      4439 3E FF               MVI A, FFH
0119   441B 32 44 F6            STA 0F644H
0120   441E C9                  RET
;443FH -  Escape V routine (Stop automatic scrolling)
0121   441F F6 AF               ORI 0AFH
;4440H -  Escape W routine (Resume automatic scrolling)
;      4440 AF                  XRA A
0122   4421 32 45 F6            STA 0F645H
0123   4424 C9                  RET
;
0124   4425 23          L1175:  INX H
0125   4426 77                  MOV M,A
0126   4427 C3 92 43            JMP L1180
;444AH -  Escape X routine
0127   442A 21 4E F6            LXI H,0F64EH
0128   442D 7E                  MOV A,M
0129   442E 36 00               MVI M,00H
0130   4430 2B                  DCX H
0131   4431 77                  MOV M,A
0132   4432 C9                  RET
;4453H -  Escape C routine (move cursor to the right)
0133   4433 3A 43 F6    L1171:  LDA 0F643H
0134   4436 BC                  CMP H
0135   4437 C8                  RZ
0136   4438 24                  INR H
0137   4439 C3 57 44            JMP L1172
;445CH -  Escape D routine (move cursor to the left)
0138   443C 25          L1181:  DCR H
0139   443D C8                  RZ
0140   443E C3 57 44            JMP L1172
;4461H -  Backspace routine (08H)
0141   4441 CD 3C 44    L1198:  CALL L1181
0142   4444 C0                  RNZ
0143   4445 3A 43 F6            LDA 0F643H
0144   4448 67                  MOV H,A
;4469H -  Escape A routine (move cursor up one line)
0145   4449 2D          L0059:  DCR L
0146   444A C8                  RZ
0147   444B C3 57 44            JMP L1172
;446EH -  Escape B routine (move cursor down one line)
0148   444E CD ED 60    L0049:  CALL L1182
0149   4451 BD                  CMP L
0150   4452 C8                  RZ
0151   4453 DA 5B 44            JC L1183
0152   4456 2C                  INR L
0153   4457 22 40 F6    L1172:  SHLD 0F640H
0154   445A C9                  RET
0155   445B 2D          L1183:  DCR L
0156   445C AF                  XRA A
0157   445D C3 57 44            JMP L1172
;4480H -  Tab routine (09H)
0158   4460 3A 41 F6    L1185:  LDA 0F641H
0159   4463 F5                  PUSH PSW
0160   4464 3E 20               MVI A,20H
0161   4466 CD 2D 43            CALL L1184
0162   4469 C1                  POP B
0163   446A 3A 41 F6            LDA 0F641H
0164   446D B8                  CMP B
0165   446E C8                  RZ
0166   446F 3D                  DCR A
0167   4470 E6 07               ANI 07H
0168   4472 C2 60 44            JNZ L1185
0169   4475 C9                  RET
;
0170   4476 2E 01       L1201:  MVI L,01H
0171   4478 26 01       L1187:  MVI H,01H
0172   447A C3 57 44            JMP L1172
0173   447D 3E AF               MVI A,0AFH
0174   447F 21 46 F6            LXI H,0F646H
0175   4482 77                  MOV M,A
0176   4483 CD 82 43            CALL L1186
0177   4486 7E                  MOV A,M
0178   4487 A7                  ANA A
0179   4488 C2 C8 70            JNZ L1166
0180   448B C3 B4 70            JMP L1163
0181   448E CD 78 44            CALL L1187
0182   4491 CD 82 43    L1173:  CALL L1186
0183   4494 CD 89 43            CALL L1188
0184   4497 95                  SUB L
0185   4498 D8                  RC
0186   4499 CA F5 44            JZ L1189
0187   449C F5          L1193:  PUSH PSW
0188   449D 26 28               MVI H,28H
0189   449F 2C          L1192:  INR L
0190   44A0 CD DC 44            CALL L1190
0191   44A3 2D                  DCR L
0192   44A4 CD 23 45            CALL L1191
0193   44A7 25                  DCR H
0194   44A8 C2 9F 44            JNZ L1192
0195   44AB 2C                  INR L
0196   44AC F1                  POP PSW
0197   44AD 3D                  DCR A
0198   44AE C2 9C 44            JNZ L1193
0199   44B1 C3 F5 44            JMP L1189
;44EAH -  Escape L routine (insert line on screen)
0200   44B4 CD 78 44            CALL L1187
0201   44B7 CD 82 43            CALL L1186
0202   44BA CD 89 43            CALL L1188
0203   44BD 67                  MOV H,A
0204   44BE 95                  SUB L
0205   44BF D8                  RC
0206   44C0 CA F5 44            JZ L1189
0207   44C3 6C                  MOV L,H
0208   44C4 F5          L1195:  PUSH PSW
0209   44C5 26 28               MVI H,28H
0210   44C7 2D          L1194:  DCR L
0211   44C8 CD DC 44            CALL L1190
0212   44CB 2C                  INR L
0213   44CC CD 23 45            CALL L1191
0214   44CF 25                  DCR H
0215   44D0 C2 C7 44            JNZ L1194
0216   44D3 2D                  DCR L
0217   44D4 F1                  POP PSW
0218   44D5 3D                  DCR A
0219   44D6 C2 C4 44            JNZ L1195
0220   44D9 C3 F5 44            JMP L1189
0221   44DC E5          L1190:  PUSH H
0222   44DD E5                  PUSH H
0223   44DE CD 43 45            CALL L1196
0224   44E1 4E                  MOV C,M
0225   44E2 E1                  POP H
0226   44E3 CD 66 45            CALL L1197
0227   44E6 A6                  ANA M
0228   44E7 E1                  POP H
0229   44E8 C9                  RET
0230   44E9 CD 41 44    L1169:  CALL L1198
0231   44EC CD 82 43            CALL L1186
0232   44EF AF          L1199:  XRA A
0233   44F0 0E 20               MVI C,20H
0234   44F2 C3 23 45            JMP L1191
;4535H -  Escape l routine (erase current cursor line)
0235   44F5 26 01       L1189:  MVI H,01H
;4537H -  Escape K routine (erase from cursor to the end of the screen)
0236   44F7 CD 82 43    L1203:  CALL L1186
0237   44FA CD EF 44    L1200:  CALL L1199
0238   44FD 24                  INR H
0239   44FE 7C                  MOV A,H
0240   44FF FE 29               CPI 29H
0241   4501 DA FA 44            JC L1200
0242   4504 C9                  RET
;4548H -  Form feed (0CH), CLS, ESC E, and ESC j routine
0243   4505 CD 76 44            CALL L1201
0244   4508 CD 87 45            CALL L1202
;454EH -  Escape J routine
0245   450B CD 82 43            CALL L1186
0246   450E CD F7 44    L1204:  CALL L1203
0247   4511 CD 89 43            CALL L1188
0248   4514 BD                  CMP L
0249   4515 D8                  RC
0250   4516 C8                  RZ
0251   4517 26 01               MVI H,01H
0252   4519 2C                  INR L
0253   451A C3 0E 45            JMP L1204
0254   451D CD 82 43    L1170:  CALL L1186
0255   4520 3A 4F F6            LDA 0F64FH
0256   4523 E5          L1191:  PUSH H
0257   4524 F5                  PUSH PSW
0258   4525 E5                  PUSH H
0259   4526 E5                  PUSH H
0260   4527 CD 57 45            CALL L1205
0261   452A E1                  POP H
0262   452B CD 43 45            CALL L1196
0263   452E 71                  MOV M,C
0264   452F D1                  POP D
0265   4530 CD DD 70            CALL L1206
0266   4533 F1                  POP PSW
0267   4534 A7                  ANA A
0268   4535 E1                  POP H
0269   4536 C8                  RZ
0270   4537 F3                  DI
0271   4538 3E 0D               MVI A,0DH
0272   453A 30                  SIM
0273   453B FB                  EI
0274   453C CD 98 70            CALL L1207
0275   453F 3E 09               MVI A,09H
0276   4541 30                  SIM
0277   4542 C9                  RET
;
0278   4543 7D          L1196:  MOV A,L
0279   4544 87                  ADD A
0280   4545 87          L0036:  ADD A
0281   4546 85                  ADD L
0282   4547 87                  ADD A
0283   4548 87          L0045:  ADD A
0284   4549 87                  ADD A
0285   454A 5F                  MOV E,A
0286   454B 9F                  SBB A
0287   454C 2F          L0030:  CMA
0288   454D 57                  MOV D,A
0289   454E 6C                  MOV L,H
0290   454F 26 00               MVI H,00H
0291   4551 19                  DAD D
0292   4552 11 D7 FE            LXI D,0FED7H
0293   4555 19                  DAD D
0294   4556 C9                  RET
0295   4557 47          L1205:  MOV B,A
0296   4558 CD 66 45            CALL L1197
0297   455B 04                  INR B
0298   455C 05                  DCR B
0299   455D CA 62 45            JZ L1208
0300   4560 B6                  ORA M
0301   4561 CA 2F A6            JZ L1209
0302   4564 77                  MOV M,A
0303   4565 C9                  RET
;
0304   4566 7D          L1197:  MOV A,L
0305   4567 87                  ADD A
0306   4568 87                  ADD A
0307   4569 85                  ADD L
0308   456A 6F                  MOV L,A
0309   456B 7C                  MOV A,H
0310   456C 3D                  DCR A
0311   456D F5                  PUSH PSW
0312   456E 0F                  RRC
0313   456F 0F                  RRC
0314   4570 0F                  RRC
0315   4571 E6 1F               ANI 1FH
0316   4573 85                  ADD L
0317   4574 6F                  MOV L,A
0318   4575 26 00               MVI H,00H
0319   4577 11 47 FB            LXI D,0FB47H
0320   457A 19                  DAD D
0321   457B F1                  POP PSW
0322   457C E6 07               ANI 07H
0323   457E 57                  MOV D,A
0324   457F AF                  XRA A
0325   4580 37                  STC
0326   4581 1F          L1210:  RAR
0327   4582 15                  DCR D
0328   4583 F2 81 45            JP L1210
0329   4586 C9                  RET
0330   4587 CD 82 43    L1202:  CALL L1186
0331   458A 3A 57 F6            LDA 0F657H
0332   458D 87                  ADD A
0333   458E F0                  RP
0334   458F E5                  PUSH H
0335   4590 21 C0 FC            LXI H,0FCC0H
0336   4593 01 40 01            LXI B,0140H
0337   4596 36 20       L1211:  MVI M,20H
0338   4598 23                  INX H
0339   4599 0B                  DCX B
0340   459A 78                  MOV A,B
0341   459B B1                  ORA C
0342   459C C2 96 45            JNZ L1211
0343   459F E1                  POP H
0344   45A0 C9                  RET
;
0345   45A1 CD 82 43    L1150:  CALL L1186
0346   45A4 3A 57 F6            LDA 0F657H
0347   45A7 87                  ADD A
0348   45A8 F0                  RP
0349   45A9 11 C0 FC            LXI D,0FCC0H
0350   45AC 21 E8 FC            LXI H,0FCE8H
0351   45AF 01 40 01            LXI B,0140H
0352   45B2 C3 FB 68            JMP L0683
0353   45B5 CD B4 70    L1418:  CALL L1163
0354   45B8 2E 01               MVI L,01H
0355   45BA 26 01       L1213:  MVI H,01H
0356   45BC CD DC 44    L1212:  CALL L1190
0357   45BF CD 23 45            CALL L1191
0358   45C2 24                  INR H
0359   45C3 7C                  MOV A,H
0360   45C4 FE 29               CPI 29H
0361   45C6 C2 BC 45            JNZ L1212
0362   45C9 2C                  INR L
0363   45CA 7D                  MOV A,L
0364   45CB FE 09               CPI 09H
0365   45CD C2 BA 45            JNZ L1213
0366   45D0 C3 10 43            JMP L1214
0367   45D3 21 C0 FC    L1416:  LXI H,0FCC0H
0368   45D6 1E 01               MVI E,01H
0369   45D8 16 01       L1216:  MVI D,01H
0370   45DA E5          L1215:  PUSH H
0371   45DB D5                  PUSH D
0372   45DC 4E                  MOV C,M
0373   45DD CD DD 70            CALL L1206
0374   45E0 D1                  POP D
0375   45E1 E1                  POP H
0376   45E2 23                  INX H
0377   45E3 14                  INR D
0378   45E4 7A                  MOV A,D
0379   45E5 FE 29               CPI 29H
0380   45E7 C2 DA 45            JNZ L1215
0381   45EA 1C                  INR E
0382   45EB 7B                  MOV A,E
0383   45EC FE 09               CPI 09H
0384   45EE C2 D8 45            JNZ L1216
0385   45F1 C9                  RET
;463EH -  Input line and place at F685H.  Print characters as they are
;        entered.  Start input with a "? ".
;         Exit:
;            F685H - Text input from keyboard
;               HL - Loaded with F685H
;           C flag - Set if input aborted by a control C
0386   45F2 3E 3F       L0260:  MVI A,3FH
0387   45F4 E7                  RST 4
0388   45F5 3E 20               MVI A,20H
0389   45F7 E7                  RST 4
;4644H -  Same as 463EH but no "? " is printed.
0390   45F8 CD F6 41    L0088:  CALL L0092
0391   45FB C2 BA 46            JNZ L1217
0392   45FE 3A 41 F6            LDA 0F641H
0393   4601 32 D1 FA            STA 0FAD1H
0394   4604 11 8C F6            LXI D,0F68CH
0395   4607 06 01               MVI B,01H
0396   4609 CD D4 12            CALL L1218
0397   460C 21 09 46            LXI H,4609H
0398   460F E5                  PUSH H
0399   4610 D8                  RC
0400   4611 FE 7F               CPI 7FH
0401   4613 CA 57 46            JZ L1219
0402   4616 FE 20               CPI 20H
0403   4618 D2 83 46            JNC L1220
0404   461B 21 21 46            LXI H,4621H
0405   461E 0E 07               MVI C,07H
0406   4620 C3 58 43            JMP L1174
0407   4623 03                  INX B
0408   4624 38                  UNRECOGNIZED
0409   4625 46                  MOV B,M
0410   4626 08                  UNRECOGNIZED
0411   4627 57                  MOV D,A
0412   4628 46                  MOV B,M
0413   4629 09                  DAD B
0414   462A 81                  ADD C
0415   462B 46                  MOV B,M
0416   462C 0D                  DCR C
0417   462D 4B                  MOV C,E
0418   462E 46                  MOV B,M
0419   462F 15                  DCR D
0420   4630 7A                  MOV A,D
0421   4631 46                  MOV B,M
0422   4632 18                  UNRECOGNIZED
0423   4633 7A                  MOV A,D
0424   4634 46                  MOV B,M
0425   4635 1D                  DCR E
0426   4636 57                  MOV D,A
0427   4637 46                  MOV B,M
0428   4638 E1                  POP H
0429   4639 3E 5E               MVI A,5EH
0430   463B E7                  RST 4
0431   463C 3E 43               MVI A,43H
0432   463E E7                  RST 4
0433   463F CD FE 41            CALL L0562
0434   4642 21 8C F6            LXI H,0F68CH
0435   4645 36 00       L0026:  MVI M,00H
0436   4647 37                  STC
0437   4648 C3 51 46            JMP L1221
0438   464B E1                  POP H
0439   464C CD FE 41            CALL L0562
0440   464F AF          L0054:  XRA A
0441   4650 12                  STAX D
0442   4651 21 8B F6    L1221:  LXI H,0F68BH
0443   4654 36 2C               MVI M,2CH
0444   4656 C9                  RET
;46A0H -  Input routine 463EH backspace, left arrow, control H handler
0445   4657 78          L1219:  MOV A,B
0446   4658 3D                  DCR A
0447   4659 37                  STC
0448   465A C8                  RZ
0449   465B 05                  DCR B
0450   465C 1B                  DCX D
0451   465D CD 8F 46            CALL L1222
0452   4660 F5          L1224:  PUSH PSW
0453   4661 3E 7F               MVI A,7FH
0454   4663 E7                  RST 4
0455   4664 2A 40 F6            LHLD 0F640H
0456   4667 2D                  DCR L
0457   4668 25                  DCR H
0458   4669 7C                  MOV A,H
0459   466A B5                  ORA L
0460   466B CA 77 46            JZ L1223
0461   466E 21 41 F6            LXI H,0F641H
0462   4671 F1                  POP PSW
0463   4672 BE                  CMP M
0464   4673 C2 60 46            JNZ L1224
0465   4676 C9                  RET
;
0466   4677 F1          L1223:  POP PSW
0467   4678 37                  STC
0468   4679 C9                  RET
;46C3H -  Input routine 463EH Control U & X handler
0469   467A CD 57 46    L1225:  CALL L1219
0470   467D D2 7A 46            JNC L1225
0471   4680 C9                  RET
;46CAH -  Input routine 463EH Tab handler
0472   4681 3E 09               MVI A,09H
0473   4683 04          L1220:  INR B
0474   4684 CA 8B 46            JZ L1226
0475   4687 E7                  RST 4
0476   4688 12                  STAX D
0477   4689 13                  INX D
0478   468A C9                  RET
;
0479   468B 05          L1226:  DCR B
0480   468C C3 05 42            JMP L0722
0481   468F C5          L1222:  PUSH B
0482   4690 3A D1 FA            LDA 0FAD1H
0483   4693 05                  DCR B
0484   4694 CA B8 46            JZ L1227
0485   4697 4F                  MOV C,A
0486   4698 21 8C F6            LXI H,0F68CH
0487   469B 0C          L1229:  INR C
0488   469C 7E                  MOV A,M
0489   469D FE 09               CPI 09H
0490   469F C2 A9 46            JNZ L1228
0491   46A2 79                  MOV A,C
0492   46A3 3D                  DCR A
0493   46A4 E6 07               ANI 07H
0494   46A6 C2 9B 46            JNZ L1229
0495   46A9 3A 43 F6    L1228:  LDA 0F643H
0496   46AC B9                  CMP C
0497   46AD D2 B2 46            JNC L1230
0498   46B0 0E 01               MVI C,01H
0499   46B2 23          L1230:  INX H
0500   46B3 05                  DCR B
0501   46B4 C2 9B 46            JNZ L1229
0502   46B7 79                  MOV A,C
0503   46B8 C1          L1227:  POP B
0504   46B9 C9                  RET
;
0505   46BA 2A 9E FC    L1217:  LHLD 0FC9EH
0506   46BD E5                  PUSH H
0507   46BE 23                  INX H
0508   46BF 23                  INX H
0509   46C0 23                  INX H
0510   46C1 23                  INX H
0511   46C2 7E                  MOV A,M
0512   46C3 D6 F9               SUI 0F9H
0513   46C5 C2 DF 46            JNZ L1231
0514   46C8 6F                  MOV L,A
0515   46C9 67                  MOV H,A
0516   46CA 22 9E FC            SHLD 0FC9EH
0517   46CD 21 CB FA            LXI H,0FACBH
0518   46D0 34                  INR M
0519   46D1 7E                  MOV A,M
0520   46D2 0F                  RRC
0521   46D3 D4 45 42            CNC L1160
0522   46D6 21 DB 52            LXI H,52DBH
0523   46D9 CD 8A 27            CALL L0084
0524   46DC CD 4A 42            CALL L1153
0525   46DF E1          L1231:  POP H
0526   46E0 22 9E FC            SHLD 0FC9EH
0527   46E3 06 FF               MVI B,0FFH
0528   46E5 21 8C F6            LXI H,0F68CH
0529   46E8 AF          L1236:  XRA A
0530   46E9 32 A9 FA            STA 0FAA9H
0531   46EC 32 AA FA            STA 0FAAAH
0532   46EF CD 46 4E            CALL L1232
0533   46F2 DA 10 47            JC L1233
0534   46F5 77                  MOV M,A
0535   46F6 FE 0D               CPI 0DH
0536   46F8 CA 0A 47            JZ L1234
0537   46FB FE 09               CPI 09H
0538   46FD CA 05 47            JZ L1235
0539   4700 FE 20               CPI 20H
0540   4702 DA E8 46            JC L1236
0541   4705 23          L1235:  INX H
0542   4706 05                  DCR B
0543   4707 C2 E8 46            JNZ L1236
0544   470A AF          L1234:  XRA A
0545   470B 77                  MOV M,A
0546   470C 21 8B F6            LXI H,0F68BH
0547   470F C9                  RET
;
0548   4710 04          L1233:  INR B
0549   4711 C2 0A 47            JNZ L1234
0550   4714 3A B9 FC            LDA 0FCB9H
0551   4717 E6 80               ANI 80H
0552   4719 32 B9 FC            STA 0FCB9H
0553   471C CD 0C 4F            CALL L0087
0554   471F 3E 0D               MVI A,0DH
0555   4721 E7                  RST 4
0556   4722 CD 39 42            CALL L0742
0557   4725 3A A4 FC            LDA 0FCA4H
0558   4728 A7                  ANA A
0559   4729 CA 32 47            JZ L1237
0560   472C CD 04 3F            CALL L0105
0561   472F C3 0B 08            JMP L0700
0562   4732 3A 58 F6    L1237:  LDA 0F658H
0563   4735 A7                  ANA A
0564   4736 C2 DA 5B            JNZ L1238
0565   4739 C3 08 05            JMP L0178
0566   473C 2B                  DCX H
0567   473D D7                  RST 2
0568   473E C8                  RZ
0569   473F CF                  RST 1
0570   4740 2C                  INR L
;478BH -  DIM Statement
0571   4741 01 3C 47            LXI B,473CH
0572   4744 C5                  PUSH B
0573   4745 F6 AF               ORI 0AFH
;4790H -  Find the address of the variable in the buffer pointed to by
;        HL.  This routine returns the same result as BASIC's VARPTR
;        instruction.
;         Entry:
;               HL - Points to the buffer containing the variable name
;         Exit:
;               HL - Incremented past variable name
;               DE - Address of variable descriptor table (like VARPTR)
;          (FB65H) - Variable type
;      4790 AF                  XRA A
0574   4747 32 76 FB            STA 0FB76H
0575   474A 4E                  MOV C,M
0576   474B CD CD 40            CALL L0163
0577   474E DA 4D 04            JC L0002
0578   4751 AF                  XRA A
0579   4752 47                  MOV B,A
0580   4753 D7                  RST 2
0581   4754 DA 5D 47            JC L1239
0582   4757 CD CE 40            CALL L0308
0583   475A DA 68 47            JC L1240
0584   475D 47          L1239:  MOV B,A
0585   475E D7          L1241:  RST 2
0586   475F DA 5E 47            JC L1241
0587   4762 CD CE 40            CALL L0308
0588   4765 D2 5E 47            JNC L1241
0589   4768 FE 26       L1240:  CPI 26H
0590   476A D2 84 47            JNC L1242
0591   476D 11 92 47            LXI D,4792H
0592   4770 D5                  PUSH D
0593   4771 16 02               MVI D,02H
0594   4773 FE 25               CPI 25H
0595   4775 C8                  RZ
0596   4776 14                  INR D
0597   4777 FE 24               CPI 24H
0598   4779 C8                  RZ
0599   477A 14                  INR D
0600   477B FE 21               CPI 21H
0601   477D C8                  RZ
0602   477E 16 08               MVI D,08H
0603   4780 FE 23               CPI 23H
0604   4782 C8                  RZ
0605   4783 F1                  POP PSW
0606   4784 79          L1242:  MOV A,C
0607   4785 E6 7F               ANI 7FH
0608   4787 5F                  MOV E,A
0609   4788 16 00               MVI D,00H
0610   478A E5                  PUSH H
0611   478B 21 8B FB            LXI H,0FB8BH
0612   478E 19                  DAD D
0613   478F 56                  MOV D,M
0614   4790 E1                  POP H
0615   4791 2B                  DCX H
0616   4792 7A                  MOV A,D
0617   4793 32 77 FB            STA 0FB77H
0618   4796 D7                  RST 2
0619   4797 3A A8 FB            LDA 0FBA8H
0620   479A 3D                  DCR A
0621   479B CA 8A 48            JZ L1243
0622   479E F2 A7 47            JP L1244
0623   47A1 7E                  MOV A,M
0624   47A2 D6 28               SUI 28H
0625   47A4 CA 64 48            JZ L1245
0626   47A7 AF          L1244:  XRA A
0627   47A8 32 A8 FB            STA 0FBA8H
0628   47AB E5                  PUSH H
0629   47AC 3A F3 FB            LDA 0FBF3H
0630   47AF B7                  ORA A
0631   47B0 32 F0 FB            STA 0FBF0H
0632   47B3 CA F7 47            JZ L1246
0633   47B6 2A E8 FB            LHLD 0FBE8H
0634   47B9 11 EA FB            LXI D,0FBEAH
0635   47BC 19                  DAD D
0636   47BD 22 F1 FB            SHLD 0FBF1H
0637   47C0 EB                  XCHG
0638   47C1 C3 DD 47            JMP L1247
0639   47C4 1A          L1250:  LDAX D
0640   47C5 6F                  MOV L,A
0641   47C6 13                  INX D
0642   47C7 1A                  LDAX D
0643   47C8 13                  INX D
0644   47C9 B9                  CMP C
0645   47CA C2 D9 47            JNZ L1248
0646   47CD 3A 77 FB            LDA 0FB77H
0647   47D0 BD                  CMP L
0648   47D1 C2 D9 47            JNZ L1248
0649   47D4 1A                  LDAX D
0650   47D5 B8                  CMP B
0651   47D6 CA 4D 48            JZ L1249
0652   47D9 13          L1248:  INX D
0653   47DA 26 00               MVI H,00H
0654   47DC 19                  DAD D
0655   47DD EB          L1247:  XCHG
0656   47DE 3A F1 FB            LDA 0FBF1H
0657   47E1 BB                  CMP E
0658   47E2 C2 C4 47            JNZ L1250
0659   47E5 3A F2 FB            LDA 0FBF2H
0660   47E8 BA                  CMP D
0661   47E9 C2 C4 47            JNZ L1250
0662   47EC 3A F0 FB            LDA 0FBF0H
0663   47EF B7                  ORA A
0664   47F0 CA 0C 48            JZ L1251
0665   47F3 AF                  XRA A
0666   47F4 32 F0 FB            STA 0FBF0H
0667   47F7 2A C6 FB    L1246:  LHLD 0FBC6H
0668   47FA 22 F1 FB            SHLD 0FBF1H
0669   47FD 2A C4 FB            LHLD 0FBC4H
0670   4800 C3 DD 47            JMP L1247
0671   4803 CD 46 47    L0325:  CALL L0182
0672   4806 C9                  RET
;
0673   4807 57          L1252:  MOV D,A
0674   4808 5F                  MOV E,A
0675   4809 C1                  POP B
0676   480A E3                  XTHL
0677   480B C9                  RET
;
0678   480C E1          L1251:  POP H
0679   480D E3                  XTHL
0680   480E D5                  PUSH D
0681   480F 11 06 48            LXI D,4806H
0682   4812 DF                  RST 3
0683   4813 CA 07 48            JZ L1252
0684   4816 11 E4 0F            LXI D,0FE4H
0685   4819 DF                  RST 3
0686   481A D1                  POP D
0687   481B CA 50 48            JZ L1253
0688   481E E3                  XTHL
0689   481F E5                  PUSH H
0690   4820 C5                  PUSH B
0691   4821 3A 77 FB            LDA 0FB77H
0692   4824 4F                  MOV C,A
0693   4825 C5                  PUSH B
0694   4826 06 00               MVI B,00H
0695   4828 03                  INX B
0696   4829 03                  INX B
0697   482A 03                  INX B
0698   482B 2A C8 FB            LHLD 0FBC8H
0699   482E E5                  PUSH H
0700   482F 09                  DAD B
0701   4830 C1                  POP B
0702   4831 E5                  PUSH H
0703   4832 CD CC 3E            CALL L0102
0704   4835 E1                  POP H
0705   4836 22 C8 FB            SHLD 0FBC8H
0706   4839 60                  MOV H,B
0707   483A 69                  MOV L,C
0708   483B 22 C6 FB            SHLD 0FBC6H
0709   483E 2B          L1254:  DCX H
0710   483F 36 00               MVI M,00H
0711   4841 DF                  RST 3
0712   4842 C2 3E 48            JNZ L1254
0713   4845 D1                  POP D
0714   4846 73                  MOV M,E
0715   4847 23                  INX H
0716   4848 D1                  POP D
0717   4849 73                  MOV M,E
0718   484A 23                  INX H
0719   484B 72                  MOV M,D
0720   484C EB                  XCHG
0721   484D 13          L1249:  INX D
0722   484E E1                  POP H
0723   484F C9                  RET
;
0724   4850 32 2A FC    L1253:  STA 0FC2AH
0725   4853 67                  MOV H,A
0726   4854 6F                  MOV L,A
0727   4855 22 2C FC            SHLD 0FC2CH
0728   4858 EF                  RST 5
0729   4859 C2 62 48            JNZ L1255
0730   485C 21 FC 03            LXI H,03FCH
0731   485F 22 2C FC            SHLD 0FC2CH
0732   4862 E1          L1255:  POP H
0733   4863 C9                  RET
;
0734   4864 E5          L1245:  PUSH H
0735   4865 2A 76 FB            LHLD 0FB76H
0736   4868 E3                  XTHL
0737   4869 57                  MOV D,A
0738   486A D5          L1257:  PUSH D
0739   486B C5                  PUSH B
0740   486C CD DD 08            CALL L1256
0741   486F C1                  POP B
0742   4870 F1                  POP PSW
0743   4871 EB                  XCHG
0744   4872 E3                  XTHL
0745   4873 E5                  PUSH H
0746   4874 EB                  XCHG
0747   4875 3C                  INR A
0748   4876 57                  MOV D,A
0749   4877 7E                  MOV A,M
0750   4878 FE 2C               CPI 2CH
0751   487A CA 6A 48            JZ L1257
0752   487D CF                  RST 1
0753   487E 29                  DAD H
0754   487F 22 BA FB            SHLD 0FBBAH
0755   4882 E1                  POP H
0756   4883 22 76 FB            SHLD 0FB76H
0757   4886 1E 00               MVI E,00H
0758   4888 D5                  PUSH D
0759   4889 11 E5 F5            LXI D,0F5E5H
0760   488C 2A C6 FB            LHLD 0FBC6H
0761   488F 3E 19               MVI A,19H
0762   4891 EB                  XCHG
0763   4892 2A C8 FB            LHLD 0FBC8H
0764   4895 EB                  XCHG
0765   4896 DF                  RST 3
0766   4897 CA CA 48            JZ L1258
0767   489A 5E                  MOV E,M
0768   489B 23                  INX H
0769   489C 7E                  MOV A,M
0770   489D 23                  INX H
0771   489E B9                  CMP C
0772   489F C2 AB 48            JNZ L1259
0773   48A2 3A 77 FB            LDA 0FB77H
0774   48A5 BB                  CMP E
0775   48A6 C2 AB 48            JNZ L1259
0776   48A9 7E                  MOV A,M
0777   48AA B8                  CMP B
0778   48AB 23          L1259:  INX H
0779   48AC 5E                  MOV E,M
0780   48AD 23                  INX H
0781   48AE 56                  MOV D,M
0782   48AF 23                  INX H
0783   48B0 C2 90 48            JNZ L1260
0784   48B3 3A 76 FB            LDA 0FB76H
0785   48B6 B7                  ORA A
0786   48B7 C2 56 04            JNZ L1261
0787   48BA F1                  POP PSW
0788   48BB 44                  MOV B,H
0789   48BC 4D                  MOV C,L
0790   48BD CA 17 38            JZ L1262
0791   48C0 96                  SUB M
0792   48C1 CA 28 49            JZ L1263
0793   48C4 11 09 00    L0957:  LXI D,0009H
0794   48C7 C3 64 04            JMP L0072
0795   48CA 3A 77 FB    L1258:  LDA 0FB77H
0796   48CD 77                  MOV M,A
0797   48CE 23                  INX H
0798   48CF 5F                  MOV E,A
0799   48D0 16 00               MVI D,00H
0800   48D2 F1                  POP PSW
0801   48D3 CA E2 08            JZ L0214
0802   48D6 71                  MOV M,C
0803   48D7 23                  INX H
0804   48D8 70                  MOV M,B
0805   48D9 23                  INX H
0806   48DA 4F                  MOV C,A
0807   48DB CD DB 3E            CALL L0132
0808   48DE 23                  INX H
0809   48DF 23                  INX H
0810   48E0 22 A0 FB            SHLD 0FBA0H
0811   48E3 71                  MOV M,C
0812   48E4 23                  INX H
0813   48E5 3A 76 FB            LDA 0FB76H
0814   48E8 17                  RAL
0815   48E9 79                  MOV A,C
0816   48EA 01 0B 00    L1266:  LXI B,000BH
0817   48ED D2 F2 48            JNC L1264
0818   48F0 C1                  POP B
0819   48F1 03                  INX B
0820   48F2 71          L1264:  MOV M,C
0821   48F3 F5                  PUSH PSW
0822   48F4 23                  INX H
0823   48F5 70                  MOV M,B
0824   48F6 23                  INX H
0825   48F7 CD B1 36            CALL L1265
0826   48FA F1                  POP PSW
0827   48FB 3D                  DCR A
0828   48FC C2 EA 48            JNZ L1266
0829   48FF F5                  PUSH PSW
0830   4900 42                  MOV B,D
0831   4901 4B                  MOV C,E
0832   4902 EB                  XCHG
0833   4903 19                  DAD D
0834   4904 DA F3 3E            JC L0470
0835   4907 CD E4 3E            CALL L1101
0836   490A 22 C8 FB            SHLD 0FBC8H
0837   490D 2B          L1267:  DCX H
0838   490E 36 00               MVI M,00H
0839   4910 DF                  RST 3
0840   4911 C2 0D 49            JNZ L1267
0841   4914 03                  INX B
0842   4915 57                  MOV D,A
0843   4916 2A A0 FB            LHLD 0FBA0H
0844   4919 5E                  MOV E,M
0845   491A EB                  XCHG
0846   491B 29                  DAD H
0847   491C 09                  DAD B
0848   491D EB                  XCHG
0849   491E 2B                  DCX H
0850   491F 2B                  DCX H
0851   4920 73                  MOV M,E
0852   4921 23                  INX H
0853   4922 72                  MOV M,D
0854   4923 23                  INX H
0855   4924 F1                  POP PSW
0856   4925 DA 5B 49            JC L1268
0857   4928 47          L1263:  MOV B,A
0858   4929 4F                  MOV C,A
0859   492A 7E                  MOV A,M
0860   492B 23                  INX H
0861   492C 16 E1               MVI D,0E1H
0862   492E 5E                  MOV E,M
0863   492F 23                  INX H
0864   4930 56                  MOV D,M
0865   4931 23                  INX H
0866   4932 E3                  XTHL
0867   4933 F5                  PUSH PSW
0868   4934 DF                  RST 3
0869   4935 D2 C4 48            JNC L0957
0870   4938 CD B1 36            CALL L1265
0871   493B 19                  DAD D
0872   493C F1                  POP PSW
0873   493D 3D                  DCR A
0874   493E 44                  MOV B,H
0875   493F 4D                  MOV C,L
0876   4940 C2 2D 49            JNZ L1269
0877   4943 3A 77 FB            LDA 0FB77H
0878   4946 44          L0024:  MOV B,H
0879   4947 4D                  MOV C,L
0880   4948 29                  DAD H
0881   4949 D6 04               SUI 04H
0882   494B DA 53 49            JC L1270
0883   494E 29                  DAD H
0884   494F CA 58 49            JZ L1271
0885   4952 29                  DAD H
0886   4953 B7          L1270:  ORA A
0887   4954 E2 58 49            JPO L1271
0888   4957 09                  DAD B
0889   4958 C1          L1271:  POP B
0890   4959 09                  DAD B
0891   495A EB                  XCHG
0892   495B 2A BA FB    L1268:  LHLD 0FBBAH
0893   495E C9                  RET
;4991H -  USING Function
0894   495F CD B3 0D    L0228:  CALL L0149
0895   4962 CD B2 35            CALL L0253
0896   4965 CF                  RST 1
0897   4966 3B                  DCX SP
0898   4967 EB                  XCHG
0899   4968 2A 2C FC            LHLD 0FC2CH
0900   496B C3 77 49            JMP L1272
0901   496E 3A AA FB    L1300:  LDA 0FBAAH
0902   4971 B7                  ORA A
0903   4972 CA 82 49            JZ L1273
0904   4975 D1                  POP D
0905   4976 EB                  XCHG
0906   4977 E5          L1272:  PUSH H
0907   4978 AF                  XRA A
0908   4979 32 AA FB            STA 0FBAAH
0909   497C 3C                  INR A
0910   497D F5                  PUSH PSW
0911   497E D5                  PUSH D
0912   497F 46                  MOV B,M
0913   4980 04                  INR B
0914   4981 05                  DCR B
0915   4982 CA E2 08    L1273:  JZ L0214
0916   4985 23                  INX H
0917   4986 7E                  MOV A,M
0918   4987 23                  INX H
0919   4988 66                  MOV H,M
0920   4989 6F                  MOV L,A
0921   498A C3 AA 49            JMP L1274
0922   498D 58          L1284:  MOV E,B
0923   498E E5                  PUSH H
0924   498F 0E 02               MVI C,02H
0925   4991 7E          L1277:  MOV A,M
0926   4992 23                  INX H
0927   4993 FE 5C               CPI 5CH
0928   4995 CA D5 4A            JZ L1275
0929   4998 FE 20               CPI 20H
0930   499A C2 A2 49            JNZ L1276
0931   499D 0C                  INR C
0932   499E 05                  DCR B
0933   499F C2 91 49            JNZ L1277
0934   49A2 E1          L1276:  POP H
0935   49A3 43                  MOV B,E
0936   49A4 3E 5C               MVI A,5CH
0937   49A6 CD 08 4B    L1285:  CALL L1278
0938   49A9 E7                  RST 4
0939   49AA AF          L1274:  XRA A
0940   49AB 5F                  MOV E,A
0941   49AC 57                  MOV D,A
0942   49AD CD 08 4B    L1282:  CALL L1278
0943   49B0 57                  MOV D,A
0944   49B1 7E                  MOV A,M
0945   49B2 23                  INX H
0946   49B3 FE 21               CPI 21H
0947   49B5 CA D2 4A            JZ L1279
0948   49B8 FE 23               CPI 23H
0949   49BA CA FC 49            JZ L1280
0950   49BD 05                  DCR B
0951   49BE CA BE 4A            JZ L1281
0952   49C1 FE 2B               CPI 2BH
0953   49C3 3E 08               MVI A,08H
0954   49C5 CA AD 49            JZ L1282
0955   49C8 2B                  DCX H
0956   49C9 7E                  MOV A,M
0957   49CA 23                  INX H
0958   49CB FE 2E               CPI 2EH
0959   49CD CA 1B 4A            JZ L1283
0960   49D0 FE 5C               CPI 5CH
0961   49D2 CA 8D 49            JZ L1284
0962   49D5 BE                  CMP M
0963   49D6 C2 A6 49            JNZ L1285
0964   49D9 FE 24               CPI 24H
0965   49DB CA F5 49            JZ L1286
0966   49DE FE 2A               CPI 2AH
0967   49E0 C2 A6 49            JNZ L1285
0968   49E3 23                  INX H
0969   49E4 78                  MOV A,B
0970   49E5 FE 02               CPI 02H
0971   49E7 DA ED 49            JC L1287
0972   49EA 7E                  MOV A,M
0973   49EB FE 24               CPI 24H
0974   49ED 3E 20       L1287:  MVI A,20H
0975   49EF C2 F9 49            JNZ L1288
0976   49F2 05                  DCR B
0977   49F3 1C                  INR E
0978   49F4 FE AF               CPI 0AFH
0979   49F6 C6 10               ADI 10H
0980   49F8 23                  INX H
0981   49F9 1C          L1288:  INR E
0982   49FA 82                  ADD D
0983   49FB 57                  MOV D,A
0984   49FC 1C          L1280:  INR E
0985   49FD 0E 00               MVI C,00H
0986   49FF 05                  DCR B
0987   4A00 CA 51 4A            JZ L1289
0988   4A03 7E                  MOV A,M
0989   4A04 23                  INX H
0990   4A05 FE 2E               CPI 2EH
0991   4A07 CA 26 4A            JZ L1290
0992   4A0A FE 23               CPI 23H
0993   4A0C CA FC 49            JZ L1280
0994   4A0F FE 2C               CPI 2CH
0995   4A11 C2 32 4A            JNZ L1291
0996   4A14 7A                  MOV A,D
0997   4A15 F6 40               ORI 40H
0998   4A17 57                  MOV D,A
0999   4A18 C3 FC 49            JMP L1280
1000   4A1B 7E          L1283:  MOV A,M
1001   4A1C FE 23               CPI 23H
1002   4A1E 3E 2E               MVI A,2EH
1003   4A20 C2 A6 49            JNZ L1285
1004   4A23 0E 01               MVI C,01H
1005   4A25 23                  INX H
1006   4A26 0C          L1290:  INR C
1007   4A27 05                  DCR B
1008   4A28 CA 51 4A            JZ L1289
1009   4A2B 7E                  MOV A,M
1010   4A2C 23                  INX H
1011   4A2D FE 23               CPI 23H
1012   4A2F CA 26 4A            JZ L1290
1013   4A32 D5          L1291:  PUSH D
1014   4A33 11 4F 4A            LXI D,4A4FH
1015   4A36 D5                  PUSH D
1016   4A37 54                  MOV D,H
1017   4A38 5D                  MOV E,L
1018   4A39 FE 5E               CPI 5EH
1019   4A3B C0                  RNZ
1020   4A3C BE                  CMP M
1021   4A3D C0                  RNZ
1022   4A3E 23                  INX H
1023   4A3F BE                  CMP M
1024   4A40 C0                  RNZ
1025   4A41 23                  INX H
1026   4A42 BE                  CMP M
1027   4A43 C0                  RNZ
1028   4A44 23                  INX H
1029   4A45 78                  MOV A,B
1030   4A46 D6 04               SUI 04H
1031   4A48 D8                  RC
1032   4A49 D1                  POP D
1033   4A4A D1                  POP D
1034   4A4B 47                  MOV B,A
1035   4A4C 14                  INR D
1036   4A4D 23                  INX H
1037   4A4E CA EB D1            JZ L1292
1038   4A51 7A          L1289:  MOV A,D
1039   4A52 2B                  DCX H
1040   4A53 1C                  INR E
1041   4A54 E6 08               ANI 08H
1042   4A56 C2 71 4A            JNZ L1293
1043   4A59 1D                  DCR E
1044   4A5A 78                  MOV A,B
1045   4A5B B7                  ORA A
1046   4A5C CA 71 4A            JZ L1293
1047   4A5F 7E                  MOV A,M
1048   4A60 D6 2D               SUI 2DH
1049   4A62 CA 6C 4A            JZ L1294
1050   4A65 FE FE               CPI 0FEH
1051   4A67 C2 71 4A            JNZ L1293
1052   4A6A 3E 08               MVI A,08H
1053   4A6C C6 04       L1294:  ADI 04H
1054   4A6E 82                  ADD D
1055   4A6F 57                  MOV D,A
1056   4A70 05                  DCR B
1057   4A71 E1          L1293:  POP H
1058   4A72 F1                  POP PSW
1059   4A73 CA C7 4A            JZ L1295
1060   4A76 C5                  PUSH B
1061   4A77 D5                  PUSH D
1062   4A78 CD B2 0D            CALL L0134
1063   4A7B D1                  POP D
1064   4A7C C1                  POP B
1065   4A7D C5                  PUSH B
1066   4A7E E5                  PUSH H
1067   4A7F 43                  MOV B,E
1068   4A80 78                  MOV A,B
1069   4A81 81                  ADD C
1070   4A82 FE 19               CPI 19H
1071   4A84 D2 E2 08            JNC L0214
1072   4A87 7A                  MOV A,D
1073   4A88 F6 80               ORI 80H
1074   4A8A CD C2 39            CALL L1296
1075   4A8D CD 8A 27            CALL L0084
1076   4A90 E1          L1302:  POP H
1077   4A91 2B                  DCX H
1078   4A92 D7                  RST 2
1079   4A93 37                  STC
1080   4A94 CA A5 4A            JZ L1297
1081   4A97 32 AA FB            STA 0FBAAH
1082   4A9A FE 3B               CPI 3BH
1083   4A9C CA A4 4A            JZ L1298
1084   4A9F FE 2C               CPI 2CH
1085   4AA1 C2 4D 04            JNZ L0002
1086   4AA4 D7          L1298:  RST 2
1087   4AA5 C1          L1297:  POP B
1088   4AA6 EB                  XCHG
1089   4AA7 E1                  POP H
1090   4AA8 E5                  PUSH H
1091   4AA9 F5                  PUSH PSW
1092   4AAA D5                  PUSH D
1093   4AAB 7E                  MOV A,M
1094   4AAC 90                  SUB B
1095   4AAD 23                  INX H
1096   4AAE 16 00               MVI D,00H
1097   4AB0 5F                  MOV E,A
1098   4AB1 7E                  MOV A,M
1099   4AB2 23                  INX H
1100   4AB3 66                  MOV H,M
1101   4AB4 6F                  MOV L,A
1102   4AB5 19                  DAD D
1103   4AB6 78                  MOV A,B
1104   4AB7 B7                  ORA A
1105   4AB8 C2 AA 49            JNZ L1274
1106   4ABB C3 C2 4A            JMP L1299
1107   4ABE CD 08 4B    L1281:  CALL L1278
1108   4AC1 E7                  RST 4
1109   4AC2 E1          L1299:  POP H
1110   4AC3 F1                  POP PSW
1111   4AC4 C2 6E 49            JNZ L1300
1112   4AC7 DC 99 4B    L1295:  CC L0226
1113   4ACA E3                  XTHL
1114   4ACB CD F5 28            CALL L0766
1115   4ACE E1                  POP H
1116   4ACF C3 40 0C            JMP L0227
1117   4AD2 0E 01       L1279:  MVI C,01H
1118   4AD4 3E F1               MVI A,0F1H
1119   4AD6 05                  DCR B
1120   4AD7 CD 08 4B            CALL L1278
1121   4ADA E1                  POP H
1122   4ADB F1                  POP PSW
1123   4ADC CA C7 4A            JZ L1295
1124   4ADF C5                  PUSH B
1125   4AE0 CD B2 0D            CALL L0134
1126   4AE3 CD B2 35            CALL L0253
1127   4AE6 C1                  POP B
1128   4AE7 C5                  PUSH B
1129   4AE8 E5                  PUSH H
1130   4AE9 2A 2C FC            LHLD 0FC2CH
1131   4AEC 41                  MOV B,C
1132   4AED 0E 00               MVI C,00H
1133   4AEF 78                  MOV A,B
1134   4AF0 F5                  PUSH PSW
1135   4AF1 CD 8B 29            CALL L1301
1136   4AF4 CD 8D 27            CALL L0239
1137   4AF7 2A 2C FC            LHLD 0FC2CH
1138   4AFA F1                  POP PSW
1139   4AFB 96                  SUB M
1140   4AFC 47                  MOV B,A
1141   4AFD 3E 20               MVI A,20H
1142   4AFF 04                  INR B
1143   4B00 05          L1303:  DCR B
1144   4B01 CA 90 4A            JZ L1302
1145   4B04 E7                  RST 4
1146   4B05 C3 00 4B            JMP L1303
1147   4B08 F5          L1278:  PUSH PSW
1148   4B09 7A                  MOV A,D
1149   4B0A B7                  ORA A
1150   4B0B 3E 2B               MVI A,2BH
1151   4B0D C4 12 4B            CNZ L0004
1152   4B10 F1                  POP PSW
1153   4B11 C9                  RET
;4B44H -  Vector of RST 20H.  Send the character in A to the screen or
        printer (see RST 20H).
1154   4B12 F5          L0004:  PUSH PSW
1155   4B13 E5                  PUSH H
1156   4B14 CD F6 41            CALL L0092
1157   4B17 C2 1E 4E            JNZ L1304
1158   4B1A E1                  POP H
1159   4B1B 3A 7C F6            LDA 0F67CH
1160   4B1E B7                  ORA A
1161   4B1F CA 78 4B            JZ L1305
1162   4B22 F1                  POP PSW
;4B55H -  Print the character in the A register on the printer.  Expand
;        tabs into spaces if nescessary.
;         Entry:
;                A - Character to output
1163   4B23 F5          L0488:  PUSH PSW
1164   4B24 FE 09               CPI 09H
1165   4B26 C2 38 4B            JNZ L1306
1166   4B29 3E 20       L1307:  MVI A,20H
1167   4B2B CD 23 4B            CALL L0488
1168   4B2E 3A 7B F6            LDA 0F67BH
1169   4B31 E6 07               ANI 07H
1170   4B33 C2 29 4B            JNZ L1307
1171   4B36 F1                  POP PSW
1172   4B37 C9                  RET
1173   4B38 D6 0D       L1306:  SUI 0DH
1174   4B3A CA 49 4B            JZ L1308
1175   4B3D DA 4C 4B            JC L1309
1176   4B40 FE 13               CPI 13H
1177   4B42 DA 4C 4B            JC L1309
1178   4B45 3A 7B F6            LDA 0F67BH
1179   4B48 3C                  INR A
1180   4B49 32 7B F6    L1308:  STA 0F67BH
1181   4B4C F1          L1309:  POP PSW
1182   4B4D FE 0A       L1311:  CPI 0AH
1183   4B4F C2 5B 4B            JNZ L1310
1184   4B52 C5                  PUSH B
1185   4B53 47          L0020:  MOV B,A
1186   4B54 3A B3 FA            LDA 0FAB3H
1187   4B57 FE 0D               CPI 0DH
1188   4B59 78                  MOV A,B
1189   4B5A C1                  POP B
1190   4B5B 32 B3 FA    L1310:  STA 0FAB3H
1191   4B5E C8                  RZ
1192   4B5F FE 1A               CPI 1AH
1193   4B61 C8                  RZ
1194   4B62 C3 84 14            JMP L0610
;4B92H -  Reinitialize screen back to the LCD.  This routine sends a CR
;        to the printer if needed to empty the print buffer on the
;        printer.
1195   4B65 AF          L0086:  XRA A
1196   4B66 32 7C F6            STA 0F67CH
1197   4B69 3A 7B F6            LDA 0F67BH
1198   4B6C B7                  ORA A
1199   4B6D C8                  RZ
1200   4B6E 3E 0D       L0609:  MVI A,0DH
1201   4B70 CD 4D 4B            CALL L1311
1202   4B73 AF                  XRA A
1203   4B74 32 7B F6            STA 0F67BH
1204   4B77 C9                  RET
;
1205   4B78 F1          L1305:  POP PSW
;4BABH -  LCD character output routine
;         Entry:
;                A - Character to output
1206   4B79 F5                  PUSH PSW
1207   4B7A CD ED 42            CALL L1312
1208   4B7D 3A 41 F6            LDA 0F641H
1209   4B80 3D                  DCR A
1210   4B81 32 8F F7            STA 0F78FH
1211   4B84 F1                  POP PSW
1212   4B85 C9                  RET
;4BB8H -  Send a CRLF to screen if needed to end the current line.
;        This routine assures that the next text printed on the screen
;        will start at the beginning of a line.
;         Exit:
;                A - Destroyed
1213   4B86 3A 41 F6    L0080:  LDA 0F641H
1214   4B89 3D                  DCR A
1215   4B8A C8                  RZ
1216   4B8B C3 99 4B            JMP L0226
1217   4B8E 36 00               MVI M,00H
1218   4B90 CD F6 41            CALL L0092
1219   4B93 21 8B F6            LXI H,0F68BH
1220   4B96 C2 9F 4B            JNZ L0238
1221   4B99 3E 0D       L0226:  MVI A,0DH
1222   4B9B E7                  RST 4
1223   4B9C 3E 0A               MVI A,0AH
1224   4B9E E7                  RST 4
1225   4B9F CD F6 41    L0238:  CALL L0092
1226   4BA2 CA A7 4B            JZ L1313
1227   4BA5 AF                  XRA A
1228   4BA6 C9                  RET
;
1229   4BA7 3A 7C F6    L1313:  LDA 0F67CH
1230   4BAA B7                  ORA A
1231   4BAB CA B3 4B            JZ L1314
1232   4BAE AF                  XRA A
1233   4BAF 32 7B F6            STA 0F67BH
1234   4BB2 C9                  RET
;
1235   4BB3 AF          L1314:  XRA A
1236   4BB4 32 8F F7            STA 0F78FH
1237   4BB7 C9                  RET
;4BEAH -  INKEY$ Function
1238   4BB8 D7          L0328:  RST 2
1239   4BB9 E5                  PUSH H
1240   4BBA CD E4 13            CALL L0397
1241   4BBD CA CC 4B            JZ L1315
1242   4BC0 CD D4 12            CALL L1218
1243   4BC3 F5                  PUSH PSW
1244   4BC4 CD 34 27            CALL L0771
1245   4BC7 F1                  POP PSW
1246   4BC8 5F                  MOV E,A
1247   4BC9 CD 3E 29            CALL L1316
1248   4BCC 21 FC 03    L1315:  LXI H,03FCH
1249   4BCF 22 2C FC            SHLD 0FC2CH
1250   4BD2 3E 03               MVI A,03H
1251   4BD4 32 77 FB            STA 0FB77H
1252   4BD7 E1                  POP H
1253   4BD8 C9                  RET
;
1254   4BD9 E5          L0666:  PUSH H
1255   4BDA C3 EF 4B            JMP L1317
1256   4BDD CD B2 0D    L0646:  CALL L0134
1257   4BE0 E5                  PUSH H
1258   4BE1 CD EF 28            CALL L0536
1259   4BE4 7E                  MOV A,M
1260   4BE5 B7                  ORA A
1261   4BE6 CA 23 4C            JZ L1318
1262   4BE9 23                  INX H
1263   4BEA 5E                  MOV E,M
1264   4BEB 23                  INX H
1265   4BEC 66                  MOV H,M
1266   4BED 6B                  MOV L,E
1267   4BEE 5F                  MOV E,A
1268   4BEF CD 3C 50    L1317:  CALL L1319
1269   4BF2 F5                  PUSH PSW
1270   4BF3 01 A5 FC            LXI B,0FCA5H
1271   4BF6 16 09               MVI D,09H
1272   4BF8 1C                  INR E
1273   4BF9 1D          L1322:  DCR E
1274   4BFA CA 40 4C            JZ L1320
1275   4BFD CD EF 0F            CALL L0495
1276   4C00 FE 20               CPI 20H
1277   4C02 DA 23 4C            JC L1318
1278   4C05 FE 7F               CPI 7FH
1279   4C07 CA 23 4C            JZ L1318
1280   4C0A FE 2E               CPI 2EH
1281   4C0C CA 2A 4C            JZ L1321
1282   4C0F 02                  STAX B
1283   4C10 03                  INX B
1284   4C11 23                  INX H
1285   4C12 15                  DCR D
1286   4C13 C2 F9 4B            JNZ L1322
1287   4C16 F1          L1324:  POP PSW
1288   4C17 F5                  PUSH PSW
1289   4C18 57                  MOV D,A
1290   4C19 3A A5 FC            LDA 0FCA5H
1291   4C1C 3C                  INR A
1292   4C1D CA 23 4C            JZ L1318
1293   4C20 F1                  POP PSW
1294   4C21 E1                  POP H
1295   4C22 C9                  RET
;
1296   4C23 C3 15 50    L1318:  JMP L0437
1297   4C26 23          L1323:  INX H
1298   4C27 C3 F9 4B            JMP L1322
1299   4C2A 7A          L1321:  MOV A,D
1300   4C2B FE 09               CPI 09H
1301   4C2D CA 23 4C            JZ L1318
1302   4C30 FE 03               CPI 03H
1303   4C32 DA 23 4C            JC L1318
1304   4C35 CA 26 4C            JZ L1323
1305   4C38 3E 20               MVI A,20H
1306   4C3A 02                  STAX B
1307   4C3B 03                  INX B
1308   4C3C 15                  DCR D
1309   4C3D C3 2A 4C            JMP L1321
1310   4C40 3E 20       L1320:  MVI A,20H
1311   4C42 02                  STAX B
1312   4C43 03                  INX B
1313   4C44 15                  DCR D
1314   4C45 C2 40 4C            JNZ L1320
1315   4C48 C3 16 4C            JMP L1324
1316   4C4B 7E          L1382:  MOV A,M
1317   4C4C 23                  INX H
1318   4C4D 1D                  DCR E
1319   4C4E C9                  RET
;
1320   4C4F CD 38 11    L0505:  CALL L0352
;4C84H -  Get information for the file number in the A register.  This
;        routine performs the same as VARPTR(#x).  If A is greater
;        than MAXFILES, a BN error is generated.
;         Entry:
;                A - File number (1-maxfiles)
;         Entry:
;               HL - Points to file number descriptor table (see
;                    VARPTR(#x).
;           Z flag - Set if file is not already opened
1321   4C52 6F          L0323:  MOV L,A
1322   4C53 3A 94 FC            LDA 0FC94H
1323   4C56 BD                  CMP L
1324   4C57 DA 24 50            JC L1325
1325   4C5A 26 00               MVI H,00H
1326   4C5C 22 A9 FA            SHLD 0FAA9H
1327   4C5F 29                  DAD H
1328   4C60 EB                  XCHG
1329   4C61 2A 95 FC            LHLD 0FC95H
1330   4C64 19                  DAD D
1331   4C65 7E                  MOV A,M
1332   4C66 23                  INX H
1333   4C67 66                  MOV H,M
1334   4C68 6F                  MOV L,A
1335   4C69 7E                  MOV A,M
1336   4C6A B7                  ORA A
1337   4C6B C8                  RZ
1338   4C6C E5                  PUSH H
1339   4C6D 11 04 00            LXI D,0004H
1340   4C70 19                  DAD D
1341   4C71 7E                  MOV A,M
1342   4C72 FE 09               CPI 09H
1343   4C74 D2 7C 4C            JNC L1326
1344   4C77 FF                  RST 7
1345   4C78 20                  RIM
1346   4C79 C3 27 50            JMP L1327
1347   4C7C E1          L1326:  POP H
1348   4C7D 7E                  MOV A,M
1349   4C7E B7                  ORA A
1350   4C7F 37                  STC
1351   4C80 C9                  RET
;
1352   4C81 2B          L1355:  DCX H
1353   4C82 D7                  RST 2
1354   4C83 FE 23               CPI 23H
1355   4C85 CC 5F 08            CZ L0003
1356   4C88 CD 35 11            CALL L0200
1357   4C8B E3                  XTHL
1358   4C8C E5                  PUSH H
1359   4C8D CD 52 4C    L1342:  CALL L0323
1360   4C90 CA 21 50            JZ L0506
1361   4C93 22 9E FC            SHLD 0FC9EH
1362   4C96 FF                  RST 7
1363   4C97 0E C9               MVI C,0C9H
;4CCBH -  OPEN Statement
;1363  4C98 C9
1364   4C99 01 40 0C            LXI B,0C40H
1365   4C9C C5                  PUSH B
1366   4C9D CD DD 4B            CALL L0646
1367   4CA0 C2 A5 4C            JNZ L1328
1368   4CA3 16 F9               MVI D,0F9H
1369   4CA5 CF          L1328:  RST 1
1370   4CA6 81                  ADD C
1371   4CA7 FE 84               CPI 84H
1372   4CA9 1E 01               MVI E,01H
1373   4CAB CA CA 4C            JZ L1329
1374   4CAE FE 96               CPI 96H
1375   4CB0 CA C0 4C            JZ L1330
1376   4CB3 CF                  RST 1
1377   4CB4 41                  MOV B,C
1378   4CB5 CF                  RST 1
1379   4CB6 50                  MOV D,B
1380   4CB7 CF                  RST 1
1381   4CB8 50                  MOV D,B
1382   4CB9 CF                  RST 1
1383   4CBA 80                  ADD B
1384   4CBB 1E 08               MVI E,08H
1385   4CBD C3 CB 4C            JMP L1331
1386   4CC0 D7          L1330:  RST 2
1387   4CC1 CF                  RST 1
1388   4CC2 50                  MOV D,B
1389   4CC3 CF                  RST 1
1390   4CC4 55                  MOV D,L
1391   4CC5 CF                  RST 1
1392   4CC6 54                  MOV D,H
1393   4CC7 1E 02               MVI E,02H
1394   4CC9 3E D7               MVI A,0D7H
1395   4CCB CF                  RST 1
1396   4CCC 41                  MOV B,C
1397   4CCD CF                  RST 1
1398   4CCE 53                  MOV D,E
1399   4CCF D5                  PUSH D
1400   4CD0 7E                  MOV A,M
1401   4CD1 FE 23               CPI 23H
1402   4CD3 CC 5F 08            CZ L0003
1403   4CD6 CD 35 11            CALL L0200
1404   4CD9 B7                  ORA A
1405   4CDA CA 24 50            JZ L1325
1406   4CDD FF                  RST 7
1407   4CDE 1A                  LDAX D
1408   4CDF 1E D5               MVI E,0D5H
1409   4CE1 2B                  DCX H
1410   4CE2 5F                  MOV E,A
1411   4CE3 D7                  RST 2
1412   4CE4 C2 4D 04            JNZ L0002
1413   4CE7 E3                  XTHL
1414   4CE8 7B                  MOV A,E
1415   4CE9 F5                  PUSH PSW
1416   4CEA E5                  PUSH H
1417   4CEB CD 52 4C            CALL L0323
1418   4CEE C2 18 50            JNZ L0444
1419   4CF1 D1                  POP D
1420   4CF2 7A                  MOV A,D
1421   4CF3 FE 09               CPI 09H
1422   4CF5 FF                  RST 7
1423   4CF6 1E DA               MVI E,0DAH
1424   4CF8 27                  DAA
1425   4CF9 50                  MOV D,B
1426   4CFA E5                  PUSH H
1427   4CFB 01 04 00            LXI B,0004H
1428   4CFE 09                  DAD B
1429   4CFF 72                  MOV M,D
1430   4D00 3E 00               MVI A,00H
1431   4D02 E1                  POP H
1432   4D03 C3 E4 50            JMP L0509
1433   4D06 E5          L1350:  PUSH H
1434   4D07 B7                  ORA A
1435   4D08 C2 13 4D            JNZ L1332
1436   4D0B 3A B9 FC            LDA 0FCB9H
1437   4D0E E6 01               ANI 01H
1438   4D10 C2 CF 4E            JNZ L1333
1439   4D13 CD 52 4C    L1332:  CALL L0323
1440   4D16 CA 2B 4D            JZ L1334
1441   4D19 22 9E FC            SHLD 0FC9EH
1442   4D1C E5                  PUSH H
1443   4D1D 3E 02               MVI A,02H
1444   4D1F DA E4 50            JC L0509
1445   4D22 FF                  RST 7
1446   4D23 16 C3               MVI D,0C3H
1447   4D25 27                  DAA
1448   4D26 50                  MOV D,B
;1448  4D24 C3 27 50            JMP Lxxxx
;4D59H -  LCD, CRT, and LPT file close routine
1449   4D27 CD C6 4E    L0457:  CALL L1335
1450   4D2A E1                  POP H
1451   4D2B E5          L1334:  PUSH H
1452   4D2C 11 07 00            LXI D,0007H
1453   4D2F 19                  DAD D
1454   4D30 77                  MOV M,A
1455   4D31 67                  MOV H,A
1456   4D32 6F                  MOV L,A
1457   4D33 22 9E FC            SHLD 0FC9EH
1458   4D36 E1                  POP H
1459   4D37 86                  ADD M
1460   4D38 36 00               MVI M,00H
1461   4D3A E1                  POP H
1462   4D3B C9                  RET
;4D6EH -  RUN statement with text following the RUN
1463   4D3C 37          L0169:  STC
1464   4D3D 11 F6 AF            LXI D,0AFF6H
;4D70H -  LOAD Statement
;      4D3E F6 AF
;4D71H -  MERGE Statement
;      4D3F AF
1465   4D40 F5                  PUSH PSW
1466   4D41 2B                  DCX H
1467   4D42 D7                  RST 2
1468   4D43 FE 4D               CPI 4DH
1469   4D45 CA 69 24            JZ L1336
1470   4D48 CD DD 4B            CALL L0646
1471   4D4B CA 46 1E            JZ L1337
1472   4D4E 7A                  MOV A,D
1473   4D4F FE F9       L0033:  CPI 0F9H
1474   4D51 CA 46 1E            JZ L1337
1475   4D54 FE FD               CPI 0FDH
1476   4D56 CA 5F 23            JZ L1338
1477   4D59 FF                  RST 7
1478   4D5A 1C                  INR E
1479   4D5B F1          L0618:  POP PSW
1480   4D5C F5                  PUSH PSW
1481   4D5D CA 6D 4D            JZ L1339
1482   4D60 7E                  MOV A,M
1483   4D61 D6 2C               SUI 2CH
1484   4D63 B7                  ORA A
1485   4D64 C2 6D 4D            JNZ L1339
1486   4D67 D7                  RST 2
1487   4D68 CF                  RST 1
1488   4D69 52                  MOV D,D
1489   4D6A F1                  POP PSW
1490   4D6B 37                  STC
1491   4D6C F5          L1540:  PUSH PSW
1492   4D6D F5          L1339:  PUSH PSW
1493   4D6E AF                  XRA A
1494   4D6F 1E 01               MVI E,01H
1495   4D71 CD E0 4C            CALL L1340
1496   4D74 2A 9E FC    L0702:  LHLD 0FC9EH
1497   4D77 01 07 00            LXI B,0007H
1498   4D7A 09                  DAD B
1499   4D7B F1                  POP PSW
1500   4D7C 9F                  SBB A
1501   4D7D E6 80               ANI 80H
1502   4D7F F6 01               ORI 01H
1503   4D81 32 B9 FC            STA 0FCB9H
1504   4D84 F1                  POP PSW
1505   4D85 F5                  PUSH PSW
1506   4D86 9F                  SBB A
1507   4D87 32 A4 FC            STA 0FCA4H
1508   4D8A 7E                  MOV A,M
1509   4D8B B7                  ORA A
1510   4D8C FA EB 4D            JM L1341
1511   4D8F F1                  POP PSW
1512   4D90 C4 D0 20            CNZ L0697
1513   4D93 CD F0 4D            CALL L0653
1514   4D96 AF                  XRA A
1515   4D97 CD 8D 4C            CALL L1342
1516   4D9A C3 18 05            JMP L0089
;4DCFH -  SAVE Statement
1517   4D9D FE 4D               CPI 4DH
1518   4D9F CA A4 22            JZ L1343
1519   4DA2 CD 08 3F            CALL L0170
1520   4DA5 CD DD 4B            CALL L0646
1521   4DA8 CA A4 1E            JZ L1344
1522   4DAB 7A                  MOV A,D
1523   4DAC FE F9               CPI 0F9H
1524   4DAE CA A4 1E            JZ L1344
1525   4DB1 FE FD               CPI 0FDH
1526   4DB3 CA 60 22            JZ L1345
1527   4DB6 FF                  RST 7
1528   4DB7 18                  UNRECOGNIZED
1529   4DB8 2B                  DCX H
1530   4DB9 D7                  RST 2
1531   4DBA 1E 80               MVI E,80H
1532   4DBC 37                  STC
1533   4DBD CA C7 4D            JZ L1346
1534   4DC0 CF                  RST 1
1535   4DC1 2C                  INR L
1536   4DC2 CF                  RST 1
1537   4DC3 41                  MOV B,C
1538   4DC4 B7                  ORA A
1539   4DC5 1E 02               MVI E,02H
1540   4DC7 F5          L1346:  PUSH PSW
1541   4DC8 7A                  MOV A,D
1542   4DC9 FE 09               CPI 09H
1543   4DCB DA D9 4D            JC L0621
1544   4DCE 7B                  MOV A,E
1545   4DCF E6 80               ANI 80H
1546   4DD1 CA D9 4D            JZ L0621
1547   4DD4 1E 02               MVI E,02H
1548   4DD6 F1                  POP PSW
1549   4DD7 AF                  XRA A
1550   4DD8 F5                  PUSH PSW
1551   4DD9 AF          L0621:  XRA A
1552   4DDA CD E0 4C            CALL L1340
1553   4DDD F1                  POP PSW
1554   4DDE DA E6 4D            JC L1347
1555   4DE1 2B                  DCX H
1556   4DE2 D7                  RST 2
1557   4DE3 C3 47 11            JMP L1348
1558   4DE6 FF          L1347:  RST 7
1559   4DE7 24                  INR H
1560   4DE8 C3 15 50            JMP L0437
1561   4DEB FF          L1341:  RST 7
1562   4DEC 26 C3               MVI H,0C3H
1563   4DEE 15                  DCR D
1564   4DEF 50                  MOV D,B
1565   4DF0 3A B9 FC    L0653:  LDA 0FCB9H
1566   4DF3 B7                  ORA A
1567   4DF4 F8                  RM
1568   4DF5 AF                  XRA A
;4E28H -  CLOSE Statement
1569   4DF6 3A 94 FC            LDA 0FC94H
1570   4DF9 C2 08 4E            JNZ L1349
1571   4DFC E5                  PUSH H
1572   4DFD F5          L1351:  PUSH PSW
1573   4DFE CD 06 4D            CALL L1350
1574   4E01 F1                  POP PSW
1575   4E02 3D                  DCR A
1576   4E03 F2 FD 4D            JP L1351
1577   4E06 E1                  POP H
1578   4E07 C9                  RET
1579   4E08 7E          L1349:  MOV A,M
1580   4E09 FE 23               CPI 23H
1581   4E0B CC 5F 08            CZ L0003
1582   4E0E CD 35 11            CALL L0200
1583   4E11 E5                  PUSH H
1584   4E12 CD 06 4D            CALL L1350
1585   4E15 E1                  POP H
1586   4E16 7E                  MOV A,M
1587   4E17 FE 2C               CPI 2CH
1588   4E19 C0                  RNZ
1589   4E1A D7                  RST 2
1590   4E1B C3 08 4E            JMP L1349
1591   4E1E E1          L1304:  POP H
1592   4E1F F1                  POP PSW
1593   4E20 E5                  PUSH H
1594   4E21 D5                  PUSH D
1595   4E22 C5                  PUSH B
1596   4E23 F5                  PUSH PSW
1597   4E24 2A 9E FC            LHLD 0FC9EH
1598   4E27 3E 04               MVI A,04H
1599   4E29 CD 31 4E            CALL L1352
1600   4E2C FF                  RST 7
1601   4E2D 22 C3 15            SHLD 15C3H
1602   4E30 50                  MOV D,B
1603   4E31 F5          L1352:  PUSH PSW
1604   4E32 D5                  PUSH D
1605   4E33 EB                  XCHG
1606   4E34 21 04 00            LXI H,0004H
1607   4E37 19                  DAD D
1608   4E38 7E                  MOV A,M
1609   4E39 EB                  XCHG
1610   4E3A D1                  POP D
1611   4E3B FE 09               CPI 09H
1612   4E3D DA E1 4E            JC L1353
1613   4E40 F1                  POP PSW
1614   4E41 E3          L0052:  XTHL
1615   4E42 E1                  POP H
1616   4E43 C3 E4 50            JMP L0509
1617   4E46 C5                  PUSH B
1618   4E47 E5                  PUSH H
1619   4E48 D5                  PUSH D
1620   4E49 2A 9E FC    L0019:  LHLD 0FC9EH
1621   4E4C 3E 06               MVI A,06H
1622   4E4E CD 31 4E            CALL L1352
1623   4E51 FF                  RST 7
1624   4E52 10                  UNRECOGNIZED
1625   4E53 C3 15 50    L0055:  JMP L0437
1626   4E56 D1                  POP D
1627   4E57 E1                  POP H
1628   4E58 C1                  POP B
1629   4E59 C9                  RET
;4E8EH -  INPUT$ Function
1630   4E5A D7          L0330:  RST 2
1631   4E5B CF                  RST 1
1632   4E5C 24                  INR H
1633   4E5D CF                  RST 1
1634   4E5E 28                  UNRECOGNIZED
1635   4E5F E5                  PUSH H
1636   4E60 2A 9E FC            LHLD 0FC9EH
1637   4E63 E5                  PUSH H
1638   4E64 21 00 00            LXI H,0000H
1639   4E67 22 9E FC            SHLD 0FC9EH
1640   4E6A E1                  POP H
1641   4E6B E3                  XTHL
1642   4E6C CD 35 11            CALL L0200
1643   4E6F D5                  PUSH D
1644   4E70 7E                  MOV A,M
1645   4E71 FE 2C               CPI 2CH
1646   4E73 C2 82 4E            JNZ L1354
1647   4E76 D7                  RST 2
1648   4E77 CD 81 4C            CALL L1355
1649   4E7A FE 01               CPI 01H
1650   4E7C C2 2A 50            JNZ L1356
1651   4E7F E1                  POP H
1652   4E80 AF                  XRA A
1653   4E81 7E                  MOV A,M
1654   4E82 F5          L1354:  PUSH PSW
1655   4E83 CF                  RST 1
1656   4E84 29                  DAD H
1657   4E85 F1                  POP PSW
1658   4E86 E3                  XTHL
1659   4E87 F5                  PUSH PSW
1660   4E88 7D                  MOV A,L
1661   4E89 B7                  ORA A
1662   4E8A CA E2 08            JZ L0214
1663   4E8D E5                  PUSH H
1664   4E8E CD 36 27            CALL L0523
1665   4E91 EB                  XCHG
1666   4E92 C1                  POP B
1667   4E93 F1          L1359:  POP PSW
1668   4E94 F5                  PUSH PSW
1669   4E95 CA BD 4E            JZ L1357
1670   4E98 CD D4 12            CALL L1218
1671   4E9B FE 03               CPI 03H
1672   4E9D CA B2 4E            JZ L1358
1673   4EA0 77          L1361:  MOV M,A
1674   4EA1 23                  INX H
1675   4EA2 0D                  DCR C
1676   4EA3 C2 93 4E            JNZ L1359
1677   4EA6 F1                  POP PSW
1678   4EA7 C1                  POP B
1679   4EA8 E1                  POP H
1680   4EA9 FF                  RST 7
1681   4EAA 12                  STAX D
1682   4EAB 22 9E FC            SHLD 0FC9EH
1683   4EAE C5                  PUSH B
1684   4EAF C3 66 27            JMP L0514
1685   4EB2 F1          L1358:  POP PSW
1686   4EB3 2A 81 F6            LHLD 0F681H
1687   4EB6 22 B1 FB            SHLD 0FBB1H
1688   4EB9 E1                  POP H
1689   4EBA C3 29 04            JMP L1360
1690   4EBD CD 46 4E    L1357:  CALL L1232
1691   4EC0 DA 2A 50            JC L1356
1692   4EC3 C3 A0 4E            JMP L1361
1693   4EC6 CD D9 4E    L1335:  CALL L1362
1694   4EC9 E5                  PUSH H
1695   4ECA 06 00               MVI B,00H
1696   4ECC CD D1 4E            CALL L1363
1697   4ECF E1          L1333:  POP H
1698   4ED0 C9                  RET
;4F0AH -  Zero the memory starting at HL for B number of bytes
;         Entry:
;               HL - Start of buffer to zero
;                B - Number of bytes to zero
;         Exit:
;               HL - Incremented past last byte zeroed
;                A = 0
;                B = 0
1699   4ED1 AF          L1363:  XRA A
;4F0BH -  Fill the memory starting at HL with the byte in the A
;        register for B number of bytes
;         Entry:
;               HL - Start of buffer to fill
;                A - Character to fill buffer with
;                B - Number of bytes to fill
;         Exit:
;               HL - Incremented past last byte filled
;                B = 0
1700   4ED2 77          L1364:  MOV M,A
1701   4ED3 23                  INX H
1702   4ED4 05                  DCR B
1703   4ED5 C2 D2 4E            JNZ L1364
1704   4ED8 C9                  RET
;
1705   4ED9 2A 9E FC    L1362:  LHLD 0FC9EH
1706   4EDC 11 09 00            LXI D,0009H
1707   4EDF 19                  DAD D
1708   4EE0 C9                  RET
;
1709   4EE1 F1          L1353:  POP PSW
1710   4EE2 C9                  RET
;
1711   4EE3 CD F6 41    L0095:  CALL L0092
1712   4EE6 CA 41 08            JZ L0155
1713   4EE9 AF                  XRA A
1714   4EEA CD 06 4D            CALL L1350
1715   4EED C3 1B 50            JMP L1365
1716   4EF0 0E 01       L0256:  MVI C,01H
1717   4EF2 FE 23       L0224:  CPI 23H
1718   4EF4 C0                  RNZ
;4F2EH -  Routine called by the PRINT statement to initialize a PRINT #.
1719   4EF5 C5                  PUSH B
1720   4EF6 CD 34 11            CALL L0244
1721   4EF9 CF                  RST 1
1722   4EFA 2C                  INR L
1723   4EFB 7B                  MOV A,E
1724   4EFC E5                  PUSH H
1725   4EFD CD 8D 4C            CALL L1342
1726   4F00 7E                  MOV A,M
1727   4F01 E1                  POP H
1728   4F02 C1                  POP B
1729   4F03 B9                  CMP C
1730   4F04 CA 0A 4F            JZ L1366
1731   4F07 C3 24 50            JMP L1325
1732   4F0A 7E          L1366:  MOV A,M
1733   4F0B C9                  RET
1734   4F0C 01 78 3F    L0087:  LXI B,3F78H
1735   4F0F C5                  PUSH B
1736   4F10 AF                  XRA A
1737   4F11 C3 06 4D            JMP L1350
1738   4F14 EF          L0266:  RST 5
1739   4F15 01 38 0D            LXI B,0D38H
1740   4F18 11 20 2C            LXI D,2C20H
1741   4F1B C2 36 4F            JNZ L1367
1742   4F1E 5A                  MOV E,D
1743   4F1F C3 36 4F            JMP L1367
;4F5BH -  LINE INPUT # statement
1744   4F22 01 40 0C    L0250:  LXI B,0C40H
1745   4F25 C5                  PUSH B
1746   4F26 CD F0 4E            CALL L0256
1747   4F29 CD 46 47            CALL L0182
1748   4F2C CD B2 35            CALL L0253
1749   4F2F D5                  PUSH D
1750   4F30 01 C4 09            LXI B,09C4H
1751   4F33 AF                  XRA A
1752   4F34 57                  MOV D,A
1753   4F35 5F                  MOV E,A
1754   4F36 F5          L1367:  PUSH PSW
1755   4F37 C5                  PUSH B
1756   4F38 E5                  PUSH H
1757   4F39 CD 46 4E    L1369:  CALL L1232
1758   4F3C DA 2A 50            JC L1356
1759   4F3F FE 20               CPI 20H
1760   4F41 C2 49 4F            JNZ L1368
1761   4F44 14                  INR D
1762   4F45 15                  DCR D
1763   4F46 C2 39 4F            JNZ L1369
1764   4F49 FE 22       L1368:  CPI 22H
1765   4F4B C2 5E 4F            JNZ L1370
1766   4F4E 7B                  MOV A,E
1767   4F4F FE 2C               CPI 2CH
1768   4F51 3E 22               MVI A,22H
1769   4F53 C2 5E 4F            JNZ L1370
1770   4F56 57                  MOV D,A
1771   4F57 5F                  MOV E,A
1772   4F58 CD 46 4E            CALL L1232
1773   4F5B DA B1 4F            JC L1371
1774   4F5E 21 8C F6    L1370:  LXI H,0F68CH
1775   4F61 06 FF               MVI B,0FFH
1776   4F63 4F          L1377:  MOV C,A
1777   4F64 7A                  MOV A,D
1778   4F65 FE 22               CPI 22H
1779   4F67 79                  MOV A,C
1780   4F68 CA 9C 4F            JZ L1372
1781   4F6B FE 0D               CPI 0DH
1782   4F6D E5                  PUSH H
1783   4F6E CA D1 4F            JZ L1373
1784   4F71 E1                  POP H
1785   4F72 FE 0A               CPI 0AH
1786   4F74 C2 9C 4F            JNZ L1372
1787   4F77 4F          L1375:  MOV C,A
1788   4F78 7B                  MOV A,E
1789   4F79 FE 2C               CPI 2CH
1790   4F7B 79                  MOV A,C
1791   4F7C C4 0B 50            CNZ L1374
1792   4F7F CD 46 4E            CALL L1232
1793   4F82 DA B1 4F            JC L1371
1794   4F85 FE 0A               CPI 0AH
1795   4F87 CA 77 4F            JZ L1375
1796   4F8A FE 0D               CPI 0DH
1797   4F8C C2 9C 4F            JNZ L1372
1798   4F8F 7B                  MOV A,E
1799   4F90 FE 20               CPI 20H
1800   4F92 CA AB 4F            JZ L1376
1801   4F95 FE 2C               CPI 2CH
1802   4F97 3E 0D               MVI A,0DH
1803   4F99 CA AB 4F            JZ L1376
1804   4F9C B7          L1372:  ORA A
1805   4F9D CA AB 4F            JZ L1376
1806   4FA0 BA                  CMP D
1807   4FA1 CA B1 4F            JZ L1371
1808   4FA4 BB                  CMP E
1809   4FA5 CA B1 4F            JZ L1371
1810   4FA8 CD 0B 50            CALL L1374
1811   4FAB CD 46 4E    L1376:  CALL L1232
1812   4FAE D2 63 4F            JNC L1377
1813   4FB1 E5          L1371:  PUSH H
1814   4FB2 FE 22               CPI 22H
1815   4FB4 CA BC 4F            JZ L1378
1816   4FB7 FE 20               CPI 20H
1817   4FB9 C2 EA 4F            JNZ L0494
1818   4FBC CD 46 4E    L1378:  CALL L1232
1819   4FBF DA EA 4F            JC L0494
1820   4FC2 FE 20               CPI 20H
1821   4FC4 CA BC 4F            JZ L1378
1822   4FC7 FE 2C               CPI 2CH
1823   4FC9 CA EA 4F            JZ L0494
1824   4FCC FE 0D               CPI 0DH
1825   4FCE C2 DC 4F            JNZ L1379
1826   4FD1 CD 46 4E    L1373:  CALL L1232
1827   4FD4 DA EA 4F            JC L0494
1828   4FD7 FE 0A               CPI 0AH
1829   4FD9 CA EA 4F            JZ L0494
1830   4FDC 2A 9E FC    L1379:  LHLD 0FC9EH
1831   4FDF 4F                  MOV C,A
1832   4FE0 3E 08               MVI A,08H
1833   4FE2 CD 31 4E            CALL L1352
1834   4FE5 FF                  RST 7
1835   4FE6 14                  INR D
1836   4FE7 C3 15 50            JMP L0437
1837   4FEA E1          L0494:  POP H
1838   4FEB 36 00       L1381:  MVI M,00H
1839   4FED 21 8B F6            LXI H,0F68BH
1840   4FF0 7B                  MOV A,E
1841   4FF1 D6 20               SUI 20H
1842   4FF3 CA FD 4F            JZ L1380
1843   4FF6 06 00               MVI B,00H
1844   4FF8 CD 47 27            CALL L0254
1845   4FFB E1                  POP H
1846   4FFC C9                  RET
;
1847   4FFD EF          L1380:  RST 5
1848   4FFE F5                  PUSH PSW
1849   4FFF D7                  RST 2
1850   5000 F1                  POP PSW
1851   5001 F5                  PUSH PSW
1852   5002 DC 19 38            CC L0272
1853   5005 F1                  POP PSW
1854   5006 D4 19 38            CNC L0272
1855   5009 E1                  POP H
1856   500A C9                  RET
;
1857   500B B7          L1374:  ORA A
1858   500C C8                  RZ
1859   500D 77                  MOV M,A
1860   500E 23                  INX H
1861   500F 05                  DCR B
1862   5010 C0                  RNZ
1863   5011 F1                  POP PSW
1864   5012 C3 EB 4F            JMP L1381
;504EH -  Generate NM error
1865   5015 1E 37       L0437:  MVI E,37H
1866   5017 01 1E 35            LXI B,351EH
;5051H -  Generate AO error
1867   501A 01 1E 38            LXI B,381EH
;5054H -  Generate DS error
1868   501D 01 1E 34            LXI B,341EH
;5057H -  Generate FF error
1869   5020 01 1E 3A            LXI B,3A1EH
;505AH -  Generate CF error
1870   5023 01 1E 33            LXI B,331EH
;505DH -  Generate BN error
1871   5026 01 1E 32            LXI B,321EH
;5060H -  Generate IE error
1872   5029 01 1E 36            LXI B,361EH
;5063H -  Generate EF error
1873   502C 01 1E 39            LXI B,391EH
;5066H -  Generate FL error
1874   502F C3 64 04            JMP L0072
;506BH -  LOF Function
1875   5032 FF                  RST 7
1876   5033 5A                  MOV E,D
;506DH -  LOC Function
1877   5034 FF                  RST 7
1878   5035 5C                  MOV E,H
;506FH -  LFILES Function
1879   5036 FF                  RST 7
1880   5037 5E                  MOV E,M
;506FH -  LFILES Function
1881   5038 FF                  RST 7
1882   5039 62                  MOV H,D
;5071H -  DSKO$ Function
1883   503A FF          L0332:  RST 7
1884   503B 60                  MOV H,B
;5073H -  DSKI$ Function
1885   503C FF          L1319:  RST 7
1886   503D 2A 7E FE            LHLD 0FE7EH
1887   5040 3A DA 5D            LDA 5DDAH
1888   5043 50                  MOV D,B
1889   5044 E5                  PUSH H
1890   5045 53                  MOV D,E
1891   5046 CD 4B 4C            CALL L1382
1892   5049 CA 57 50            JZ L1383
1893   504C FE 3A       L1385:  CPI 3AH
1894   504E CA 62 50            JZ L1384
1895   5051 CD 4B 4C            CALL L1382
1896   5054 F2 4C 50            JP L1385
1897   5057 5A          L1383:  MOV E,D
1898   5058 E1                  POP H
1899   5059 AF                  XRA A
1900   505A FF                  RST 7
1901   505B 2C                  INR L
1902   505C C9                  RET
1903   505D FF                  RST 7
1904   505E 30                  SIM
1905   505F C3 15 50            JMP L0437
1906   5062 7A          L1384:  MOV A,D
1907   5063 93                  SUB E
1908   5064 3D                  DCR A
1909   5065 FE 02               CPI 02H
1910   5067 D2 6F 50            JNC L1386
1911   506A FF                  RST 7
1912   506B 2E C3               MVI L,0C3H
1913   506D 15                  DCR D
1914   506E 50                  MOV D,B
1915   506F FE 05       L1386:  CPI 05H
1916   5071 D2 15 50            JNC L0437
1917   5074 C1                  POP B
1918   5075 D5                  PUSH D
1919   5076 C5                  PUSH B
1920   5077 4F                  MOV C,A
1921   5078 47                  MOV B,A
1922   5079 11 B8 50            LXI D,50B8H
1923   507C E3                  XTHL
1924   507D E5                  PUSH H
1925   507E CD EF 0F    L1388:  CALL L0495
1926   5081 C5                  PUSH B
1927   5082 47                  MOV B,A
1928   5083 1A                  LDAX D
1929   5084 23                  INX H
1930   5085 13                  INX D
1931   5086 B8                  CMP B
1932   5087 C1                  POP B
1933   5088 C2 A3 50            JNZ L1387
1934   508B 0D                  DCR C
1935   508C C2 7E 50            JNZ L1388
1936   508F 1A          L1390:  LDAX D
1937   5090 B7                  ORA A
1938   5091 FA 9E 50            JM L1389
1939   5094 FE 31               CPI 31H
1940   5096 C2 A3 50            JNZ L1387
1941   5099 13                  INX D
1942   509A 1A                  LDAX D
1943   509B C3 A3 50            JMP L1387
1944   509E E1          L1389:  POP H
1945   509F E1                  POP H
1946   50A0 D1                  POP D
1947   50A1 B7                  ORA A
1948   50A2 C9                  RET
1949   50A3 B7          L1387:  ORA A
1950   50A4 FA 8F 50            JM L1390
1951   50A7 1A          L1391:  LDAX D
1952   50A8 B7                  ORA A
1953   50A9 13                  INX D
1954   50AA F2 A7 50            JP L1391
1955   50AD 48                  MOV C,B
1956   50AE E1                  POP H
1957   50AF E5                  PUSH H
1958   50B0 1A                  LDAX D
1959   50B1 B7                  ORA A
1960   50B2 C2 7E 50            JNZ L1388
1961   50B5 C3 15 50            JMP L0437
;50F1H -  Start of device name table.  Each entry starts with the text
;        name of the device ending with a FFH.
1962   50B8 4C                  MOV C,H
1963   50B9 43                  MOV B,E
1964   50BA 44                  MOV B,H
1965   50BB FF                  RST 7
1966   50BC 43                  MOV B,E
1967   50BD 52                  MOV D,D
1968   50BE 54                  MOV D,H
1969   50BF FE 43               CPI 43H
1970   50C1 41                  MOV B,C
1971   50C2 53                  MOV D,E
1972   50C3 FD                  UNRECOGNIZED
1973   50C4 43                  MOV B,E
1974   50C5 4F                  MOV C,A
1975   50C6 4D                  MOV C,L
1976   50C7 FC 57 41            CM L1392
1977   50CA 4E                  MOV C,M
1978   50CB 44                  MOV B,H
1979   50CC FB                  EI
1980   50CD 4C                  MOV C,H
1981   50CE 50                  MOV D,B
1982   50CF 54                  MOV D,H
1983   50D0 FA 52 41            JM L1393
1984   50D3 4D                  MOV C,L
1985   50D4 F9                  SPHL
1986   50D5 00                  NOP
;5112H -  End of device name table
;5113H -  Start of device control block vector addresses.  Each two
;        byte pointer corresponds to the name in the device name table
;        at 50F1H.  This pointer points to the device's DCB which
;        contains the vectors for device open, close, output, and
;        input.
1987   50D6 DD                  UNRECOGNIZED
1988   50D7 14                  INR D
1989   50D8 FD                  UNRECOGNIZED
1990   50D9 14                  INR D
1991   50DA 8A                  ADC D
1992   50DB 16 6D               MVI D,6DH
1993   50DD 17                  RAL
1994   50DE 44                  MOV B,H
1995   50DF 18                  UNRECOGNIZED
1996   50E0 5F                  MOV E,A
1997   50E1 17                  RAL
1998   50E2 07                  RLC
1999   50E3 15                  DCR D
;5122H -  End of device control block vector addresses
2000   50E4 FF          L0509:  RST 7
2001   50E5 32 E5 D5            STA 0D5E5H
2002   50E8 F5                  PUSH PSW
2003   50E9 11 04 00            LXI D,0004H
2004   50EC 19                  DAD D
2005   50ED 3E FF               MVI A,0FFH
2006   50EF 96                  SUB M
2007   50F0 87                  ADD A
2008   50F1 5F                  MOV E,A
2009   50F2 16 00               MVI D,00H
2010   50F4 21 D6 50            LXI H,50D6H
2011   50F7 19                  DAD D
2012   50F8 5E                  MOV E,M
2013   50F9 23                  INX H
2014   50FA 56                  MOV D,M
2015   50FB F1                  POP PSW
2016   50FC 6F                  MOV L,A
2017   50FD 26 00               MVI H,00H
2018   50FF 19                  DAD D
2019   5100 5E                  MOV E,M
2020   5101 23                  INX H
2021   5102 56                  MOV D,M
2022   5103 EB                  XCHG
2023   5104 D1                  POP D
2024   5105 E3                  XTHL
2025   5106 C9                  RET
2026   5107 FF          L1443:  RST 7
2027   5108 3C                  INR A
2028   5109 CD 20 42            CALL L1394
2029   510C 21 5F 51            LXI H,515FH
2030   510F CD 81 42            CALL L1395
2031   5112 C3 79 51            JMP L1396
2032   5115 FF          L1400:  RST 7
2033   5116 42                  MOV B,D
2034   5117 CD 05 42            CALL L0722
2035   511A 21 5F 51            LXI H,515FH
2036   511D CD 9F 57            CALL L1148
2037   5120 CD 73 5A    L1398:  CALL L1397
2038   5123 21 15 51            LXI H,5115H
2039   5126 22 59 F6            SHLD 0F659H
2040   5129 21 43 51            LXI H,5143H
2041   512C CD B6 54            CALL L0707
2042   512F CD F8 45            CALL L0088
2043   5132 D7                  RST 2
2044   5133 A7                  ANA A
2045   5134 CA 20 51            JZ L1398
2046   5137 EB                  XCHG
2047   5138 2A 2C F6            LHLD 0F62CH
2048   513B EB                  XCHG
2049   513C CD C7 69            CALL L1399
2050   513F CA 15 51            JZ L1400
2051   5142 C9                  RET
2052   5143 54                  MOV D,H
2053   5144 65                  MOV H,L
2054   5145 6C                  MOV L,H
2055   5146 63                  MOV H,E
2056   5147 6F                  MOV L,A
2057   5148 6D                  MOV L,L
2058   5149 3A 20 00            LDA 0020H
2059   514C 53                  MOV D,E
2060   514D 54                  MOV D,H
2061   514E 41                  MOV B,C
2062   514F 54                  MOV D,H
2063   5150 73                  MOV M,E
2064   5151 51                  MOV D,C
2065   5152 54                  MOV D,H
2066   5153 45                  MOV B,L
2067   5154 52                  MOV D,D
2068   5155 4D                  MOV C,L
2069   5156 A3                  ANA E
2070   5157 51                  MOV D,C
2071   5158 4D                  MOV C,L
2072   5159 45                  MOV B,L
2073   515A 4E                  MOV C,M
2074   515B 55                  MOV D,L
2075   515C BC                  CMP H
2076   515D 54                  MOV D,H
2077   515E FF                  RST 7
2078   515F 80                  ADD B
2079   5160 80                  ADD B
2080   5161 53                  MOV D,E
2081   5162 74                  MOV M,H
2082   5163 61                  MOV H,C
2083   5164 74                  MOV M,H
2084   5165 A0                  ANA B
2085   5166 54                  MOV D,H
2086   5167 65                  MOV H,L
2087   5168 72                  MOV M,D
2088   5169 6D                  MOV L,L
2089   516A 8D                  ADC L
2090   516B 80                  ADD B
2091   516C 80                  ADD B
2092   516D 80                  ADD B
2093   516E 4D                  MOV C,L
2094   516F 65                  MOV H,L
2095   5170 6E                  MOV L,M
2096   5171 75                  MOV M,L
2097   5172 8D                  ADC L
2098   5173 2B                  DCX H
2099   5174 D7                  RST 2
2100   5175 A7                  ANA A
2101   5176 C2 88 51            JNZ L1401
2102   5179 21 62 F6    L1396:  LXI H,0F662H
2103   517C 06 05               MVI B,05H
2104   517E 7E          L1402:  MOV A,M
2105   517F E7                  RST 4
2106   5180 23                  INX H
2107   5181 05                  DCR B
2108   5182 C2 7E 51            JNZ L1402
2109   5185 C3 20 51            JMP L1398
2110   5188 CD C8 17    L1401:  CALL L0489
2111   518B CD 25 6C            CALL L0491
2112   518E C3 20 51            JMP L1398
2113   5191 50                  MOV D,B
2114   5192 72                  MOV M,D
2115   5193 65                  MOV H,L
2116   5194 F6 44               ORI 44H
2117   5196 6F                  MOV L,A
2118   5197 77                  MOV M,A
2119   5198 EE 20               XRI 20H
2120   519A 55                  MOV D,L
2121   519B F0                  RP
2122   519C 80                  ADD B
2123   519D 80                  ADD B
2124   519E 80                  ADD B
2125   519F 80                  ADD B
2126   51A0 42                  MOV B,D
2127   51A1 79                  MOV A,C
2128   51A2 E5                  PUSH H
2129   51A3 FF                  RST 7
2130   51A4 3E 21               MVI A,21H
2131   51A6 62                  MOV H,D
2132   51A7 F6 CD               ORI 0CDH
2133   51A9 C8                  RZ
2134   51AA 17                  RAL
2135   51AB 3E 40               MVI A,40H
2136   51AD 32 57 F6            STA 0F657H
2137   51B0 32 82 F6            STA 0F682H
2138   51B3 AF                  XRA A
2139   51B4 32 C9 FA            STA 0FAC9H
2140   51B7 32 CA FA            STA 0FACAH
2141   51BA CD 87 45            CALL L1202
2142   51BD 21 91 51            LXI H,5191H
2143   51C0 CD 9F 57            CALL L1148
2144   51C3 CD 8C 52            CALL L1403
2145   51C6 CD 9E 52            CALL L1404
2146   51C9 CD AA 52            CALL L1405
2147   51CC CD 84 42            CALL L0412
2148   51CF CD 25 42            CALL L0414
2149   51D2 CD 7D 5A    L1411:  CALL L1406
2150   51D5 21 37 52            LXI H,5237H
2151   51D8 22 59 F6            SHLD 0F659H
2152   51DB 3A 42 FF            LDA 0FF42H
2153   51DE A7                  ANA A
2154   51DF CA ED 51            JZ L1407
2155   51E2 3A 40 FF            LDA 0FF40H
2156   51E5 21 E0 F7            LXI H,0F7E0H
2157   51E8 AE                  XRA M
2158   51E9 0F                  RRC
2159   51EA DC AA 52            CC L1405
2160   51ED CD E4 13    L1407:  CALL L0397
2161   51F0 CA 09 52            JZ L1408
2162   51F3 CD D4 12            CALL L1218
2163   51F6 47                  MOV B,A
2164   51F7 DA 44 52            JC L1409
2165   51FA A7                  ANA A
2166   51FB C4 62 6B            CNZ L0492
2167   51FE DA 2A 52            JC L1410
2168   5201 3A 5F F6            LDA 0F65FH
2169   5204 A7                  ANA A
2170   5205 78                  MOV A,B
2171   5206 CC 12 4B            CZ L0004
2172   5209 CD 9D 6A            CALL L0151
2173   520C CA D2 51            JZ L1411
2174   520F CD AE 6A            CALL L0493
2175   5212 47                  MOV B,A
2176   5213 DA D2 51            JC L1411
2177   5216 E7                  RST 4
2178   5217 CD 20 52            CALL L1412
2179   521A CD 0E 54            CALL L1413
2180   521D C3 D2 51            JMP L1411
2181   5220 47          L1412:  MOV B,A
2182   5221 3A 60 F6            LDA 0F660H
2183   5224 A7                  ANA A
2184   5225 78                  MOV A,B
2185   5226 C8                  RZ
2186   5227 C3 23 4B            JMP L0488
2187   522A AF          L1410:  XRA A
2188   522B 32 40 FF            STA 0FF40H
2189   522E CD 8F 6F    L1415:  CALL L1414
2190   5231 DA 2E 52            JC L1415
2191   5234 C3 D2 51            JMP L1411
2192   5237 CD 05 42            CALL L0722
2193   523A AF                  XRA A
2194   523B 32 60 F6            STA 0F660H
2195   523E CD 9E 52            CALL L1404
2196   5241 C3 D2 51            JMP L1411
2197   5244 5F          L1409:  MOV E,A
2198   5245 16 FF       L0023:  MVI D,0FFH
2199   5247 2A 2E F6            LHLD 0F62EH
2200   524A 19                  DAD D
2201   524B 19                  DAD D
2202   524C 7E                  MOV A,M
2203   524D 23                  INX H
2204   524E 66                  MOV H,M
2205   524F 6F                  MOV L,A
2206   5250 11 D2 51    L0025:  LXI D,51D2H
2207   5253 D5          L0044:  PUSH D
2208   5254 E9                  PCHL
2209   5255 6B                  MOV L,E
2210   5256 52                  MOV D,D
2211   5257 C7                  RST 0
2212   5258 53                  MOV D,E
2213   5259 E5                  PUSH H
2214   525A 52                  MOV D,D
2215   525B 86                  ADD M
2216   525C 52                  MOV D,D
2217   525D 98                  SBB B
2218   525E 52                  MOV D,D
2219   525F 65                  MOV H,L
2220   5260 52                  MOV D,D
2221   5261 68                  MOV L,B
2222   5262 52                  MOV D,D
2223   5263 67                  MOV H,A
2224   5264 54                  MOV D,H
2225   5265 FF                  RST 7
2226   5266 38                  UNRECOGNIZED
2227   5267 C9                  RET
2228   5268 FF                  RST 7
2229   5269 3A C9 CD            LDA 0CDC9H
2230   526C 82                  ADD D
2231   526D 43                  MOV B,E
2232   526E CD 2A 42            CALL L0416
2233   5271 CD D3 45            CALL L1416
2234   5274 CD E4 13    L1417:  CALL L0397
2235   5277 CA 74 52            JZ L1417
2236   527A CD D4 12            CALL L1218
2237   527D CD B5 45            CALL L1418
2238   5280 CD 25 42            CALL L0414
2239   5283 C3 3E 42            JMP L0415
2240   5286 21 5F F6            LXI H,0F65FH
2241   5289 7E                  MOV A,M
2242   528A 2F                  CMA
2243   528B 77                  MOV M,A
2244   528C 3A 5F F6    L1403:  LDA 0F65FH
2245   528F 11 C0 F7            LXI D,0F7C0H
2246   5292 21 CB 52            LXI H,52CBH
2247   5295 C3 B3 52            JMP L1419
2248   5298 21 60 F6            LXI H,0F660H
2249   529B 7E                  MOV A,M
2250   529C 2F                  CMA
2251   529D 77                  MOV M,A
2252   529E 3A 60 F6    L1404:  LDA 0F660H
2253   52A1 11 D0 F7            LXI D,0F7D0H
2254   52A4 21 D3 52            LXI H,52D3H
2255   52A7 C3 B3 52            JMP L1419
2256   52AA 3A 40 FF    L1405:  LDA 0FF40H
2257   52AD 11 E0 F7            LXI D,0F7E0H
2258   52B0 21 DD 52            LXI H,52DDH
2259   52B3 A7          L1419:  ANA A
2260   52B4 01 04 00            LXI B,0004H
2261   52B7 C2 BB 52            JNZ L1420
2262   52BA 09                  DAD B
2263   52BB 41          L1420:  MOV B,C
2264   52BC CD 1A 25            CALL L0463
2265   52BF 06 0C               MVI B,0CH
2266   52C1 AF                  XRA A
2267   52C2 12          L1421:  STAX D
2268   52C3 13                  INX D
2269   52C4 05                  DCR B
2270   52C5 C2 C2 52            JNZ L1421
2271   52C8 C3 C1 57            JMP L0573
2272   52CB 46                  MOV B,M
2273   52CC 75                  MOV M,L
2274   52CD 6C                  MOV L,H
2275   52CE 6C                  MOV L,H
2276   52CF 48                  MOV C,B
2277   52D0 61                  MOV H,C
2278   52D1 6C                  MOV L,H
2279   52D2 66                  MOV H,M
2280   52D3 45                  MOV B,L
2281   52D4 63                  MOV H,E
2282   52D5 68                  MOV L,B
2283   52D6 6F                  MOV L,A
2284   52D7 20                  RIM
2285   52D8 20                  RIM
2286   52D9 20                  RIM
2287   52DA 20                  RIM
2288   52DB 0D                  DCR C
2289   52DC 20                  RIM
2290   52DD 57                  MOV D,A
2291   52DE 61                  MOV H,C
2292   52DF 69                  MOV L,C
2293   52E0 74                  MOV M,H
2294   52E1 20                  RIM
2295   52E2 00                  NOP
2296   52E3 20                  RIM
2297   52E4 20                  RIM
2298   52E5 21 38 54            LXI H,5438H
2299   52E8 22 59 F6            SHLD 0F659H
2300   52EB E5                  PUSH H
2301   52EC 3A C9 FA            LDA 0FAC9H
2302   52EF A7                  ANA A
2303   52F0 C0                  RNZ
2304   52F1 CD 16 21            CALL L0394
2305   52F4 21 81 54            LXI H,5481H
2306   52F7 CD B6 54            CALL L0707
2307   52FA CD F2 45            CALL L0260
2308   52FD D7                  RST 2
2309   52FE A7                  ANA A
2310   52FF C8                  RZ
2311   5300 32 CD FA            STA 0FACDH
2312   5303 CD D2 21            CALL L0665
2313   5306 CD D9 4B            CALL L0666
2314   5309 C0                  RNZ
2315   530A CD 60 20            CALL L0446
2316   530D 21 AC 54            LXI H,54ACH
2317   5310 CA B6 54            JZ L0707
2318   5313 EB                  XCHG
2319   5314 E3                  XTHL
2320   5315 E5                  PUSH H
2321   5316 21 2C 64            LXI H,642CH
2322   5319 CD B6 54            CALL L0707
2323   531C CD F8 45            CALL L0088
2324   531F D8                  RC
2325   5320 D7                  RST 2
2326   5321 A7                  ANA A
2327   5322 3E 01               MVI A,01H
2328   5324 32 CA FA            STA 0FACAH
2329   5327 32 27 F9            STA 0F927H
2330   532A CA 45 53            JZ L0017
2331   532D CD 35 11            CALL L0200
2332   5330 FE 0A               CPI 0AH
2333   5332 D8                  RC
2334   5333 FE 85               CPI 85H
2335   5335 D0                  RNC
2336   5336 21 9B F8            LXI H,0F89BH
2337   5339 22 99 F8            SHLD 0F899H
2338   533C 32 29 F9            STA 0F929H
2339   533F 32 CA FA            STA 0FACAH
2340   5342 F1                  POP PSW
2341   5343 D1                  POP D
2342   5344 01 F1 E1            LXI B,0E1F1H
2343   5347 D5                  PUSH D
2344   5348 E5                  PUSH H
2345   5349 CD C1 57    L0028:  CALL L0573
2346   534C E1          L0035:  POP H
2347   534D D1                  POP D
2348   534E 3A CA FA    L1429:  LDA 0FACAH
2349   5351 3D                  DCR A
2350   5352 CA 75 53            JZ L1422
2351   5355 D5                  PUSH D
2352   5356 EB                  XCHG
2353   5357 2A 99 F8            LHLD 0F899H
2354   535A EB                  XCHG
2355   535B DF                  RST 3
2356   535C D1                  POP D
2357   535D C2 75 53            JNZ L1422
2358   5360 CD FF 64            CALL L1423
2359   5363 7A                  MOV A,D
2360   5364 A3                  ANA E
2361   5365 3C                  INR A
2362   5366 C2 72 53            JNZ L1424
2363   5369 2A 99 F8            LHLD 0F899H
2364   536C 36 1A               MVI M,1AH
2365   536E 23                  INX H
2366   536F 22 99 F8            SHLD 0F899H
2367   5372 21 9B F8    L1424:  LXI H,0F89BH
2368   5375 7E          L1422:  MOV A,M
2369   5376 FE 1A               CPI 1AH
2370   5378 FF                  RST 7
2371   5379 44                  MOV B,H
2372   537A CA B4 53            JZ L1425
2373   537D FE 0A               CPI 0AH
2374   537F C2 8E 53            JNZ L1426
2375   5382 3A 61 F6            LDA 0F661H
2376   5385 A7                  ANA A
2377   5386 C2 8E 53            JNZ L1426
2378   5389 3A CD FA            LDA 0FACDH
2379   538C FE 0D               CPI 0DH
2380   538E 7E          L1426:  MOV A,M
2381   538F 32 CD FA            STA 0FACDH
2382   5392 CA 9B 53            JZ L1427
2383   5395 CD 62 6B            CALL L0492
2384   5398 CD BB 53            CALL L1428
2385   539B 23          L1427:  INX H
2386   539C CD E4 13            CALL L0397
2387   539F CA 4E 53            JZ L1429
2388   53A2 CD D4 12            CALL L1218
2389   53A5 FE 03               CPI 03H
2390   53A7 CA B4 53            JZ L1425
2391   53AA FE 13               CPI 13H
2392   53AC CC D4 12            CZ L1218
2393   53AF FE 03               CPI 03H
2394   53B1 C2 4E 53            JNZ L1429
2395   53B4 AF          L1425:  XRA A
2396   53B5 32 CA FA            STA 0FACAH
2397   53B8 C3 C1 57            JMP L0573
2398   53BB CD 9D 6A    L1428:  CALL L0151
2399   53BE C8                  RZ
2400   53BF CD AE 6A            CALL L0493
2401   53C2 D8                  RC
2402   53C3 E7                  RST 4
2403   53C4 C3 BB 53            JMP L1428
2404   53C7 CD 16 21            CALL L0394
2405   53CA 3A C9 FA            LDA 0FAC9H
2406   53CD EE FF               XRI 0FFH
2407   53CF 32 C9 FA            STA 0FAC9H
2408   53D2 CA 08 54            JZ L1430
2409   53D5 21 2B 54            LXI H,542BH
2410   53D8 22 59 F6            SHLD 0F659H
2411   53DB E5                  PUSH H
2412   53DC 21 90 54            LXI H,5490H
2413   53DF CD B6 54            CALL L0707
2414   53E2 CD F2 45            CALL L0260
2415   53E5 D7                  RST 2
2416   53E6 A7                  ANA A
2417   53E7 C8                  RZ
2418   53E8 32 CD FA            STA 0FACDH
2419   53EB F1                  POP PSW
2420   53EC E5          L1435:  PUSH H
2421   53ED CD DE 21            CALL L1431
2422   53F0 DA 00 54            JC L1432
2423   53F3 22 CB FA            SHLD 0FACBH
2424   53F6 CD 4D 68            CALL L1433
2425   53F9 F1                  POP PSW
2426   53FA CD 6A 60            CALL L1434
2427   53FD C3 C1 57            JMP L0573
2428   5400 EB          L1432:  XCHG
2429   5401 CD 90 1F            CALL L0453
2430   5404 E1                  POP H
2431   5405 C3 EC 53            JMP L1435
2432   5408 CD C1 57    L1430:  CALL L0573
2433   540B C3 A3 60            JMP L1436
2434   540E 4F          L1413:  MOV C,A
2435   540F 3A C9 FA            LDA 0FAC9H
2436   5412 A7                  ANA A
2437   5413 79                  MOV A,C
2438   5414 C8                  RZ
2439   5415 CD 47 54            CALL L1437
2440   5418 C8                  RZ
2441   5419 D2 21 54            JNC L1438
2442   541C CD 21 54            CALL L1438
2443   541F 3E 0A               MVI A,0AH
2444   5421 2A CB FA    L1438:  LHLD 0FACBH
2445   5424 CD B6 60            CALL L1439
2446   5427 22 CB FA            SHLD 0FACBH
2447   542A D0                  RNC
2448   542B AF                  XRA A
2449   542C 32 C9 FA            STA 0FAC9H
2450   542F CD C1 57            CALL L0573
2451   5432 21 98 54            LXI H,5498H
2452   5435 C3 3B 54            JMP L1440
2453   5438 21 89 54            LXI H,5489H
2454   543B CD B6 54    L1440:  CALL L0707
2455   543E 21 A1 54            LXI H,54A1H
2456   5441 CD 8A 27    L0012:  CALL L0084
2457   5444 C3 D2 51            JMP L1411
2458   5447 4F                  MOV C,A
2459   5448 A7                  ANA A
2460   5449 C8                  RZ
2461   544A FE 1A               CPI 1AH
2462   544C C8                  RZ
2463   544D FE 7F               CPI 7FH
2464   544F C8          L0038:  RZ
2465   5450 FE 0A               CPI 0AH
2466   5452 C2 5A 54            JNZ L1441
2467   5455 3A CD FA            LDA 0FACDH
2468   5458 FE 0D               CPI 0DH
2469   545A 79          L1441:  MOV A,C
2470   545B 32 CD FA            STA 0FACDH
2471   545E C8                  RZ
2472   545F FE 0D               CPI 0DH
2473   5461 37                  STC
2474   5462 3F                  CMC
2475   5463 C0                  RNZ
2476   5464 A7                  ANA A
2477   5465 37                  STC
2478   5466 C9                  RET
2479   5467 CD 86 4B            CALL L0080
2480   546A FF                  RST 7
2481   546B 40                  MOV B,B
2482   546C AF                  XRA A
2483   546D 32 57 F6            STA 0F657H
2484   5470 6F                  MOV L,A
2485   5471 67                  MOV H,A
2486   5472 22 C9 FA            SHLD 0FAC9H
2487   5475 CD 25 6C            CALL L0491
2488   5478 CD 2A 42            CALL L0416
2489   547B CD 90 60            CALL L1442
2490   547E C3 07 51            JMP L1443
2491   5481 46                  MOV B,M
2492   5482 69                  MOV L,C
2493   5483 6C                  MOV L,H
2494   5484 65                  MOV H,L
2495   5485 20                  RIM
2496   5486 74                  MOV M,H
2497   5487 6F                  MOV L,A
2498   5488 20                  RIM
2499   5489 55                  MOV D,L
2500   548A 70                  MOV M,B
2501   548B 6C                  MOV L,H
2502   548C 6F                  MOV L,A
2503   548D 61                  MOV H,C
2504   548E 64                  MOV H,H
2505   548F 00                  NOP
2506   5490 46                  MOV B,M
2507   5491 69                  MOV L,C
2508   5492 6C                  MOV L,H
2509   5493 65                  MOV H,L
2510   5494 20                  RIM
2511   5495 74                  MOV M,H
2512   5496 6F                  MOV L,A
2513   5497 20                  RIM
2514   5498 44                  MOV B,H
2515   5499 6F                  MOV L,A
2516   549A 77                  MOV M,A
2517   549B 6E                  MOV L,M
2518   549C 6C                  MOV L,H
2519   549D 6F                  MOV L,A
2520   549E 61                  MOV H,C
2521   549F 64                  MOV H,H
2522   54A0 00                  NOP
2523   54A1 20                  RIM
2524   54A2 61                  MOV H,C
2525   54A3 62                  MOV H,D
2526   54A4 6F                  MOV L,A
2527   54A5 72                  MOV M,D
2528   54A6 74                  MOV M,H
2529   54A7 65                  MOV H,L
2530   54A8 64                  MOV H,H
2531   54A9 0D                  DCR C
2532   54AA 0A                  LDAX B
2533   54AB 00                  NOP
2534   54AC 4E                  MOV C,M
2535   54AD 6F                  MOV L,A
2536   54AE 20                  RIM
2537   54AF 66                  MOV H,M
2538   54B0 69                  MOV L,C
2539   54B1 6C                  MOV L,H
2540   54B2 65                  MOV H,L
2541   54B3 0D                  DCR C
2542   54B4 0A                  LDAX B
2543   54B5 00                  NOP
2544   54B6 CD 86 4B    L0707:  CALL L0080
2545   54B9 C3 8A 27            JMP L0084
2546   54BC 2A 79 FB    L0721:  LHLD 0FB79H
2547   54BF 22 7F F6            SHLD 0F67FH
2548   54C2 CD 08 3F            CALL L0170
2549   54C5 CD 25 6C            CALL L0491
2550   54C8 CD 90 60            CALL L1442
2551   54CB CD 16 21            CALL L0394
2552   54CE CD 4A 42            CALL L1153
2553   54D1 CD 2A 42            CALL L0416
2554   54D4 CD 66 42            CALL L0411
2555   54D7 CD 1B 42            CALL L1444
2556   54DA 3A 3F F6            LDA 0F63FH
2557   54DD 32 FA FD            STA 0FDFAH
2558   54E0 3E FF               MVI A,0FFH
2559   54E2 32 CF FA            STA 0FACFH
2560   54E5 3C                  INR A
2561   54E6 32 57 F6            STA 0F657H
2562   54E9 32 B4 FA            STA 0FAB4H
2563   54EC CD 05 1E            CALL L0607
2564   54EF CD 6D 5A            CALL L1445
2565   54F2 21 BC 54            LXI H,54BCH
2566   54F5 22 59 F6            SHLD 0F659H
2567   54F8 CD 9C 57            CALL L1446
2568   54FB CD 34 57            CALL L1447
2569   54FE 21 01 1C            LXI H,1C01H
2570   5501 CD 58 42            CALL L0598
2571   5504 21 30 58            LXI H,5830H
2572   5507 CD 7B 57            CALL L1448
2573   550A 21 A1 FD            LXI H,0FDA1H
2574   550D 22 D7 FD            SHLD 0FDD7H
2575   5510 06 36               MVI B,36H
2576   5512 36 FF       L1449:  MVI M,0FFH
2577   5514 23                  INX H
2578   5515 05                  DCR B
2579   5516 C2 12 55            JNZ L1449
2580   5519 68                  MOV L,B
2581   551A 11 41 58            LXI D,5841H
2582   551D 1A          L1452:  LDAX D
2583   551E B7                  ORA A
2584   551F CA 2C 55            JZ L1450
2585   5522 4F                  MOV C,A
2586   5523 D5                  PUSH D
2587   5524 CD 95 56            CALL L1451
2588   5527 D1                  POP D
2589   5528 13                  INX D
2590   5529 C3 1D 55            JMP L1452
2591   552C 7D          L1450:  MOV A,L
2592   552D 3D                  DCR A
2593   552E 32 EF FD            STA 0FDEFH
2594   5531 FE 17               CPI 17H
2595   5533 CA 48 55            JZ L1453
2596   5536 CD EE 56    L1455:  CALL L1454
2597   5539 E5                  PUSH H
2598   553A 21 3D 58            LXI H,583DH
2599   553D CD 7B 57            CALL L1448
2600   5540 E1                  POP H
2601   5541 2C                  INR L
2602   5542 7D                  MOV A,L
2603   5543 FE 18               CPI 18H
2604   5545 C2 36 55            JNZ L1455
2605   5548 97          L1453:  SUB A
2606   5549 32 D9 FD            STA 0FDD9H
2607   554C 32 EE FD            STA 0FDEEH
2608   554F 6F                  MOV L,A
2609   5550 CD 0A 57            CALL L1456
2610   5553 21 08 18            LXI H,1808H
2611   5556 CD 58 42            CALL L0598
2612   5559 CD 9E 7B            CALL L1457
2613   555C CD 6D 5A    L1462:  CALL L1445
2614   555F 21 2B 56            LXI H,562BH
2615   5562 22 59 F6            SHLD 0F659H
2616   5565 21 08 01            LXI H,0108H
2617   5568 CD 58 42            CALL L0598
2618   556B 21 47 58            LXI H,5847H
2619   556E CD 7B 57            CALL L1448
2620   5571 21 08 09            LXI H,0908H
2621   5574 CD 58 42            CALL L0598
2622   5577 97                  SUB A
2623   5578 32 ED FD            STA 0FDEDH
2624   557B 21 D9 FD            LXI H,0FDD9H
2625   557E 3C                  INR A
2626   557F CC 05 42    L1465:  CZ L0722
2627   5582 CD 90 5A    L1467:  CALL L1458
2628   5585 CD 84 5A            CALL L1459
2629   5588 FE 0D               CPI 0DH
2630   558A CA 1C 56            JZ L1460
2631   558D FE 08               CPI 08H
2632   558F CA B3 55            JZ L1461
2633   5592 FE 7F               CPI 7FH
2634   5594 CA B3 55            JZ L1461
2635   5597 FE 15               CPI 15H
2636   5599 CA 5C 55            JZ L1462
2637   559C FE 20               CPI 20H
2638   559E DA C1 55            JC L1463
2639   55A1 4F                  MOV C,A
2640   55A2 3A ED FD            LDA 0FDEDH
2641   55A5 CC BC 55            CZ L1464
2642   55A8 FE 09               CPI 09H
2643   55AA CA 7F 55            JZ L1465
2644   55AD CD A8 5A            CALL L1466
2645   55B0 C3 82 55            JMP L1467
2646   55B3 CD BE 5A    L1461:  CALL L1468
2647   55B6 CA 7F 55            JZ L1465
2648   55B9 C3 82 55            JMP L1467
2649   55BC B7          L1464:  ORA A
2650   55BD C0                  RNZ
2651   55BE F1                  POP PSW
2652   55BF 3E 1C               MVI A,1CH
2653   55C1 F5          L1463:  PUSH PSW
2654   55C2 3A EE FD            LDA 0FDEEH
2655   55C5 5F                  MOV E,A
2656   55C6 F1                  POP PSW
2657   55C7 D6 1C               SUI 1CH
2658   55C9 01 82 55            LXI B,5582H
2659   55CC C5                  PUSH B
2660   55CD F8                  RM
2661   55CE 01 E8 55            LXI B,55E8H
2662   55D1 C5                  PUSH B
2663   55D2 CA 10 56            JZ L1469
2664   55D5 3D                  DCR A
2665   55D6 CA 07 56            JZ L1470
2666   55D9 3D                  DCR A
2667   55DA C1                  POP B
2668   55DB CA 00 56            JZ L1471
2669   55DE 7B                  MOV A,E
2670   55DF C6 04               ADI 04H
2671   55E1 57                  MOV D,A
2672   55E2 3A EF FD            LDA 0FDEFH
2673   55E5 BA                  CMP D
2674   55E6 F8                  RM
2675   55E7 7A                  MOV A,D
2676   55E8 32 EE FD            STA 0FDEEH
2677   55EB E5                  PUSH H
2678   55EC 2A 40 F6            LHLD 0F640H
2679   55EF E5                  PUSH H
2680   55F0 6B                  MOV L,E
2681   55F1 D5                  PUSH D
2682   55F2 CD 0A 57            CALL L1456
2683   55F5 D1                  POP D
2684   55F6 6A                  MOV L,D
2685   55F7 CD 0A 57            CALL L1456
2686   55FA E1                  POP H
2687   55FB CD 58 42            CALL L0598
2688   55FE E1                  POP H
2689   55FF C9                  RET
2690   5600 7B          L1471:  MOV A,E
2691   5601 D6 04               SUI 04H
2692   5603 57                  MOV D,A
2693   5604 F8                  RM
2694   5605 C5                  PUSH B
2695   5606 C9                  RET
2696   5607 7B          L1470:  MOV A,E
2697   5608 3D                  DCR A
2698   5609 57                  MOV D,A
2699   560A F0                  RP
2700   560B 3A EF FD            LDA 0FDEFH
2701   560E 57                  MOV D,A
2702   560F C9                  RET
2703   5610 7B          L1469:  MOV A,E
2704   5611 3C                  INR A
2705   5612 57                  MOV D,A
2706   5613 3A EF FD            LDA 0FDEFH
2707   5616 BA                  CMP D
2708   5617 7A                  MOV A,D
2709   5618 F0                  RP
2710   5619 97                  SUB A
2711   561A 57                  MOV D,A
2712   561B C9                  RET
2713   561C 3A ED FD    L1460:  LDA 0FDEDH
2714   561F B7                  ORA A
2715   5620 CA 31 56            JZ L1472
2716   5623 36 00               MVI M,00H
2717   5625 CD D4 57            CALL L1473
2718   5628 C2 46 56            JNZ L1474
2719   562B CD 05 42            CALL L0722
2720   562E C3 5C 55            JMP L1462
2721   5631 3A EE FD    L1472:  LDA 0FDEEH
2722   5634 21 A1 FD            LXI H,0FDA1H
2723   5637 11 02 00            LXI D,0002H
2724   563A B7          L1476:  ORA A
2725   563B CA 43 56            JZ L1475
2726   563E 19                  DAD D
2727   563F 3D                  DCR A
2728   5640 C3 3A 56            JMP L1476
2729   5643 CD 07 58    L1475:  CALL L1477
2730   5646 E5          L1474:  PUSH H
2731   5647 CD 0D 42            CALL L1478
2732   564A CD 20 42            CALL L1394
2733   564D 3A FA FD            LDA 0FDFAH
2734   5650 CD 05 1E            CALL L0607
2735   5653 3E 0C               MVI A,0CH
2736   5655 E7                  RST 4
2737   5656 97                  SUB A
2738   5657 32 CF FA            STA 0FACFH
2739   565A 6F                  MOV L,A
2740   565B 65                  MOV H,L
2741   565C 22 59 F6            SHLD 0F659H
2742   565F 3D                  DCR A
2743   5660 32 B4 FA            STA 0FAB4H
2744   5663 E1                  POP H
2745   5664 7E                  MOV A,M
2746   5665 CD 06 58            CALL L1479
2747   5668 FE A0               CPI 0A0H
2748   566A CA 23 25            JZ L1480
2749   566D FE B0               CPI 0B0H
2750   566F CA 94 56            JZ L1481
2751   5672 FE F0               CPI 0F0H
2752   5674 CA 24 F6            JZ L1482
2753   5677 FE C0               CPI 0C0H
2754   5679 CA 85 5C            JZ L1483
2755   567C 22 83 F6            SHLD 0F683H
2756   567F 1B                  DCX D
2757   5680 1B                  DCX D
2758   5681 EB                  XCHG
2759   5682 22 93 FA            SHLD 0FA93H
2760   5685 CD F7 05            CALL L0616
2761   5688 CD BC 69            CALL L1484
2762   568B CD 9F 69            CALL L1485
2763   568E CD 04 3F            CALL L0105
2764   5691 C3 F0 7C            JMP L1486
2765   5694 E9          L1481:  PCHL
2766   5695 06 1B       L1451:  MVI B,1BH
2767   5697 11 69 F9            LXI D,0F969H
2768   569A 1A          L1489:  LDAX D
2769   569B 3C                  INR A
2770   569C C8                  RZ
2771   569D 3D                  DCR A
2772   569E B9                  CMP C
2773   569F C2 C6 56            JNZ L1487
2774   56A2 C5                  PUSH B
2775   56A3 D5                  PUSH D
2776   56A4 E5                  PUSH H
2777   56A5 2A D7 FD            LHLD 0FDD7H
2778   56A8 73                  MOV M,E
2779   56A9 23                  INX H
2780   56AA 72                  MOV M,D
2781   56AB 23                  INX H
2782   56AC 13                  INX D
2783   56AD 13                  INX D
2784   56AE 13                  INX D
2785   56AF 22 D7 FD            SHLD 0FDD7H
2786   56B2 E1                  POP H
2787   56B3 CD EE 56            CALL L1454
2788   56B6 E5                  PUSH H
2789   56B7 21 D9 FD            LXI H,0FDD9H
2790   56BA E5                  PUSH H
2791   56BB CD D2 56            CALL L1488
2792   56BE E1                  POP H
2793   56BF CD 7B 57            CALL L1448
2794   56C2 E1                  POP H
2795   56C3 2C                  INR L
2796   56C4 D1                  POP D
2797   56C5 C1                  POP B
2798   56C6 E5          L1487:  PUSH H
2799   56C7 21 0B 00            LXI H,000BH
2800   56CA 19                  DAD D
2801   56CB EB                  XCHG
2802   56CC E1                  POP H
2803   56CD 05                  DCR B
2804   56CE C2 9A 56            JNZ L1489
2805   56D1 C9                  RET
2806   56D2 3E 06       L1488:  MVI A,06H
2807   56D4 CD 85 57            CALL L1490
2808   56D7 3E 20               MVI A,20H
2809   56D9 2B          L1491:  DCX H
2810   56DA BE                  CMP M
2811   56DB CA D9 56            JZ L1491
2812   56DE 23                  INX H
2813   56DF 36 00               MVI M,00H
2814   56E1 1A                  LDAX D
2815   56E2 FE 20               CPI 20H
2816   56E4 C8                  RZ
2817   56E5 36 2E               MVI M,2EH
2818   56E7 23                  INX H
2819   56E8 CD 83 57            CALL L1492
2820   56EB 36 00               MVI M,00H
2821   56ED C9                  RET
2822   56EE D5          L1454:  PUSH D
2823   56EF E5                  PUSH H
2824   56F0 7D                  MOV A,L
2825   56F1 1F                  RAR
2826   56F2 1F                  RAR
2827   56F3 E6 3F               ANI 3FH
2828   56F5 5F                  MOV E,A
2829   56F6 1C                  INR E
2830   56F7 1C                  INR E
2831   56F8 7D                  MOV A,L
2832   56F9 E6 03               ANI 03H
2833   56FB 87                  ADD A
2834   56FC 57                  MOV D,A
2835   56FD 87                  ADD A
2836   56FE 87                  ADD A
2837   56FF 82                  ADD D
2838   5700 57                  MOV D,A
2839   5701 14                  INR D
2840   5702 14                  INR D
2841   5703 EB                  XCHG
2842   5704 CD 58 42            CALL L0598
2843   5707 E1                  POP H
2844   5708 D1                  POP D
2845   5709 C9                  RET
2846   570A CD B4 70    L1456:  CALL L1163
2847   570D CD EE 56            CALL L1454
2848   5710 06 0A               MVI B,0AH
2849   5712 E5                  PUSH H
2850   5713 21 41 F6            LXI H,0F641H
2851   5716 35                  DCR M
2852   5717 C5          L1493:  PUSH B
2853   5718 D5                  PUSH D
2854   5719 2A 40 F6            LHLD 0F640H
2855   571C EB                  XCHG
2856   571D CD 5A 71            CALL L1165
2857   5720 F3                  DI
2858   5721 CD 98 70            CALL L1207
2859   5724 FB                  EI
2860   5725 D1                  POP D
2861   5726 21 41 F6            LXI H,0F641H
2862   5729 34                  INR M
2863   572A C1                  POP B
2864   572B 05                  DCR B
2865   572C C2 17 57            JNZ L1493
2866   572F CD B4 70            CALL L1163
2867   5732 E1                  POP H
2868   5733 C9                  RET
2869   5734 CD 0D 42    L1447:  CALL L1478
2870   5737 CD 8A 5A    L1531:  CALL L1494
2871   573A 21 8B FD            LXI H,0FD8BH
2872   573D CD F7 18            CALL L0517
2873   5740 36 20               MVI M,20H
2874   5742 23                  INX H
2875   5743 CD 2C 19            CALL L0522
2876   5746 EB                  XCHG
2877   5747 36 20               MVI M,20H
2878   5749 23                  INX H
2879   574A CD D7 18            CALL L0513
2880   574D 36 00               MVI M,00H
2881   574F 11 8B FD            LXI D,0FD8BH
2882   5752 21 88 FD            LXI H,0FD88H
2883   5755 E5                  PUSH H
2884   5756 CD 83 57            CALL L1492
2885   5759 36 20               MVI M,20H
2886   575B 23                  INX H
2887   575C E5                  PUSH H
2888   575D 3A 33 F9            LDA 0F933H
2889   5760 21 09 58            LXI H,5809H
2890   5763 01 03 00            LXI B,0003H
2891   5766 09          L1495:  DAD B
2892   5767 3D                  DCR A
2893   5768 C2 66 57            JNZ L1495
2894   576B EB                  XCHG
2895   576C E1                  POP H
2896   576D 3E 03               MVI A,03H
2897   576F CD 85 57            CALL L1490
2898   5772 36 2C               MVI M,2CH
2899   5774 23                  INX H
2900   5775 36 31               MVI M,31H
2901   5777 23                  INX H
2902   5778 36 39               MVI M,39H
2903   577A E1                  POP H
2904   577B 7E          L1448:  MOV A,M
2905   577C B7                  ORA A
2906   577D C8                  RZ
2907   577E E7                  RST 4
2908   577F 23                  INX H
2909   5780 C3 7B 57            JMP L1448
2910   5783 3E 02       L1492:  MVI A,02H
2911   5785 F5          L1490:  PUSH PSW
2912   5786 1A                  LDAX D
2913   5787 77                  MOV M,A
2914   5788 13                  INX D
2915   5789 23                  INX H
2916   578A F1                  POP PSW
2917   578B 3D                  DCR A
2918   578C C2 85 57            JNZ L1490
2919   578F C9                  RET
2920   5790 1A          L1496:  LDAX D
2921   5791 BE                  CMP M
2922   5792 C0                  RNZ
2923   5793 B7                  ORA A
2924   5794 C8                  RZ
2925   5795 23                  INX H
2926   5796 13                  INX D
2927   5797 0D                  DCR C
2928   5798 C2 90 57            JNZ L1496
2929   579B C9                  RET
2930   579C 21 61 58    L1446:  LXI H,5861H
2931   579F 11 90 F7    L1148:  LXI D,0F790H
2932   57A2 06 08               MVI B,08H
2933   57A4 0E 10       L1500:  MVI C,10H
2934   57A6 7E          L1498:  MOV A,M
2935   57A7 23                  INX H
2936   57A8 B7                  ORA A
2937   57A9 F5                  PUSH PSW
2938   57AA E6 7F               ANI 7FH
2939   57AC 12                  STAX D
2940   57AD F1                  POP PSW
2941   57AE FA B6 57            JM L1497
2942   57B1 13                  INX D
2943   57B2 0D                  DCR C
2944   57B3 C2 A6 57            JNZ L1498
2945   57B6 97          L1497:  SUB A
2946   57B7 13          L1499:  INX D
2947   57B8 0D                  DCR C
2948   57B9 12                  STAX D
2949   57BA C2 B7 57            JNZ L1499
2950   57BD 05                  DCR B
2951   57BE C2 A4 57            JNZ L1500
2952   57C1 3A 44 F6    L0573:  LDA 0F644H
2953   57C4 B7                  ORA A
2954   57C5 C4 84 42            CNZ L0412
2955   57C8 C9                  RET
2956   57C9 11 F1 59            LXI D,59F1H
2957   57CC 3E 08       L1505:  MVI A,08H
2958   57CE 21 D9 FD            LXI H,0FDD9H
2959   57D1 CD 85 57            CALL L1490
2960   57D4 06 1B       L1473:  MVI B,1BH
2961   57D6 11 69 F9            LXI D,0F969H
2962   57D9 21 F0 FD    L1503:  LXI H,0FDF0H
2963   57DC 1A                  LDAX D
2964   57DD 3C                  INR A
2965   57DE C8                  RZ
2966   57DF E6 80               ANI 80H
2967   57E1 CA FC 57            JZ L1501
2968   57E4 D5                  PUSH D
2969   57E5 13                  INX D
2970   57E6 13                  INX D
2971   57E7 13                  INX D
2972   57E8 E5                  PUSH H
2973   57E9 CD D2 56            CALL L1488
2974   57EC E1                  POP H
2975   57ED 0E 09               MVI C,09H
2976   57EF 11 D9 FD            LXI D,0FDD9H
2977   57F2 CD 90 57            CALL L1496
2978   57F5 C2 FB 57            JNZ L1502
2979   57F8 E1                  POP H
2980   57F9 0C                  INR C
2981   57FA C9                  RET
2982   57FB D1          L1502:  POP D
2983   57FC 21 0B 00    L1501:  LXI H,000BH
2984   57FF 19                  DAD D
2985   5800 EB                  XCHG
2986   5801 05                  DCR B
2987   5802 C2 D9 57            JNZ L1503
2988   5805 C9                  RET
2989   5806 23          L1479:  INX H
2990   5807 5E          L1477:  MOV E,M
2991   5808 23                  INX H
2992   5809 56                  MOV D,M
2993   580A EB                  XCHG
2994   580B C9                  RET
2995   580C 4A                  MOV C,D
2996   580D 61                  MOV H,C
2997   580E 6E                  MOV L,M
2998   580F 46                  MOV B,M
2999   5810 65                  MOV H,L
3000   5811 62                  MOV H,D
3001   5812 4D                  MOV C,L
3002   5813 61                  MOV H,C
3003   5814 72                  MOV M,D
3004   5815 41                  MOV B,C
3005   5816 70                  MOV M,B
3006   5817 72                  MOV M,D
3007   5818 4D                  MOV C,L
3008   5819 61                  MOV H,C
3009   581A 79                  MOV A,C
3010   581B 4A                  MOV C,D
3011   581C 75                  MOV M,L
3012   581D 6E                  MOV L,M
3013   581E 4A                  MOV C,D
3014   581F 6C                  MOV L,H
3015   5820 79                  MOV A,C
3016   5821 41                  MOV B,C
3017   5822 75                  MOV M,L
3018   5823 67                  MOV H,A
3019   5824 53                  MOV D,E
3020   5825 65                  MOV H,L
3021   5826 70                  MOV M,B
3022   5827 4F                  MOV C,A
3023   5828 63                  MOV H,E
3024   5829 74                  MOV M,H
3025   582A 4E                  MOV C,M
3026   582B 6F                  MOV L,A
3027   582C 76                  HLT
3028   582D 44                  MOV B,H
3029   582E 65                  MOV H,L
3030   582F 63                  MOV H,E
3031   5830 28                  UNRECOGNIZED
3032   5831 43                  MOV B,E
3033   5832 29                  DAD H
3034   5833 4D                  MOV C,L
3035   5834 69                  MOV L,C
3036   5835 63                  MOV H,E
3037   5836 72                  MOV M,D
3038   5837 6F                  MOV L,A
3039   5838 73                  MOV M,E
3040   5839 6F                  MOV L,A
3041   583A 66                  MOV H,M
3042   583B 74                  MOV M,H
3043   583C 00                  NOP
3044   583D 2D                  DCR L
3045   583E 2E 2D               MVI L,2DH
3046   5840 00                  NOP
3047   5841 B0          L0039:  ORA B
3048   5842 F0                  RP
3049   5843 C0                  RNZ
3050   5844 80                  ADD B
3051   5845 A0                  ANA B
3052   5846 00                  NOP
3053   5847 53                  MOV D,E
3054   5848 65                  MOV H,L
3055   5849 6C                  MOV L,H
3056   584A 65                  MOV H,L
3057   584B 63                  MOV H,E
3058   584C 74                  MOV M,H
3059   584D 3A 20 5F            LDA 5F20H
3060   5850 20                  RIM
3061   5851 20                  RIM
3062   5852 20                  RIM
3063   5853 20                  RIM
3064   5854 20                  RIM
3065   5855 20                  RIM
3066   5856 20                  RIM
3067   5857 20                  RIM
3068   5858 20                  RIM
3069   5859 00                  NOP
3070   585A 20                  RIM
3071   585B 08                  UNRECOGNIZED
3072   585C 08                  UNRECOGNIZED
3073   585D 5F                  MOV E,A
3074   585E 08                  UNRECOGNIZED
3075   585F 00                  NOP
3076   5860 00                  NOP
3077   5861 80                  ADD B
3078   5862 80                  ADD B
3079   5863 80                  ADD B
3080   5864 80                  ADD B
3081   5865 80                  ADD B
3082   5866 80                  ADD B
3083   5867 80                  ADD B
3084   5868 80                  ADD B
3085   5869 46                  MOV B,M
3086   586A 69                  MOV L,C
3087   586B 6C                  MOV L,H
3088   586C 65                  MOV H,L
3089   586D 73                  MOV M,E
3090   586E 8D                  ADC L
3091   586F 4C                  MOV C,H
3092   5870 6F                  MOV L,A
3093   5871 61                  MOV H,C
3094   5872 64                  MOV H,H
3095   5873 20                  RIM
3096   5874 A2                  ANA D
3097   5875 53                  MOV D,E
3098   5876 61                  MOV H,C
3099   5877 76                  HLT
3100   5878 65                  MOV H,L
3101   5879 20                  RIM
3102   587A A2                  ANA D
3103   587B 52                  MOV D,D
3104   587C 75                  MOV M,L
3105   587D 6E                  MOV L,M
3106   587E 8D                  ADC L
3107   587F 4C                  MOV C,H
3108   5880 69                  MOV L,C
3109   5881 73                  MOV M,E
3110   5882 74                  MOV M,H
3111   5883 8D                  ADC L
3112   5884 80                  ADD B
3113   5885 80                  ADD B
3114   5886 4D                  MOV C,L
3115   5887 65                  MOV H,L
3116   5888 6E                  MOV L,M
3117   5889 75                  MOV M,L
3118   588A 8D                  ADC L
3119   588B 11 F1 59            LXI D,59F1H
3120   588E 97                  SUB A
3121   588F C3 97 58            JMP L1504
3122   5892 11 25 5A            LXI D,5A25H
3123   5895 3E FF               MVI A,0FFH
3124   5897 32 ED FD    L1504:  STA 0FDEDH
3125   589A CD 6D 5A            CALL L1445
3126   589D D5                  PUSH D
3127   589E CD CC 57            CALL L1505
3128   58A1 CD 06 58            CALL L1479
3129   58A4 C2 CC 58            JNZ L1506
3130   58A7 E1                  POP H
3131   58A8 22 EE FD            SHLD 0FDEEH
3132   58AB 21 AB 58            LXI H,58ABH
3133   58AE 22 59 F6            SHLD 0F659H
3134   58B1 CD 0D 42            CALL L1478
3135   58B4 CD 05 42            CALL L0722
3136   58B7 2A EE FD            LHLD 0FDEEH
3137   58BA CD 7B 57            CALL L1448
3138   58BD 21 F9 59            LXI H,59F9H
3139   58C0 CD 7B 57            CALL L1448
3140   58C3 21 03 00            LXI H,0003H
3141   58C6 CD 44 5C            CALL L1507
3142   58C9 C3 BC 54            JMP L0721
3143   58CC 22 D7 FD    L1506:  SHLD 0FDD7H
3144   58CF CD 0D 42            CALL L1478
3145   58D2 21 2D 5A            LXI H,5A2DH
3146   58D5 CD 81 42            CALL L1395
3147   58D8 21 05 59            LXI H,5905H
3148   58DB 22 59 F6            SHLD 0F659H
3149   58DE CD 7D 5A    L1509:  CALL L1406
3150   58E1 97                  SUB A
3151   58E2 32 7C F6            STA 0F67CH
3152   58E5 21 04 5A            LXI H,5A04H
3153   58E8 3A ED FD            LDA 0FDEDH
3154   58EB B7                  ORA A
3155   58EC CA F2 58            JZ L1508
3156   58EF 21 0B 5A            LXI H,5A0BH
3157   58F2 CD 7B 57    L1508:  CALL L1448
3158   58F5 CD F8 45            CALL L0088
3159   58F8 23                  INX H
3160   58F9 7E                  MOV A,M
3161   58FA B7                  ORA A
3162   58FB CA DE 58            JZ L1509
3163   58FE 11 12 5A            LXI D,5A12H
3164   5901 CD C7 69            CALL L1399
3165   5904 C0                  RNZ
3166   5905 97                  SUB A
3167   5906 32 7C F6            STA 0F67CH
3168   5909 CD 86 4B            CALL L0080
3169   590C CD 05 42            CALL L0722
3170   590F 21 2D 5A            LXI H,5A2DH
3171   5912 CD 9F 57            CALL L1148
3172   5915 C3 DE 58            JMP L1509
3173   5918 97                  SUB A
3174   5919 01 3E FF            LXI B,0FF3EH
3175   591C CD D1 5A            CALL L1510
3176   591F CD 62 59    L1519:  CALL L1511
3177   5922 D2 DE 58            JNC L1509
3178   5925 E5                  PUSH H
3179   5926 D5                  PUSH D
3180   5927 CD E5 5A            CALL L1512
3181   592A CD FF 64    L1517:  CALL L1423
3182   592D 3A EE FD            LDA 0FDEEH
3183   5930 32 7C F6            STA 0F67CH
3184   5933 CD 30 67            CALL L1513
3185   5936 97                  SUB A
3186   5937 32 7C F6            STA 0F67CH
3187   593A 3A EE FD            LDA 0FDEEH
3188   593D B7                  ORA A
3189   593E C2 47 59            JNZ L1514
3190   5941 CD 04 5B    L0032:  CALL L1515
3191   5944 CA DE 58            JZ L1509
3192   5947 1B          L1514:  DCX D
3193   5948 1A                  LDAX D
3194   5949 13                  INX D
3195   594A FE 0A               CPI 0AH
3196   594C CA 5A 59            JZ L1516
3197   594F D5                  PUSH D
3198   5950 13                  INX D
3199   5951 7B                  MOV A,E
3200   5952 B2                  ORA D
3201   5953 D1                  POP D
3202   5954 C2 2A 59            JNZ L1517
3203   5957 C3 DE 58            JMP L1509
3204   595A D1          L1516:  POP D
3205   595B CD 90 59            CALL L1518
3206   595E E1                  POP H
3207   595F C3 1F 59            JMP L1519
3208   5962 D5          L1511:  PUSH D
3209   5963 E5          L1525:  PUSH H
3210   5964 D5                  PUSH D
3211   5965 1A          L1521:  LDAX D
3212   5966 CD F0 0F            CALL L0532
3213   5969 4F                  MOV C,A
3214   596A CD EF 0F            CALL L0495
3215   596D B9                  CMP C
3216   596E C2 76 59            JNZ L1520
3217   5971 13                  INX D
3218   5972 23                  INX H
3219   5973 C3 65 59            JMP L1521
3220   5976 FE 00       L1520:  CPI 00H
3221   5978 79                  MOV A,C
3222   5979 C1                  POP B
3223   597A E1                  POP H
3224   597B CA 8D 59            JZ L1522
3225   597E FE 1A               CPI 1AH
3226   5980 CA B9 59            JZ L1523
3227   5983 CD 97 59            CALL L1524
3228   5986 C2 63 59            JNZ L1525
3229   5989 F1                  POP PSW
3230   598A C3 62 59            JMP L1511
3231   598D D1          L1522:  POP D
3232   598E 37                  STC
3233   598F C9                  RET
3234   5990 CD 97 59    L1518:  CALL L1524
3235   5993 C2 90 59            JNZ L1518
3236   5996 C9                  RET
3237   5997 1A          L1524:  LDAX D
3238   5998 FE 0D               CPI 0DH
3239   599A 13                  INX D
3240   599B C0                  RNZ
3241   599C 1A                  LDAX D
3242   599D FE 0A               CPI 0AH
3243   599F C0                  RNZ
3244   59A0 13                  INX D
3245   59A1 C9                  RET
3246   59A2 D5                  PUSH D
3247   59A3 21 4E 5A            LXI H,5A4EH
3248   59A6 CD 9F 57            CALL L1148
3249   59A9 CD D1 59            CALL L1526
3250   59AC F5                  PUSH PSW
3251   59AD 21 5F 51            LXI H,515FH
3252   59B0 CD 9F 57    L1529:  CALL L1148
3253   59B3 CD DC 5A            CALL L1527
3254   59B6 F1                  POP PSW
3255   59B7 FE 51               CPI 51H
3256   59B9 D1          L1523:  POP D
3257   59BA C9                  RET
3258   59BB D5          L1535:  PUSH D
3259   59BC 21 41 5A            LXI H,5A41H
3260   59BF CD 9F 57            CALL L1148
3261   59C2 CD D1 59    L1528:  CALL L1526
3262   59C5 FE 43               CPI 43H
3263   59C7 CA C2 59            JZ L1528
3264   59CA F5                  PUSH PSW
3265   59CB 21 2D 5A            LXI H,5A2DH
3266   59CE C3 B0 59            JMP L1529
3267   59D1 CD D4 12    L1526:  CALL L1218
3268   59D4 F5                  PUSH PSW
3269   59D5 97                  SUB A
3270   59D6 32 34 F6            STA 0F634H
3271   59D9 F1                  POP PSW
3272   59DA CD F0 0F            CALL L0532
3273   59DD FE 51               CPI 51H
3274   59DF C8                  RZ
3275   59E0 FE 20               CPI 20H
3276   59E2 C8                  RZ
3277   59E3 FE 4D               CPI 4DH
3278   59E5 C8                  RZ
3279   59E6 FE 43               CPI 43H
3280   59E8 C8                  RZ
3281   59E9 FE 0D               CPI 0DH
3282   59EB C2 D1 59            JNZ L1526
3283   59EE C6 36               ADI 36H
3284   59F0 C9                  RET
3285   59F1 41                  MOV B,C
3286   59F2 44                  MOV B,H
3287   59F3 52                  MOV D,D
3288   59F4 53                  MOV D,E
3289   59F5 2E 44               MVI L,44H
3290   59F7 4F                  MOV C,A
3291   59F8 00                  NOP
3292   59F9 20                  RIM
3293   59FA 6E                  MOV L,M
3294   59FB 6F                  MOV L,A
3295   59FC 74                  MOV M,H
3296   59FD 20                  RIM
3297   59FE 66                  MOV H,M
3298   59FF 6F                  MOV L,A
3299   5A00 75                  MOV M,L
3300   5A01 6E                  MOV L,M
3301   5A02 64                  MOV H,H
3302   5A03 00                  NOP
3303   5A04 41                  MOV B,C
3304   5A05 64                  MOV H,H
3305   5A06 72                  MOV M,D
3306   5A07 73                  MOV M,E
3307   5A08 3A 20 00            LDA 0020H
3308   5A0B 53                  MOV D,E
3309   5A0C 63                  MOV H,E
3310   5A0D 68                  MOV L,B
3311   5A0E 64                  MOV H,H
3312   5A0F 3A 20 00            LDA 0020H
3313   5A12 46                  MOV B,M
3314   5A13 49                  MOV C,C
3315   5A14 4E                  MOV C,M
3316   5A15 44                  MOV B,H
3317   5A16 18                  UNRECOGNIZED
3318   5A17 59                  MOV E,C
3319   5A18 4C                  MOV C,H
3320   5A19 46                  MOV B,M
3321   5A1A 4E                  MOV C,M
3322   5A1B 44                  MOV B,H
3323   5A1C 1A                  LDAX D
3324   5A1D 59                  MOV E,C
3325   5A1E 4D                  MOV C,L
3326   5A1F 45                  MOV B,L
3327   5A20 4E                  MOV C,M
3328   5A21 55                  MOV D,L
3329   5A22 BC                  CMP H
3330   5A23 54                  MOV D,H
3331   5A24 FF                  RST 7
3332   5A25 4E                  MOV C,M
3333   5A26 4F                  MOV C,A
3334   5A27 54                  MOV D,H
3335   5A28 45                  MOV B,L
3336   5A29 2E 44               MVI L,44H
3337   5A2B 4F                  MOV C,A
3338   5A2C 00                  NOP
3339   5A2D 46                  MOV B,M
3340   5A2E 69                  MOV L,C
3341   5A2F 6E                  MOV L,M
3342   5A30 64                  MOV H,H
3343   5A31 A0                  ANA B
3344   5A32 80                  ADD B
3345   5A33 80                  ADD B
3346   5A34 80                  ADD B
3347   5A35 4C                  MOV C,H
3348   5A36 66                  MOV H,M
3349   5A37 6E                  MOV L,M
3350   5A38 64                  MOV H,H
3351   5A39 A0                  ANA B
3352   5A3A 80                  ADD B
3353   5A3B 80                  ADD B
3354   5A3C 4D                  MOV C,L
3355   5A3D 65                  MOV H,L
3356   5A3E 6E                  MOV L,M
3357   5A3F 75                  MOV M,L
3358   5A40 8D                  ADC L
3359   5A41 80                  ADD B
3360   5A42 80                  ADD B
3361   5A43 4D                  MOV C,L
3362   5A44 6F                  MOV L,A
3363   5A45 72                  MOV M,D
3364   5A46 E5                  PUSH H
3365   5A47 51                  MOV D,C
3366   5A48 75                  MOV M,L
3367   5A49 69                  MOV L,C
3368   5A4A F4 80 80            CP L1530
3369   5A4D 80                  ADD B
3370   5A4E 80                  ADD B
3371   5A4F 43                  MOV B,E
3372   5A50 61                  MOV H,C
3373   5A51 6C                  MOV L,H
3374   5A52 6C                  MOV L,H
3375   5A53 A0                  ANA B
3376   5A54 4D                  MOV C,L
3377   5A55 6F                  MOV L,A
3378   5A56 72                  MOV M,D
3379   5A57 E5                  PUSH H
3380   5A58 51                  MOV D,C
3381   5A59 75                  MOV M,L
3382   5A5A 69                  MOV L,C
3383   5A5B F4 80 80            CP L1530
3384   5A5E 80                  ADD B
3385   5A5F 80                  ADD B
3386   5A60 11 10 00            LXI D,0010H
3387   5A63 19                  DAD D
3388   5A64 0D                  DCR C
3389   5A65 C9                  RET
3390   5A66 7E          L1533:  MOV A,M
3391   5A67 23                  INX H
3392   5A68 FE 20               CPI 20H
3393   5A6A C8                  RZ
3394   5A6B 2B                  DCX H
3395   5A6C C9                  RET
3396   5A6D 21 5F 58    L1445:  LXI H,585FH
3397   5A70 22 91 F8            SHLD 0F891H
3398   5A73 21 FF FF    L1397:  LXI H,0FFFFH
3399   5A76 22 81 F6            SHLD 0F681H
3400   5A79 23                  INX H
3401   5A7A 22 C9 FA            SHLD 0FAC9H
3402   5A7D C1          L1406:  POP B
3403   5A7E 2A AF FB            LHLD 0FBAFH
3404   5A81 F9                  SPHL
3405   5A82 C5                  PUSH B
3406   5A83 C9                  RET
3407   5A84 CD D4 12    L1459:  CALL L1218
3408   5A87 C3 F0 0F            JMP L0532
3409   5A8A 21 01 01    L1494:  LXI H,0101H
3410   5A8D C3 58 42            JMP L0598
3411   5A90 E5          L1458:  PUSH H
3412   5A91 2A 40 F6            LHLD 0F640H
3413   5A94 E5                  PUSH H
3414   5A95 CD E4 13            CALL L0397
3415   5A98 F5                  PUSH PSW
3416   5A99 CC 37 57            CZ L1531
3417   5A9C F1                  POP PSW
3418   5A9D E1                  POP H
3419   5A9E F5                  PUSH PSW
3420   5A9F CD 58 42            CALL L0598
3421   5AA2 F1                  POP PSW
3422   5AA3 E1                  POP H
3423   5AA4 CA 90 5A            JZ L1458
3424   5AA7 C9                  RET
3425   5AA8 71          L1466:  MOV M,C
3426   5AA9 23                  INX H
3427   5AAA E5                  PUSH H
3428   5AAB 21 ED FD            LXI H,0FDEDH
3429   5AAE 34                  INR M
3430   5AAF 79                  MOV A,C
3431   5AB0 E7                  RST 4
3432   5AB1 21 5D 58            LXI H,585DH
3433   5AB4 CD 7B 57            CALL L1448
3434   5AB7 E1                  POP H
3435   5AB8 C9                  RET
3436   5AB9 3A ED FD    L1532:  LDA 0FDEDH
3437   5ABC B7                  ORA A
3438   5ABD C9                  RET
3439   5ABE CD B9 5A    L1468:  CALL L1532
3440   5AC1 C8                  RZ
3441   5AC2 3D                  DCR A
3442   5AC3 32 ED FD            STA 0FDEDH
3443   5AC6 2B                  DCX H
3444   5AC7 E5                  PUSH H
3445   5AC8 21 5A 58            LXI H,585AH
3446   5ACB CD 7B 57            CALL L1448
3447   5ACE E1                  POP H
3448   5ACF 3C                  INR A
3449   5AD0 C9                  RET
3450   5AD1 32 EE FD    L1510:  STA 0FDEEH
3451   5AD4 CD 66 5A            CALL L1533
3452   5AD7 EB                  XCHG
3453   5AD8 2A D7 FD            LHLD 0FDD7H
3454   5ADB EB                  XCHG
3455   5ADC 3A 42 F6    L1527:  LDA 0F642H
3456   5ADF 3D                  DCR A
3457   5AE0 3D                  DCR A
3458   5AE1 32 EF FD            STA 0FDEFH
3459   5AE4 C9                  RET
3460   5AE5 21 43 F6    L1512:  LXI H,0F643H
3461   5AE8 3E FF               MVI A,0FFH
3462   5AEA 32 28 F9            STA 0F928H
3463   5AED 32 27 F9            STA 0F927H
3464   5AF0 3A EE FD            LDA 0FDEEH
3465   5AF3 B7                  ORA A
3466   5AF4 CA FF 5A            JZ L1534
3467   5AF7 3E 01               MVI A,01H
3468   5AF9 32 27 F9            STA 0F927H
3469   5AFC 21 50 F6            LXI H,0F650H
3470   5AFF 7E          L1534:  MOV A,M
3471   5B00 32 29 F9            STA 0F929H
3472   5B03 C9                  RET
3473   5B04 21 EF FD    L1515:  LXI H,0FDEFH
3474   5B07 35                  DCR M
3475   5B08 CC BB 59            CZ L1535
3476   5B0B FE 51               CPI 51H
3477   5B0D C9                  RET
3478   5B0E 21 1B 5B            LXI H,5B1BH
3479   5B11 22 59 F6            SHLD 0F659H
3480   5B14 21 42 5B            LXI H,5B42H
3481   5B17 CD 9F 57            CALL L1148
3482   5B1A AF                  XRA A
3483   5B1B C4 05 42            CNZ L0722
3484   5B1E CD 73 5A            CALL L1397
3485   5B21 21 35 5B            LXI H,5B35H
3486   5B24 CD 8A 27            CALL L0084
3487   5B27 CD F2 45            CALL L0260
3488   5B2A D7                  RST 2
3489   5B2B A7                  ANA A
3490   5B2C CA BC 54            JZ L0721
3491   5B2F CD DE 21            CALL L1431
3492   5B32 C3 85 5C            JMP L1483
3493   5B35 46                  MOV B,M
3494   5B36 69                  MOV L,C
3495   5B37 6C                  MOV L,H
3496   5B38 65                  MOV H,L
3497   5B39 20                  RIM
3498   5B3A 74                  MOV M,H
3499   5B3B 6F                  MOV L,A
3500   5B3C 20                  RIM
3501   5B3D 65                  MOV H,L
3502   5B3E 64                  MOV H,H
3503   5B3F 69                  MOV L,C
3504   5B40 74                  MOV M,H
3505   5B41 00                  NOP
3506   5B42 80                  ADD B
3507   5B43 80                  ADD B
3508   5B44 80                  ADD B
3509   5B45 80                  ADD B
3510   5B46 80                  ADD B
3511   5B47 80                  ADD B
3512   5B48 80                  ADD B
3513   5B49 83                  ADD E
3514   5B4A 46                  MOV B,M
3515   5B4B 69                  MOV L,C
3516   5B4C 6E                  MOV L,M
3517   5B4D 64                  MOV H,H
3518   5B4E 8E                  ADC M
3519   5B4F 4C                  MOV C,H
3520   5B50 6F                  MOV L,A
3521   5B51 61                  MOV H,C
3522   5B52 64                  MOV H,H
3523   5B53 96                  SUB M
3524   5B54 53                  MOV D,E
3525   5B55 61                  MOV H,C
3526   5B56 76                  HLT
3527   5B57 65                  MOV H,L
3528   5B58 87                  ADD A
3529   5B59 80                  ADD B
3530   5B5A 43                  MOV B,E
3531   5B5B 6F                  MOV L,A
3532   5B5C 70                  MOV M,B
3533   5B5D 79                  MOV A,C
3534   5B5E 8F                  ADC A
3535   5B5F 43                  MOV B,E
3536   5B60 75                  MOV M,L
3537   5B61 74                  MOV M,H
3538   5B62 20                  RIM
3539   5B63 95                  SUB L
3540   5B64 53                  MOV D,E
3541   5B65 65                  MOV H,L
3542   5B66 6C                  MOV L,H
3543   5B67 20                  RIM
3544   5B68 8C                  ADC H
3545   5B69 4D                  MOV C,L
3546   5B6A 65                  MOV H,L
3547   5B6B 6E                  MOV L,M
3548   5B6C 75                  MOV M,L
3549   5B6D 1B                  DCX D
3550   5B6E 9B                  SBB E
3551   5B6F 19                  DAD D
3552   5B70 00                  NOP
3553   5B71 E5                  PUSH H
3554   5B72 F5                  PUSH PSW
3555   5B73 3E 01               MVI A,01H
3556   5B75 CA 7A 5B            JZ L1536
3557   5B78 3E FF               MVI A,0FFH
3558   5B7A 32 58 F6    L1536:  STA 0F658H
3559   5B7D AF                  XRA A
3560   5B7E 32 A7 FC            STA 0FCA7H
3561   5B81 21 20 20            LXI H,2020H
3562   5B84 22 AB FC            SHLD 0FCABH
3563   5B87 21 FA 5B            LXI H,5BFAH
3564   5B8A 22 59 F6            SHLD 0F659H
3565   5B8D 11 02 F9            LXI D,0F902H
3566   5B90 21 68 5C            LXI H,5C68H
3567   5B93 CD E0 4C            CALL L1340
3568   5B96 21 F5 5B            LXI H,5BF5H
3569   5B99 22 59 F6            SHLD 0F659H
3570   5B9C F1                  POP PSW
3571   5B9D E1                  POP H
3572   5B9E E5                  PUSH H
3573   5B9F C3 47 11            JMP L1348
3574   5BA2 CD 0C 4F    L0365:  CALL L0087
3575   5BA5 CD FD 20            CALL L1537
3576   5BA8 3A 44 F6            LDA 0F644H
3577   5BAB 32 D3 FA            STA 0FAD3H
3578   5BAE 21 00 00            LXI H,0000H
3579   5BB1 22 EE F6            SHLD 0F6EEH
3580   5BB4 CD 16 21    L1545:  CALL L0394
3581   5BB7 CD E5 3F            CALL L1103
3582   5BBA 2A B7 F9            LHLD 0F9B7H
3583   5BBD 7E                  MOV A,M
3584   5BBE FE 1A               CPI 1AH
3585   5BC0 CA DD 5B            JZ L1538
3586   5BC3 E5                  PUSH H
3587   5BC4 AF                  XRA A
3588   5BC5 21 CB 5B            LXI H,5BCBH
3589   5BC8 C3 91 5C            JMP L1539
3590   5BCB AF                  XRA A
3591   5BCC 21 0B 5C            LXI H,5C0BH
3592   5BCF 22 59 F6            SHLD 0F659H
3593   5BD2 21 68 5C            LXI H,5C68H
3594   5BD5 16 F9               MVI D,0F9H
3595   5BD7 C3 6C 4D            JMP L1540
3596   5BDA CD 0D 42    L1238:  CALL L1478
3597   5BDD AF          L1538:  XRA A
3598   5BDE 32 58 F6            STA 0F658H
3599   5BE1 6F                  MOV L,A
3600   5BE2 67                  MOV H,A
3601   5BE3 22 59 F6            SHLD 0F659H
3602   5BE6 CD C9 1F            CALL L1541
3603   5BE9 CD 49 3F            CALL L1107
3604   5BEC 3A D3 FA            LDA 0FAD3H
3605   5BEF 32 44 F6            STA 0F644H
3606   5BF2 C3 7B 69            JMP L1542
3607   5BF5 D5                  PUSH D
3608   5BF6 CD C9 1F            CALL L1541
3609   5BF9 D1                  POP D
3610   5BFA D5                  PUSH D
3611   5BFB AF                  XRA A
3612   5BFC 32 58 F6            STA 0F658H
3613   5BFF 6F                  MOV L,A
3614   5C00 67                  MOV H,A
3615   5C01 22 59 F6            SHLD 0F659H
3616   5C04 CD 0C 4F            CALL L0087
3617   5C07 D1                  POP D
3618   5C08 C3 64 04            JMP L0072
3619   5C0B 7B                  MOV A,E
3620   5C0C F5                  PUSH PSW
3621   5C0D 2A 99 FC            LHLD 0FC99H
3622   5C10 2B                  DCX H
3623   5C11 46                  MOV B,M
3624   5C12 05                  DCR B
3625   5C13 2B                  DCX H
3626   5C14 4E                  MOV C,M
3627   5C15 2B                  DCX H
3628   5C16 6E                  MOV L,M
3629   5C17 AF                  XRA A
3630   5C18 67                  MOV H,A
3631   5C19 09                  DAD B
3632   5C1A 01 FF FF            LXI B,0FFFFH
3633   5C1D 09                  DAD B
3634   5C1E DA 23 5C            JC L1543
3635   5C21 6F                  MOV L,A
3636   5C22 67                  MOV H,A
3637   5C23 22 EE F6    L1543:  SHLD 0F6EEH
3638   5C26 CD 0C 4F            CALL L0087
3639   5C29 F1                  POP PSW
3640   5C2A FE 07               CPI 07H
3641   5C2C 21 D1 5D            LXI H,5DD1H
3642   5C2F CA 35 5C            JZ L1544
3643   5C32 21 58 5C            LXI H,5C58H
3644   5C35 CD 0D 42    L1544:  CALL L1478
3645   5C38 CD 8A 27            CALL L0084
3646   5C3B 21 80 5C            LXI H,5C80H
3647   5C3E CD 44 5C            CALL L1507
3648   5C41 C3 B4 5B            JMP L1545
3649   5C44 E5          L1507:  PUSH H
3650   5C45 21 69 5C            LXI H,5C69H
3651   5C48 CD 8A 27            CALL L0084
3652   5C4B E1                  POP H
3653   5C4C CD 8A 27            CALL L0084
3654   5C4F CD D4 12    L1546:  CALL L1218
3655   5C52 FE 20               CPI 20H
3656   5C54 C2 4F 5C            JNZ L1546
3657   5C57 C9                  RET
3658   5C58 54                  MOV D,H
3659   5C59 65                  MOV H,L
3660   5C5A 78                  MOV A,B
3661   5C5B 74                  MOV M,H
3662   5C5C 20                  RIM
3663   5C5D 69                  MOV L,C
3664   5C5E 6C                  MOV L,H
3665   5C5F 6C                  MOV L,H
3666   5C60 2D                  DCR L
3667   5C61 66                  MOV H,M
3668   5C62 6F                  MOV L,A
3669   5C63 72                  MOV M,D
3670   5C64 6D                  MOV L,L
3671   5C65 65                  MOV H,L
3672   5C66 64                  MOV H,H
3673   5C67 07                  RLC
3674   5C68 00                  NOP
3675   5C69 0D                  DCR C
3676   5C6A 0A                  LDAX B
3677   5C6B 50                  MOV D,B
3678   5C6C 72                  MOV M,D
3679   5C6D 65                  MOV H,L
3680   5C6E 73                  MOV M,E
3681   5C6F 73                  MOV M,E
3682   5C70 20                  RIM
3683   5C71 73                  MOV M,E
3684   5C72 70                  MOV M,B
3685   5C73 61                  MOV H,C
3686   5C74 63                  MOV H,E
3687   5C75 65                  MOV H,L
3688   5C76 20                  RIM
3689   5C77 62                  MOV H,D
3690   5C78 61                  MOV H,C
3691   5C79 72                  MOV M,D
3692   5C7A 20                  RIM
3693   5C7B 66                  MOV H,M
3694   5C7C 6F                  MOV L,A
3695   5C7D 72                  MOV M,D
3696   5C7E 20                  RIM
3697   5C7F 00                  NOP
3698   5C80 54                  MOV D,H
3699   5C81 45                  MOV B,L
3700   5C82 58                  MOV E,B
3701   5C83 54                  MOV D,H
3702   5C84 00                  NOP
3703   5C85 E5          L1483:  PUSH H
3704   5C86 21 00 00            LXI H,0000H
3705   5C89 22 EE F6            SHLD 0F6EEH
3706   5C8C 3E 01               MVI A,01H
3707   5C8E 21 BC 54            LXI H,54BCH
3708   5C91 32 28 F9    L1539:  STA 0F928H
3709   5C94 22 6C F7            SHLD 0F76CH
3710   5C97 CD 4A 42            CALL L1153
3711   5C9A CD 66 42            CALL L0411
3712   5C9D CD 1B 42            CALL L1444
3713   5CA0 CD 2A 42            CALL L0416
3714   5CA3 CD D9 62            CALL L1547
3715   5CA6 21 4A 5B            LXI H,5B4AH
3716   5CA9 CD 9F 57            CALL L1148
3717   5CAC 3A 58 F6            LDA 0F658H
3718   5CAF A7                  ANA A
3719   5CB0 CA BF 5C            JZ L1548
3720   5CB3 21 45 78            LXI H,7845H
3721   5CB6 22 00 F8            SHLD 0F800H
3722   5CB9 21 69 74            LXI H,7469H
3723   5CBC 22 02 F8            SHLD 0F802H
3724   5CBF 21 6F 5B    L1548:  LXI H,5B6FH
3725   5CC2 22 91 F8            SHLD 0F891H
3726   5CC5 3A 43 F6            LDA 0F643H
3727   5CC8 32 29 F9            STA 0F929H
3728   5CCB 3E 80               MVI A,80H
3729   5CCD 32 57 F6            STA 0F657H
3730   5CD0 AF                  XRA A
3731   5CD1 6F                  MOV L,A
3732   5CD2 67                  MOV H,A
3733   5CD3 32 E6 F6            STA 0F6E6H
3734   5CD6 32 27 F9            STA 0F927H
3735   5CD9 32 E8 F6            STA 0F6E8H
3736   5CDC 32 26 F7            STA 0F726H
3737   5CDF 22 E9 F6            SHLD 0F6E9H
3738   5CE2 E1                  POP H
3739   5CE3 22 6E F7            SHLD 0F76EH
3740   5CE6 E5                  PUSH H
3741   5CE7 CD 4A 68            CALL L1549
3742   5CEA CD 6A 60            CALL L1434
3743   5CED D1                  POP D
3744   5CEE 2A EE F6            LHLD 0F6EEH
3745   5CF1 19                  DAD D
3746   5CF2 CD ED 60            CALL L1182
3747   5CF5 E5                  PUSH H
3748   5CF6 CD A6 66            CALL L1550
3749   5CF9 E1                  POP H
3750   5CFA CD 2B 60            CALL L1551
3751   5CFD CD 73 5A    L1658:  CALL L1397
3752   5D00 21 FD 5C            LXI H,5CFDH
3753   5D03 22 59 F6            SHLD 0F659H
3754   5D06 E5                  PUSH H
3755   5D07 3A E6 F6            LDA 0F6E6H
3756   5D0A 32 E7 F6            STA 0F6E7H
3757   5D0D CD 05 61            CALL L1552
3758   5D10 32 E6 F6            STA 0F6E6H
3759   5D13 F5                  PUSH PSW
3760   5D14 CD 0C 63            CALL L1553
3761   5D17 F1                  POP PSW
3762   5D18 DA 21 62            JC L1554
3763   5D1B FE 7F               CPI 7FH
3764   5D1D CA 38 5E            JZ L1555
3765   5D20 FE 20               CPI 20H
3766   5D22 D2 AA 5D            JNC L1556
3767   5D25 4F                  MOV C,A
3768   5D26 06 00               MVI B,00H
3769   5D28 21 36 5D            LXI H,5D36H
3770   5D2B 09                  DAD B
3771   5D2C 09                  DAD B
3772   5D2D 4E                  MOV C,M
3773   5D2E 23                  INX H
3774   5D2F 66                  MOV H,M
3775   5D30 69                  MOV L,C
3776   5D31 E5                  PUSH H
3777   5D32 2A 40 F6            LHLD 0F640H
3778   5D35 C9                  RET
3779   5D36 35                  DCR M
3780   5D37 5D                  MOV E,L
3781   5D38 AC                  XRA H
3782   5D39 5E                  MOV E,M
3783   5D3A F7                  RST 6
3784   5D3B 5E                  MOV E,M
3785   5D3C AF                  XRA A
3786   5D3D 5F                  MOV E,A
3787   5D3E FE 5D               CPI 5DH
3788   5D40 75                  MOV M,L
3789   5D41 5E                  MOV E,M
3790   5D42 9A                  SBB D
3791   5D43 5E                  MOV E,M
3792   5D44 33                  INX SP
3793   5D45 64                  MOV H,H
3794   5D46 2B                  DCX H
3795   5D47 5E                  MOV E,M
3796   5D48 AA                  XRA D
3797   5D49 5D                  MOV E,L
3798   5D4A 35                  DCR M
3799   5D4B 5D                  MOV E,L
3800   5D4C 35                  DCR M
3801   5D4D 5D                  MOV E,L
3802   5D4E 62                  MOV H,D
3803   5D4F 5F                  MOV E,A
3804   5D50 DE 5D               SBI 5DH
3805   5D52 71                  MOV M,C
3806   5D53 62                  MOV H,D
3807   5D54 51                  MOV D,C
3808   5D55 61                  MOV H,C
3809   5D56 9C                  SBB H
3810   5D57 5D                  MOV E,L
3811   5D58 2B                  DCX H
3812   5D59 5F                  MOV E,A
3813   5D5A 1D                  DCR E
3814   5D5B 5F                  MOV E,A
3815   5D5C 71                  MOV M,C
3816   5D5D 5E                  MOV E,M
3817   5D5E E2 5E 65            JPO L1557
3818   5D61 61                  MOV H,C
3819   5D62 94                  SUB H
3820   5D63 64                  MOV H,H
3821   5D64 30                  SIM
3822   5D65 5F                  MOV E,A
3823   5D66 02                  STAX B
3824   5D67 5E                  MOV E,M
3825   5D68 B1                  ORA C
3826   5D69 63                  MOV H,E
3827   5D6A 3C                  INR A
3828   5D6B 5F                  MOV E,A
3829   5D6C 76                  HLT
3830   5D6D 5D                  MOV E,L
3831   5D6E FE 5D               CPI 5DH
3832   5D70 71                  MOV M,C
3833   5D71 5E                  MOV E,M
3834   5D72 75                  MOV M,L
3835   5D73 5E                  MOV E,M
3836   5D74 02                  STAX B
3837   5D75 5E                  MOV E,M
3838   5D76 3A E7 F6            LDA 0F6E7H
3839   5D79 D6 1B               SUI 1BH
3840   5D7B C0                  RNZ
3841   5D7C 6F                  MOV L,A
3842   5D7D 67                  MOV H,A
3843   5D7E 22 59 F6            SHLD 0F659H
3844   5D81 FF                  RST 7
3845   5D82 46                  MOV B,M
3846   5D83 CD D9 62            CALL L1547
3847   5D86 CD 20 42            CALL L1394
3848   5D89 CD 66 42            CALL L0411
3849   5D8C CD FB 60            CALL L1558
3850   5D8F CD 58 42            CALL L0598
3851   5D92 CD FE 41            CALL L0562
3852   5D95 CD A3 60            CALL L1436
3853   5D98 2A 6C F7            LHLD 0F76CH
3854   5D9B E9                  PCHL
3855   5D9C CD 05 61            CALL L1552
3856   5D9F DA 21 62            JC L1554
3857   5DA2 A7                  ANA A
3858   5DA3 C8                  RZ
3859   5DA4 FE 1A               CPI 1AH
3860   5DA6 C8                  RZ
3861   5DA7 FE 7F               CPI 7FH
3862   5DA9 C8                  RZ
3863   5DAA F5          L1556:  PUSH PSW
3864   5DAB CD AF 5F            CALL L1559
3865   5DAE CD BB 67            CALL L1560
3866   5DB1 CD 19 68            CALL L1561
3867   5DB4 F1                  POP PSW
3868   5DB5 CD B6 60    L1567:  CALL L1439
3869   5DB8 DA C3 5D            JC L1562
3870   5DBB E5                  PUSH H
3871   5DBC CD 73 5F            CALL L1563
3872   5DBF E1                  POP H
3873   5DC0 C3 66 5E            JMP L1564
3874   5DC3 CD BB 62    L1562:  CALL L1565
3875   5DC6 E5                  PUSH H
3876   5DC7 21 D1 5D            LXI H,5DD1H
3877   5DCA CD CE 62            CALL L1566
3878   5DCD E1          L1612:  POP H
3879   5DCE C3 58 42            JMP L0598
3880   5DD1 4D                  MOV C,L
3881   5DD2 65                  MOV H,L
3882   5DD3 6D                  MOV L,L
3883   5DD4 6F                  MOV L,A
3884   5DD5 72                  MOV M,D
3885   5DD6 79                  MOV A,C
3886   5DD7 20                  RIM
3887   5DD8 66                  MOV H,M
3888   5DD9 75                  MOV M,L
3889   5DDA 6C                  MOV L,H
3890   5DDB 6C                  MOV L,H
3891   5DDC 07                  RLC
3892   5DDD 00                  NOP
3893   5DDE CD AF 5F            CALL L1559
3894   5DE1 CD BB 67            CALL L1560
3895   5DE4 2A 74 FB            LHLD 0FB74H
3896   5DE7 23                  INX H
3897   5DE8 7E                  MOV A,M
3898   5DE9 23                  INX H
3899   5DEA B6                  ORA M
3900   5DEB C2 C3 5D            JNZ L1562
3901   5DEE CD 73 5F            CALL L1563
3902   5DF1 CD 19 68            CALL L1561
3903   5DF4 3E 0D               MVI A,0DH
3904   5DF6 CD B6 60            CALL L1439
3905   5DF9 3E 0A               MVI A,0AH
3906   5DFB C3 B5 5D            JMP L1567
3907   5DFE CD 08 5E            CALL L1568
3908   5E01 37                  STC
3909   5E02 D4 15 5E            CNC L1569
3910   5E05 C3 C0 5F            JMP L1570
3911   5E08 2A 40 F6    L1568:  LHLD 0F640H
3912   5E0B 3A 43 F6            LDA 0F643H
3913   5E0E 24                  INR H
3914   5E0F BC                  CMP H
3915   5E10 D2 95 5E            JNC L1571
3916   5E13 26 01               MVI H,01H
3917   5E15 2C          L1569:  INR L
3918   5E16 7D                  MOV A,L
3919   5E17 E5                  PUSH H
3920   5E18 CD 68 67            CALL L1572
3921   5E1B 7B                  MOV A,E
3922   5E1C A2                  ANA D
3923   5E1D 3C                  INR A
3924   5E1E E1                  POP H
3925   5E1F 37                  STC
3926   5E20 C8                  RZ
3927   5E21 CD ED 60            CALL L1182
3928   5E24 BD                  CMP L
3929   5E25 DC 31 60            CC L1573
3930   5E28 C3 95 5E            JMP L1571
3931   5E2B CD AF 5F            CALL L1559
3932   5E2E CD 19 68            CALL L1561
3933   5E31 CD 2B 60            CALL L1551
3934   5E34 CD 7B 5E            CALL L1574
3935   5E37 D8                  RC
3936   5E38 CD AF 5F    L1555:  CALL L1559
3937   5E3B CD 19 68            CALL L1561
3938   5E3E E5                  PUSH H
3939   5E3F CD 2B 60            CALL L1551
3940   5E42 E1                  POP H
3941   5E43 7E                  MOV A,M
3942   5E44 FE 1A               CPI 1AH
3943   5E46 C8                  RZ
3944   5E47 F5                  PUSH PSW
3945   5E48 E5                  PUSH H
3946   5E49 E5                  PUSH H
3947   5E4A CD BB 67            CALL L1560
3948   5E4D E1                  POP H
3949   5E4E CD D6 60    L1577:  CALL L1575
3950   5E51 CD 76 5F            CALL L1576
3951   5E54 E1                  POP H
3952   5E55 F1                  POP PSW
3953   5E56 FE 0D               CPI 0DH
3954   5E58 C2 66 5E            JNZ L1564
3955   5E5B 7E                  MOV A,M
3956   5E5C FE 0A               CPI 0AH
3957   5E5E C2 66 5E            JNZ L1564
3958   5E61 F5                  PUSH PSW
3959   5E62 E5                  PUSH H
3960   5E63 C3 4E 5E            JMP L1577
3961   5E66 E5          L1564:  PUSH H
3962   5E67 3A 40 F6            LDA 0F640H
3963   5E6A CD BE 66            CALL L1578
3964   5E6D E1                  POP H
3965   5E6E C3 16 60            JMP L1579
3966   5E71 CD 7B 5E            CALL L1574
3967   5E74 37                  STC
3968   5E75 D4 86 5E            CNC L1580
3969   5E78 C3 C0 5F            JMP L1570
3970   5E7B 2A 40 F6    L1574:  LHLD 0F640H
3971   5E7E 25                  DCR H
3972   5E7F C2 95 5E            JNZ L1571
3973   5E82 3A 43 F6            LDA 0F643H
3974   5E85 67                  MOV H,A
3975   5E86 E5          L1580:  PUSH H
3976   5E87 CD 65 67            CALL L1581
3977   5E8A 2A 6E F7            LHLD 0F76EH
3978   5E8D DF                  RST 3
3979   5E8E E1                  POP H
3980   5E8F 3F                  CMC
3981   5E90 D8                  RC
3982   5E91 2D                  DCR L
3983   5E92 CC 3D 60            CZ L1582
3984   5E95 CD 58 42    L1571:  CALL L0598
3985   5E98 A7                  ANA A
3986   5E99 C9                  RET
3987   5E9A CD 19 68            CALL L1561
3988   5E9D CD C4 5E    L1584:  CALL L1583
3989   5EA0 C2 9D 5E            JNZ L1584
3990   5EA3 CD C4 5E    L1585:  CALL L1583
3991   5EA6 CA A3 5E            JZ L1585
3992   5EA9 C3 BE 5E            JMP L1586
3993   5EAC CD 19 68            CALL L1561
3994   5EAF CD CF 5E    L1588:  CALL L1587
3995   5EB2 CA AF 5E            JZ L1588
3996   5EB5 CD CF 5E    L1589:  CALL L1587
3997   5EB8 C2 B5 5E            JNZ L1589
3998   5EBB CD C4 5E            CALL L1583
3999   5EBE CD 16 60    L1586:  CALL L1579
4000   5EC1 C3 C0 5F            JMP L1570
4001   5EC4 7E          L1583:  MOV A,M
4002   5EC5 FE 1A               CPI 1AH
4003   5EC7 C1                  POP B
4004   5EC8 CA BE 5E            JZ L1586
4005   5ECB 23                  INX H
4006   5ECC C3 DA 5E            JMP L1590
4007   5ECF EB          L1587:  XCHG
4008   5ED0 2A 6E F7            LHLD 0F76EH
4009   5ED3 EB                  XCHG
4010   5ED4 DF                  RST 3
4011   5ED5 C1                  POP B
4012   5ED6 CA BE 5E            JZ L1586
4013   5ED9 2B                  DCX H
4014   5EDA C5          L1590:  PUSH B
4015   5EDB E5                  PUSH H
4016   5EDC 7E                  MOV A,M
4017   5EDD CD 85 66            CALL L1591
4018   5EE0 E1                  POP H
4019   5EE1 C9                  RET
4020   5EE2 2D                  DCR L
4021   5EE3 2E 01               MVI L,01H
4022   5EE5 C2 F1 5E            JNZ L1592
4023   5EE8 E5                  PUSH H
4024   5EE9 CD 65 67            CALL L1581
4025   5EEC EB                  XCHG
4026   5EED CD 50 5F            CALL L1593
4027   5EF0 E1                  POP H
4028   5EF1 CD 58 42    L1592:  CALL L0598
4029   5EF4 C3 C0 5F            JMP L1570
4030   5EF7 E5                  PUSH H
4031   5EF8 2C                  INR L
4032   5EF9 CD ED 60            CALL L1182
4033   5EFC 3C                  INR A
4034   5EFD BD                  CMP L
4035   5EFE C2 0C 5F            JNZ L1594
4036   5F01 F5                  PUSH PSW
4037   5F02 CD 65 67            CALL L1581
4038   5F05 EB                  XCHG
4039   5F06 3E 01               MVI A,01H
4040   5F08 CD 53 5F            CALL L1595
4041   5F0B F1                  POP PSW
4042   5F0C 3D          L1594:  DCR A
4043   5F0D CD 68 67            CALL L1572
4044   5F10 47                  MOV B,A
4045   5F11 13                  INX D
4046   5F12 7A                  MOV A,D
4047   5F13 B3                  ORA E
4048   5F14 78                  MOV A,B
4049   5F15 CA 0C 5F            JZ L1594
4050   5F18 E1                  POP H
4051   5F19 6F                  MOV L,A
4052   5F1A C3 F1 5E            JMP L1592
4053   5F1D 3A 43 F6            LDA 0F643H
4054   5F20 67                  MOV H,A
4055   5F21 CD 58 42            CALL L0598
4056   5F24 CD 19 68            CALL L1561
4057   5F27 CD C3 67            CALL L1596
4058   5F2A 01 26 01            LXI B,0126H
4059   5F2D C3 F1 5E            JMP L1592
4060   5F30 2A 6E F7            LHLD 0F76EH
4061   5F33 CD 56 5F            CALL L1597
4062   5F36 CD 09 42            CALL L1151
4063   5F39 C3 C0 5F            JMP L1570
4064   5F3C 2A 74 FB            LHLD 0FB74H
4065   5F3F E5                  PUSH H
4066   5F40 CD 5E 67            CALL L1598
4067   5F43 E1                  POP H
4068   5F44 DF                  RST 3
4069   5F45 E5                  PUSH H
4070   5F46 D4 50 5F            CNC L1593
4071   5F49 E1          L1646:  POP H
4072   5F4A CD 2B 60            CALL L1551
4073   5F4D C3 C0 5F            JMP L1570
4074   5F50 CD ED 60    L1593:  CALL L1182
4075   5F53 CD 59 68    L1595:  CALL L1599
4076   5F56 CD 13 00    L1597:  CALL L1600
4077   5F59 C8                  RZ
4078   5F5A 22 F2 F6            SHLD 0F6F2H
4079   5F5D 3E 01               MVI A,01H
4080   5F5F C3 EB 66            JMP L1601
4081   5F62 CD AF 5F            CALL L1559
4082   5F65 CD 19 68            CALL L1561
4083   5F68 22 E9 F6            SHLD 0F6E9H
4084   5F6B 22 EB F6            SHLD 0F6EBH
4085   5F6E 5D                  MOV E,L
4086   5F6F 54                  MOV D,H
4087   5F70 C3 D3 5F            JMP L1602
4088   5F73 0E 00       L1563:  MVI C,00H
4089   5F75 21 0E 80            LXI H,800EH
4090   5F78 CD ED 60            CALL L1182
4091   5F7B 21 40 F6            LXI H,0F640H
4092   5F7E 96                  SUB M
4093   5F7F 47                  MOV B,A
4094   5F80 CD 65 67            CALL L1581
4095   5F83 23                  INX H
4096   5F84 23          L1604:  INX H
4097   5F85 5E                  MOV E,M
4098   5F86 23                  INX H
4099   5F87 56                  MOV D,M
4100   5F88 13                  INX D
4101   5F89 7A                  MOV A,D
4102   5F8A B3                  ORA E
4103   5F8B C8                  RZ
4104   5F8C 0D                  DCR C
4105   5F8D FA 92 5F            JM L1603
4106   5F90 1B                  DCX D
4107   5F91 1B                  DCX D
4108   5F92 2B          L1603:  DCX H
4109   5F93 73                  MOV M,E
4110   5F94 23                  INX H
4111   5F95 72                  MOV M,D
4112   5F96 05                  DCR B
4113   5F97 F2 84 5F            JP L1604
4114   5F9A C9                  RET
4115   5F9B CD 09 42    L1616:  CALL L1151
4116   5F9E CD 2F 42            CALL L1152
4117   5FA1 CD ED 60            CALL L1182
4118   5FA4 87          L1627:  ADD A
4119   5FA5 47                  MOV B,A
4120   5FA6 11 F2 F6            LXI D,0F6F2H
4121   5FA9 21 F4 F6            LXI H,0F6F4H
4122   5FAC C3 1A 25            JMP L0463
4123   5FAF CD 0E 60    L1559:  CALL L1605
4124   5FB2 E5                  PUSH H
4125   5FB3 21 00 00            LXI H,0000H
4126   5FB6 22 E9 F6            SHLD 0F6E9H
4127   5FB9 CD 19 68            CALL L1561
4128   5FBC D1                  POP D
4129   5FBD C3 D0 5F            JMP L1606
4130   5FC0 CD 0E 60    L1570:  CALL L1605
4131   5FC3 CD 19 68            CALL L1561
4132   5FC6 EB                  XCHG
4133   5FC7 2A EB F6            LHLD 0F6EBH
4134   5FCA DF                  RST 3
4135   5FCB C8                  RZ
4136   5FCC EB                  XCHG
4137   5FCD 22 EB F6            SHLD 0F6EBH
4138   5FD0 CD D2 61    L1606:  CALL L1607
4139   5FD3 E5          L1602:  PUSH H
4140   5FD4 D5                  PUSH D
4141   5FD5 CD 5E 67            CALL L1598
4142   5FD8 E1                  POP H
4143   5FD9 DF                  RST 3
4144   5FDA DA E0 5F            JC L1608
4145   5FDD CD FB 60            CALL L1558
4146   5FE0 DC C3 67    L1608:  CC L1596
4147   5FE3 65                  MOV H,L
4148   5FE4 E3                  XTHL
4149   5FE5 CD 13 00            CALL L1600
4150   5FE8 D2 ED 5F            JNC L1609
4151   5FEB 2E 01               MVI L,01H
4152   5FED D4 C3 67    L1609:  CNC L1596
4153   5FF0 F1                  POP PSW
4154   5FF1 95                  SUB L
4155   5FF2 4F                  MOV C,A
4156   5FF3 EB                  XCHG
4157   5FF4 2A 40 F6            LHLD 0F640H
4158   5FF7 EB                  XCHG
4159   5FF8 D5                  PUSH D
4160   5FF9 26 01               MVI H,01H
4161   5FFB CD 58 42            CALL L0598
4162   5FFE CD 65 67            CALL L1581
4163   6001 79                  MOV A,C
4164   6002 F5          L1611:  PUSH PSW
4165   6003 CD 2D 67            CALL L1610
4166   6006 F1                  POP PSW
4167   6007 3D                  DCR A
4168   6008 F2 02 60            JP L1611
4169   600B C3 CD 5D            JMP L1612
4170   600E 2A E9 F6    L1605:  LHLD 0F6E9H
4171   6011 7C                  MOV A,H
4172   6012 B5                  ORA L
4173   6013 C0                  RNZ
4174   6014 E1                  POP H
4175   6015 C9                  RET
4176   6016 CD 13 00    L1579:  CALL L1600
4177   6019 DC 3E 60            CC L1613
4178   601C DA 16 60            JC L1579
4179   601F E5          L1615:  PUSH H
4180   6020 CD 5E 67            CALL L1598
4181   6023 E1                  POP H
4182   6024 DF                  RST 3
4183   6025 D4 32 60            CNC L1614
4184   6028 D2 1F 60            JNC L1615
4185   602B CD C3 67    L1551:  CALL L1596
4186   602E C3 58 42            JMP L0598
4187   6031 2D          L1573:  DCR L
4188   6032 F5          L1614:  PUSH PSW
4189   6033 E5                  PUSH H
4190   6034 CD 9B 5F            CALL L1616
4191   6037 CD ED 60            CALL L1182
4192   603A C3 64 60            JMP L1617
4193   603D 2C          L1582:  INR L
4194   603E F5          L1613:  PUSH PSW
4195   603F E5                  PUSH H
4196   6040 CD FF 62            CALL L1618
4197   6043 CD 09 42            CALL L1151
4198   6046 CD 34 42            CALL L1619
4199   6049 CD 75 67            CALL L1620
4200   604C D5                  PUSH D
4201   604D CD 5E 67            CALL L1598
4202   6050 23                  INX H
4203   6051 5D                  MOV E,L
4204   6052 54                  MOV D,H
4205   6053 2B                  DCX H
4206   6054 2B                  DCX H
4207   6055 3D                  DCR A
4208   6056 87                  ADD A
4209   6057 4F                  MOV C,A
4210   6058 06 00               MVI B,00H
4211   605A CD 06 69            CALL L1621
4212   605D EB                  XCHG
4213   605E D1                  POP D
4214   605F 72                  MOV M,D
4215   6060 2B                  DCX H
4216   6061 73                  MOV M,E
4217   6062 3E 01               MVI A,01H
4218   6064 CD EB 66    L1617:  CALL L1601
4219   6067 E1                  POP H
4220   6068 F1                  POP PSW
4221   6069 C9                  RET
4222   606A 2A C8 FB    L1434:  LHLD 0FBC8H
4223   606D 01 C8 00            LXI B,00C8H
4224   6070 09                  DAD B
4225   6071 AF                  XRA A
4226   6072 95                  SUB L
4227   6073 6F                  MOV L,A
4228   6074 9F                  SBB A
4229   6075 94                  SUB H
4230   6076 67                  MOV H,A
4231   6077 39                  DAD SP
4232   6078 D0                  RNC
4233   6079 7C                  MOV A,H
4234   607A B5                  ORA L
4235   607B C8                  RZ
4236   607C 44                  MOV B,H
4237   607D 4D                  MOV C,L
4238   607E 2A 74 FB            LHLD 0FB74H
4239   6081 EB                  XCHG
4240   6082 13                  INX D
4241   6083 CD 9F 68            CALL L0663
4242   6086 36 00       L1622:  MVI M,00H
4243   6088 23                  INX H
4244   6089 0B                  DCX B
4245   608A 78                  MOV A,B
4246   608B B1                  ORA C
4247   608C C2 86 60            JNZ L1622
4248   608F C9                  RET
4249   6090 2A C0 FB    L1442:  LHLD 0FBC0H
4250   6093 CD 4D 68    L1623:  CALL L1433
4251   6096 23                  INX H
4252   6097 EB                  XCHG
4253   6098 2A C2 FB            LHLD 0FBC2H
4254   609B EB                  XCHG
4255   609C DF                  RST 3
4256   609D D0                  RNC
4257   609E 7E                  MOV A,M
4258   609F A7                  ANA A
4259   60A0 C2 93 60            JNZ L1623
4260   60A3 2A 74 FB    L1436:  LHLD 0FB74H
4261   60A6 E5                  PUSH H
4262   60A7 01 FF FF            LXI B,0FFFFH
4263   60AA AF                  XRA A
4264   60AB 23          L1624:  INX H
4265   60AC 03                  INX B
4266   60AD BE                  CMP M
4267   60AE CA AB 60            JZ L1624
4268   60B1 E1                  POP H
4269   60B2 23                  INX H
4270   60B3 C3 BF 68            JMP L0640
4271   60B6 EB          L1439:  XCHG
4272   60B7 2A 74 FB            LHLD 0FB74H
4273   60BA 23                  INX H
4274   60BB 34                  INR M
4275   60BC 35                  DCR M
4276   60BD 37                  STC
4277   60BE C0                  RNZ
4278   60BF F5                  PUSH PSW
4279   60C0 22 74 FB            SHLD 0FB74H
4280   60C3 EB                  XCHG
4281   60C4 7B                  MOV A,E
4282   60C5 95                  SUB L
4283   60C6 4F                  MOV C,A
4284   60C7 7A                  MOV A,D
4285   60C8 9C                  SBB H
4286   60C9 47                  MOV B,A
4287   60CA 6B                  MOV L,E
4288   60CB 62                  MOV H,D
4289   60CC 2B                  DCX H
4290   60CD CD 06 69            CALL L1621
4291   60D0 23                  INX H
4292   60D1 F1                  POP PSW
4293   60D2 77                  MOV M,A
4294   60D3 23                  INX H
4295   60D4 A7                  ANA A
4296   60D5 C9                  RET
4297   60D6 EB          L1575:  XCHG
4298   60D7 2A 74 FB            LHLD 0FB74H
4299   60DA 7D                  MOV A,L
4300   60DB 93                  SUB E
4301   60DC 4F                  MOV C,A
4302   60DD 7C                  MOV A,H
4303   60DE 9A                  SBB D
4304   60DF 47                  MOV B,A
4305   60E0 2B                  DCX H
4306   60E1 22 74 FB            SHLD 0FB74H
4307   60E4 6B                  MOV L,E
4308   60E5 62                  MOV H,D
4309   60E6 23                  INX H
4310   60E7 CD FB 68            CALL L0683
4311   60EA AF                  XRA A
4312   60EB 12                  STAX D
4313   60EC C9                  RET
4314   60ED E5          L1182:  PUSH H
4315   60EE F5                  PUSH PSW
4316   60EF 21 44 F6            LXI H,0F644H
4317   60F2 3A 42 F6            LDA 0F642H
4318   60F5 86                  ADD M
4319   60F6 6F                  MOV L,A
4320   60F7 F1                  POP PSW
4321   60F8 7D                  MOV A,L
4322   60F9 E1                  POP H
4323   60FA C9                  RET
4324   60FB F5          L1558:  PUSH PSW
4325   60FC 2A 42 F6            LHLD 0F642H
4326   60FF CD ED 60            CALL L1182
4327   6102 6F                  MOV L,A
4328   6103 F1                  POP PSW
4329   6104 C9                  RET
4330   6105 2A 40 F6    L1552:  LHLD 0F640H
4331   6108 E5                  PUSH H
4332   6109 7D                  MOV A,L
4333   610A 32 B4 FA            STA 0FAB4H
4334   610D 3A 44 F6            LDA 0F644H
4335   6110 F5                  PUSH PSW
4336   6111 CD D4 12            CALL L1218
4337   6114 C1                  POP B
4338   6115 E1                  POP H
4339   6116 F5                  PUSH PSW
4340   6117 AF                  XRA A
4341   6118 32 B4 FA            STA 0FAB4H
4342   611B 3A 44 F6            LDA 0F644H
4343   611E B8                  CMP B
4344   611F C2 24 61            JNZ L1625
4345   6122 F1                  POP PSW
4346   6123 C9                  RET
4347   6124 A7          L1625:  ANA A
4348   6125 CA 34 61            JZ L1626
4349   6128 3A 40 F6            LDA 0F640H
4350   612B BD                  CMP L
4351   612C 3A 42 F6            LDA 0F642H
4352   612F C4 A4 5F            CNZ L1627
4353   6132 F1                  POP PSW
4354   6133 C9                  RET
4355   6134 E5          L1626:  PUSH H
4356   6135 3A 42 F6            LDA 0F642H
4357   6138 3D                  DCR A
4358   6139 CD 68 67            CALL L1572
4359   613C 23                  INX H
4360   613D 36 FE               MVI M,0FEH
4361   613F 23                  INX H
4362   6140 23                  INX H
4363   6141 36 FE               MVI M,0FEH
4364   6143 3D                  DCR A
4365   6144 CD EB 66            CALL L1601
4366   6147 AF                  XRA A
4367   6148 32 E8 F6            STA 0F6E8H
4368   614B E1                  POP H
4369   614C CD 58 42            CALL L0598
4370   614F F1                  POP PSW
4371   6150 C9                  RET
4372   6151 CD 0E 60            CALL L1605
4373   6154 CD A3 60            CALL L1436
4374   6157 CD D6 61            CALL L1628
4375   615A F5                  PUSH PSW
4376   615B CD 6A 60            CALL L1434
4377   615E F1                  POP PSW
4378   615F D2 AF 5F            JNC L1559
4379   6162 C3 C3 5D            JMP L1562
4380   6165 CD 0E 60            CALL L1605
4381   6168 CD A3 60            CALL L1436
4382   616B CD D6 61            CALL L1628
4383   616E F5                  PUSH PSW
4384   616F D4 BF 68            CNC L0640
4385   6172 F1                  POP PSW
4386   6173 D2 8F 61            JNC L1629
4387   6176 78                  MOV A,B
4388   6177 A7                  ANA A
4389   6178 CA 8A 61            JZ L1630
4390   617B CD 7A 1B    L1632:  CALL L0403
4391   617E C5                  PUSH B
4392   617F 01 00 01            LXI B,0100H
4393   6182 CD A8 61            CALL L1631
4394   6185 C1                  POP B
4395   6186 05                  DCR B
4396   6187 C2 7B 61            JNZ L1632
4397   618A 79          L1630:  MOV A,C
4398   618B A7                  ANA A
4399   618C C4 A8 61            CNZ L1631
4400   618F 11 00 00    L1629:  LXI D,0000H
4401   6192 EB                  XCHG
4402   6193 22 E9 F6            SHLD 0F6E9H
4403   6196 EB                  XCHG
4404   6197 E5                  PUSH H
4405   6198 3A 40 F6            LDA 0F640H
4406   619B CD A6 66            CALL L1550
4407   619E E1                  POP H
4408   619F CD 2B 60            CALL L1551
4409   61A2 CD 4A 68            CALL L1549
4410   61A5 C3 6A 60            JMP L1434
4411   61A8 E5          L1631:  PUSH H
4412   61A9 C5                  PUSH B
4413   61AA EB                  XCHG
4414   61AB 2A 99 FC            LHLD 0FC99H
4415   61AE EB                  XCHG
4416   61AF CD FB 68            CALL L0683
4417   61B2 C1                  POP B
4418   61B3 E1                  POP H
4419   61B4 E5                  PUSH H
4420   61B5 C5                  PUSH B
4421   61B6 CD BF 68            CALL L0640
4422   61B9 2A AC F9            LHLD 0F9ACH
4423   61BC 09                  DAD B
4424   61BD EB                  XCHG
4425   61BE C1                  POP B
4426   61BF CD 9F 68            CALL L0663
4427   61C2 EB                  XCHG
4428   61C3 2A 99 FC            LHLD 0FC99H
4429   61C6 CD FB 68            CALL L0683
4430   61C9 E1                  POP H
4431   61CA C9                  RET
4432   61CB 2A E9 F6    L1633:  LHLD 0F6E9H
4433   61CE EB                  XCHG
4434   61CF 2A EB F6            LHLD 0F6EBH
4435   61D2 DF          L1607:  RST 3
4436   61D3 D8                  RC
4437   61D4 EB                  XCHG
4438   61D5 C9                  RET
4439   61D6 CD 3A 22    L1628:  CALL L1128
4440   61D9 2A AC F9            LHLD 0F9ACH
4441   61DC 22 93 F8            SHLD 0F893H
4442   61DF AF                  XRA A
4443   61E0 32 ED F6            STA 0F6EDH
4444   61E3 CD CB 61            CALL L1633
4445   61E6 1B                  DCX D
4446   61E7 7B          L1638:  MOV A,E
4447   61E8 95                  SUB L
4448   61E9 4F                  MOV C,A
4449   61EA 7A                  MOV A,D
4450   61EB 9C                  SBB H
4451   61EC 47                  MOV B,A
4452   61ED DA 03 62            JC L1634
4453   61F0 1A                  LDAX D
4454   61F1 FE 1A               CPI 1AH
4455   61F3 CA 04 62            JZ L1635
4456   61F6 FE 0D               CPI 0DH
4457   61F8 C2 03 62            JNZ L1634
4458   61FB 13                  INX D
4459   61FC 1A                  LDAX D
4460   61FD FE 0A               CPI 0AH
4461   61FF C2 03 62            JNZ L1634
4462   6202 03                  INX B
4463   6203 03          L1634:  INX B
4464   6204 78          L1635:  MOV A,B
4465   6205 B1                  ORA C
4466   6206 C8                  RZ
4467   6207 E5                  PUSH H
4468   6208 2A 93 F8            LHLD 0F893H
4469   620B CD 8D 68            CALL L0466
4470   620E EB                  XCHG
4471   620F E1                  POP H
4472   6210 D8                  RC
4473   6211 3A ED F6            LDA 0F6EDH
4474   6214 A7                  ANA A
4475   6215 CA 19 62            JZ L1636
4476   6218 09                  DAD B
4477   6219 E5          L1636:  PUSH H
4478   621A C5                  PUSH B
4479   621B CD FB 68            CALL L0683
4480   621E C1                  POP B
4481   621F E1                  POP H
4482   6220 C9                  RET
4483   6221 CD AF 5F    L1554:  CALL L1559
4484   6224 CD A3 60            CALL L1436
4485   6227 CD 16 21            CALL L0394
4486   622A CD 19 68            CALL L1561
4487   622D 22 93 F8            SHLD 0F893H
4488   6230 7C                  MOV A,H
4489   6231 32 ED F6            STA 0F6EDH
4490   6234 2A AC F9            LHLD 0F9ACH
4491   6237 7E                  MOV A,M
4492   6238 FE 1A               CPI 1AH
4493   623A CA 6A 60            JZ L1434
4494   623D 5D                  MOV E,L
4495   623E 54                  MOV D,H
4496   623F 1B                  DCX D
4497   6240 13          L1637:  INX D
4498   6241 1A                  LDAX D
4499   6242 FE 1A               CPI 1AH
4500   6244 C2 40 62            JNZ L1637
4501   6247 CD E7 61            CALL L1638
4502   624A F5                  PUSH PSW
4503   624B D5                  PUSH D
4504   624C CD 4A 68            CALL L1549
4505   624F CD 6A 60            CALL L1434
4506   6252 D1                  POP D
4507   6253 F1                  POP PSW
4508   6254 DA C3 5D            JC L1562
4509   6257 D5                  PUSH D
4510   6258 2A 93 F8            LHLD 0F893H
4511   625B 3A 40 F6            LDA 0F640H
4512   625E CD A6 66            CALL L1550
4513   6261 CD 5E 67            CALL L1598
4514   6264 E1                  POP H
4515   6265 DF                  RST 3
4516   6266 CD ED 60            CALL L1182
4517   6269 E5                  PUSH H
4518   626A D4 A6 66            CNC L1550
4519   626D E1                  POP H
4520   626E C3 2B 60            JMP L1551
4521   6271 CD E1 7C            CALL L1639
4522   6274 CD 19 68            CALL L1561
4523   6277 E5                  PUSH H
4524   6278 21 F7 62            LXI H,62F7H
4525   627B 11 26 F7            LXI D,0F726H
4526   627E D5                  PUSH D
4527   627F CD 23 63            CALL L1640
4528   6282 D1                  POP D
4529   6283 23                  INX H
4530   6284 7E                  MOV A,M
4531   6285 A7                  ANA A
4532   6286 37                  STC
4533   6287 CA AB 62            JZ L1641
4534   628A CD E3 62            CALL L1642
4535   628D D1                  POP D
4536   628E D5                  PUSH D
4537   628F 1A                  LDAX D
4538   6290 FE 1A               CPI 1AH
4539   6292 CA AF 62            JZ L1643
4540   6295 13                  INX D
4541   6296 CD 62 59            CALL L1511
4542   6299 D2 AF 62            JNC L1643
4543   629C D1                  POP D
4544   629D C5                  PUSH B
4545   629E C5                  PUSH B
4546   629F CD 5E 67            CALL L1598
4547   62A2 E1                  POP H
4548   62A3 DF                  RST 3
4549   62A4 DA AB 62            JC L1641
4550   62A7 CD A1 66            CALL L1644
4551   62AA A7                  ANA A
4552   62AB DC 13 63    L1641:  CC L1645
4553   62AE 37                  STC
4554   62AF 21 EE 62    L1643:  LXI H,62EEH
4555   62B2 D4 CE 62            CNC L1566
4556   62B5 C3 49 5F            JMP L1646
4557   62B8 CD AF 5F    L1654:  CALL L1559
4558   62BB 2A 40 F6    L1565:  LHLD 0F640H
4559   62BE CD ED 60            CALL L1182
4560   62C1 BD                  CMP L
4561   62C2 C0                  RNZ
4562   62C3 2D                  DCR L
4563   62C4 E5                  PUSH H
4564   62C5 CD 9B 5F            CALL L1616
4565   62C8 C3 CD 5D            JMP L1612
4566   62CB 21 A1 54    L1659:  LXI H,54A1H
4567   62CE 3E 01       L1566:  MVI A,01H
4568   62D0 32 E8 F6            STA 0F6E8H
4569   62D3 CD FF 62    L1648:  CALL L1618
4570   62D6 CD 8A 27            CALL L0084
4571   62D9 CD E4 13    L1547:  CALL L0397
4572   62DC C8                  RZ
4573   62DD CD D4 12            CALL L1218
4574   62E0 C3 D9 62            JMP L1547
4575   62E3 E5          L1642:  PUSH H
4576   62E4 7E          L1647:  MOV A,M
4577   62E5 12                  STAX D
4578   62E6 23                  INX H
4579   62E7 13                  INX D
4580   62E8 A7                  ANA A
4581   62E9 C2 E4 62            JNZ L1647
4582   62EC E1                  POP H
4583   62ED C9                  RET
4584   62EE 4E                  MOV C,M
4585   62EF 6F                  MOV L,A
4586   62F0 20                  RIM
4587   62F1 6D                  MOV L,L
4588   62F2 61                  MOV H,C
4589   62F3 74                  MOV M,H
4590   62F4 63                  MOV H,E
4591   62F5 68                  MOV L,B
4592   62F6 00                  NOP
4593   62F7 53                  MOV D,E
4594   62F8 74                  MOV M,H
4595   62F9 72                  MOV M,D
4596   62FA 69                  MOV L,C
4597   62FB 6E                  MOV L,M
4598   62FC 67                  MOV H,A
4599   62FD 3A 00 E5            LDA 0E500H
4600   6300 CD FB 60            CALL L1558
4601   6303 26 01               MVI H,01H
4602   6305 CD 58 42            CALL L0598
4603   6308 E1                  POP H
4604   6309 C3 39 42            JMP L0742
4605   630C 21 E8 F6    L1553:  LXI H,0F6E8H
4606   630F AF                  XRA A
4607   6310 BE                  CMP M
4608   6311 C8                  RZ
4609   6312 77                  MOV M,A
4610   6313 2A 40 F6    L1645:  LHLD 0F640H
4611   6316 E5                  PUSH H
4612   6317 CD ED 60            CALL L1182
4613   631A CD EB 66            CALL L1601
4614   631D C3 CD 5D            JMP L1612
4615   6320 11 68 5C    L1664:  LXI D,5C68H
4616   6323 D5          L1640:  PUSH D
4617   6324 CD D3 62            CALL L1648
4618   6327 3A 41 F6            LDA 0F641H
4619   632A 32 D1 FA            STA 0FAD1H
4620   632D E1                  POP H
4621   632E E5                  PUSH H
4622   632F CD 8A 27            CALL L0084
4623   6332 CD D4 12    L1649:  CALL L1218
4624   6335 DA 32 63            JC L1649
4625   6338 A7                  ANA A
4626   6339 CA 32 63            JZ L1649
4627   633C E1                  POP H
4628   633D FE 0D               CPI 0DH
4629   633F CA 74 63            JZ L1650
4630   6342 F5                  PUSH PSW
4631   6343 CD FB 60            CALL L1558
4632   6346 3A D1 FA            LDA 0FAD1H
4633   6349 67                  MOV H,A
4634   634A CD 58 42            CALL L0598
4635   634D CD 39 42            CALL L0742
4636   6350 F1                  POP PSW
4637   6351 11 8C F6            LXI D,0F68CH
4638   6354 06 01               MVI B,01H
4639   6356 A7                  ANA A
4640   6357 C3 5D 63            JMP L1651
4641   635A CD D4 12            CALL L1218
4642   635D 21 5A 63    L1651:  LXI H,635AH
4643   6360 E5                  PUSH H
4644   6361 D8                  RC
4645   6362 FE 7F               CPI 7FH
4646   6364 CA 57 46            JZ L1219
4647   6367 FE 20               CPI 20H
4648   6369 D2 9E 63            JNC L1652
4649   636C 21 7B 63            LXI H,637BH
4650   636F 0E 07               MVI C,07H
4651   6371 C3 58 43            JMP L1174
4652   6374 11 8C F6    L1650:  LXI D,0F68CH
4653   6377 CD E3 62            CALL L1642
4654   637A C3 98 63            JMP L1653
4655   637D 03                  INX B
4656   637E 92                  SUB D
4657   637F 63                  MOV H,E
4658   6380 08                  UNRECOGNIZED
4659   6381 57                  MOV D,A
4660   6382 46                  MOV B,M
4661   6383 09                  DAD B
4662   6384 9C                  SBB H
4663   6385 63                  MOV H,E
4664   6386 0D                  DCR C
4665   6387 95                  SUB L
4666   6388 63                  MOV H,E
4667   6389 15                  DCR D
4668   638A 7A                  MOV A,D
4669   638B 46                  MOV B,M
4670   638C 18                  UNRECOGNIZED
4671   638D 7A                  MOV A,D
4672   638E 46                  MOV B,M
4673   638F 1D                  DCR E
4674   6390 57                  MOV D,A
4675   6391 46                  MOV B,M
4676   6392 11 8C F6            LXI D,0F68CH
4677   6395 E1                  POP H
4678   6396 AF                  XRA A
4679   6397 12                  STAX D
4680   6398 21 8B F6    L1653:  LXI H,0F68BH
4681   639B C9                  RET
4682   639C 3E 09               MVI A,09H
4683   639E 4F          L1652:  MOV C,A
4684   639F 3A 43 F6            LDA 0F643H
4685   63A2 D6 09               SUI 09H
4686   63A4 21 41 F6            LXI H,0F641H
4687   63A7 BE                  CMP M
4688   63A8 DA 05 42            JC L0722
4689   63AB 79                  MOV A,C
4690   63AC 04                  INR B
4691   63AD E7                  RST 4
4692   63AE 12                  STAX D
4693   63AF 13                  INX D
4694   63B0 C9                  RET
4695   63B1 CD B8 62            CALL L1654
4696   63B4 21 12 64            LXI H,6412H
4697   63B7 22 59 F6            SHLD 0F659H
4698   63BA E5                  PUSH H
4699   63BB 2A 40 F6            LHLD 0F640H
4700   63BE 22 EE F6            SHLD 0F6EEH
4701   63C1 21 2C 64            LXI H,642CH
4702   63C4 11 51 F6            LXI D,0F651H
4703   63C7 CD 23 63            CALL L1640
4704   63CA D7                  RST 2
4705   63CB AF                  XRA A
4706   63CC BE                  CMP M
4707   63CD CA 06 64            JZ L1655
4708   63D0 32 8F F6            STA 0F68FH
4709   63D3 CD 35 11            CALL L0200
4710   63D6 FE 0A               CPI 0AH
4711   63D8 D8                  RC
4712   63D9 FE 85               CPI 85H
4713   63DB D0                  RNC
4714   63DC D1                  POP D
4715   63DD 32 50 F6            STA 0F650H
4716   63E0 32 29 F9            STA 0F929H
4717   63E3 32 7C F6            STA 0F67CH
4718   63E6 11 51 F6            LXI D,0F651H
4719   63E9 21 8C F6            LXI H,0F68CH
4720   63EC CD E3 62            CALL L1642
4721   63EF 3C                  INR A
4722   63F0 32 27 F9            STA 0F927H
4723   63F3 CD FE 41            CALL L0562
4724   63F6 2A 6E F7            LHLD 0F76EH
4725   63F9 EB                  XCHG
4726   63FA CD 2D 67    L1656:  CALL L1610
4727   63FD 7A                  MOV A,D
4728   63FE A3                  ANA E
4729   63FF 3C                  INR A
4730   6400 C2 FA 63            JNZ L1656
4731   6403 CD 1E 64            CALL L1657
4732   6406 CD 13 63    L1655:  CALL L1645
4733   6409 2A EE F6    L1660:  LHLD 0F6EEH
4734   640C CD 58 42            CALL L0598
4735   640F C3 FD 5C            JMP L1658
4736   6412 CD 1E 64    L1662:  CALL L1657
4737   6415 CD 0C 4F            CALL L0087
4738   6418 CD CB 62            CALL L1659
4739   641B C3 09 64            JMP L1660
4740   641E 3A 43 F6    L1657:  LDA 0F643H
4741   6421 32 29 F9            STA 0F929H
4742   6424 AF                  XRA A
4743   6425 32 7C F6            STA 0F67CH
4744   6428 32 27 F9            STA 0F927H
4745   642B C9                  RET
4746   642C 57                  MOV D,A
4747   642D 69                  MOV L,C
4748   642E 64                  MOV H,H
4749   642F 74                  MOV M,H
4750   6430 68                  MOV L,B
4751   6431 3A 00 11            LDA 1100H
4752   6434 55                  MOV D,L
4753   6435 64                  MOV H,H
4754   6436 CD 5E 64            CALL L1661
4755   6439 DA 12 64            JC L1662
4756   643C CA 06 64            JZ L1655
4757   643F 1E 02               MVI E,02H
4758   6441 CD E0 4C            CALL L1340
4759   6444 2A 6E F7            LHLD 0F76EH
4760   6447 7E          L1663:  MOV A,M
4761   6448 E7                  RST 4
4762   6449 23                  INX H
4763   644A FE 1A               CPI 1AH
4764   644C C2 47 64            JNZ L1663
4765   644F CD 0C 4F            CALL L0087
4766   6452 C3 06 64            JMP L1655
4767   6455 53                  MOV D,E
4768   6456 61                  MOV H,C
4769   6457 76                  HLT
4770   6458 65                  MOV H,L
4771   6459 20                  RIM
4772   645A 74                  MOV M,H
4773   645B 6F                  MOV L,A
4774   645C 3A 00 D5            LDA 0D500H
4775   645F CD B8 62            CALL L1654
4776   6462 21 12 64            LXI H,6412H
4777   6465 22 59 F6            SHLD 0F659H
4778   6468 2A 40 F6            LHLD 0F640H
4779   646B 22 EE F6            SHLD 0F6EEH
4780   646E E1                  POP H
4781   646F CD 20 63            CALL L1664
4782   6472 D7                  RST 2
4783   6473 A7                  ANA A
4784   6474 C8                  RZ
4785   6475 CD D2 21            CALL L0665
4786   6478 CD D9 4B            CALL L0666
4787   647B C2 80 64            JNZ L1665
4788   647E 16 FD               MVI D,0FDH
4789   6480 7A          L1665:  MOV A,D
4790   6481 FE F9               CPI 0F9H
4791   6483 37                  STC
4792   6484 C8                  RZ
4793   6485 FE FE               CPI 0FEH
4794   6487 37                  STC
4795   6488 C8                  RZ
4796   6489 FE FF               CPI 0FFH
4797   648B 37                  STC
4798   648C C8                  RZ
4799   648D 21 68 5C            LXI H,5C68H
4800   6490 3F                  CMC
4801   6491 3E 00               MVI A,00H
4802   6493 C9                  RET
4803   6494 11 F4 64            LXI D,64F4H
4804   6497 CD 5E 64            CALL L1661
4805   649A DA 12 64            JC L1662
4806   649D CA 06 64            JZ L1655
4807   64A0 E5                  PUSH H
4808   64A1 21 EB 64            LXI H,64EBH
4809   64A4 22 59 F6            SHLD 0F659H
4810   64A7 2A 74 FB            LHLD 0FB74H
4811   64AA 22 EE F6            SHLD 0F6EEH
4812   64AD 32 CD FA            STA 0FACDH
4813   64B0 E3                  XTHL
4814   64B1 1E 01               MVI E,01H
4815   64B3 CD E0 4C            CALL L1340
4816   64B6 E1                  POP H
4817   64B7 CD 46 4E    L1667:  CALL L1232
4818   64BA DA D7 64            JC L1666
4819   64BD CD 47 54            CALL L1437
4820   64C0 CA B7 64            JZ L1667
4821   64C3 D2 CB 64            JNC L1668
4822   64C6 CD B6 60            CALL L1439
4823   64C9 3E 0A               MVI A,0AH
4824   64CB D4 B6 60    L1668:  CNC L1439
4825   64CE D2 B7 64            JNC L1667
4826   64D1 CD 0C 4F            CALL L0087
4827   64D4 CD C3 5D            CALL L1562
4828   64D7 CD 0C 4F    L1666:  CALL L0087
4829   64DA CD 4A 68    L1669:  CALL L1549
4830   64DD 2A EE F6            LHLD 0F6EEH
4831   64E0 E5                  PUSH H
4832   64E1 CD A1 66            CALL L1644
4833   64E4 E1                  POP H
4834   64E5 CD 2B 60            CALL L1551
4835   64E8 C3 FD 5C            JMP L1658
4836   64EB CD 0C 4F            CALL L0087
4837   64EE CD CB 62            CALL L1659
4838   64F1 C3 DA 64            JMP L1669
4839   64F4 4C                  MOV C,H
4840   64F5 6F                  MOV L,A
4841   64F6 61                  MOV H,C
4842   64F7 64                  MOV H,H
4843   64F8 20                  RIM
4844   64F9 66                  MOV H,M
4845   64FA 72                  MOV M,D
4846   64FB 6F                  MOV L,A
4847   64FC 6D                  MOV L,L
4848   64FD 3A 00 AF            LDA 0AF00H
4849   6500 32 97 F8            STA 0F897H
4850   6503 32 ED F6            STA 0F6EDH
4851   6506 21 9B F8            LXI H,0F89BH
4852   6509 22 99 F8            SHLD 0F899H
4853   650C D5          L1676:  PUSH D
4854   650D CD 32 66            CALL L1670
4855   6510 D1                  POP D
4856   6511 1A                  LDAX D
4857   6512 13                  INX D
4858   6513 FE 1A               CPI 1AH
4859   6515 CA A7 65            JZ L1671
4860   6518 FE 0D               CPI 0DH
4861   651A CA B7 65            JZ L1672
4862   651D FE 09               CPI 09H
4863   651F CA 27 65            JZ L1673
4864   6522 FE 20               CPI 20H
4865   6524 DA 7D 65            JC L1674
4866   6527 CD D2 65    L1673:  CALL L1675
4867   652A D2 0C 65            JNC L1676
4868   652D 1A                  LDAX D
4869   652E CD 7E 66            CALL L1677
4870   6531 C2 47 65            JNZ L1678
4871   6534 CD 75 65            CALL L1679
4872   6537 1A                  LDAX D
4873   6538 FE 20               CPI 20H
4874   653A C0                  RNZ
4875   653B 3A 27 F9            LDA 0F927H
4876   653E A7                  ANA A
4877   653F C8                  RZ
4878   6540 13                  INX D
4879   6541 1A                  LDAX D
4880   6542 FE 20               CPI 20H
4881   6544 C0                  RNZ
4882   6545 1B                  DCX D
4883   6546 C9                  RET
4884   6547 EB          L1678:  XCHG
4885   6548 22 93 F8            SHLD 0F893H
4886   654B EB                  XCHG
4887   654C 2A 99 F8            LHLD 0F899H
4888   654F 22 95 F8            SHLD 0F895H
4889   6552 1B                  DCX D
4890   6553 1A                  LDAX D
4891   6554 13                  INX D
4892   6555 CD 7E 66            CALL L1677
4893   6558 CA 75 65            JZ L1679
4894   655B 1B          L1682:  DCX D
4895   655C 1A                  LDAX D
4896   655D 13                  INX D
4897   655E CD 7E 66    L1557:  CALL L1677
4898   6561 CA 0F 66            JZ L1680
4899   6564 1B                  DCX D
4900   6565 CD F9 65            CALL L1681
4901   6568 C2 5B 65            JNZ L1682
4902   656B 2A 95 F8            LHLD 0F895H
4903   656E 22 99 F8            SHLD 0F899H
4904   6571 2A 93 F8            LHLD 0F893H
4905   6574 EB                  XCHG
4906   6575 3A 27 F9    L1679:  LDA 0F927H
4907   6578 3D                  DCR A
4908   6579 CA 28 66            JZ L1683
4909   657C C9                  RET
4910   657D F5          L1674:  PUSH PSW
4911   657E 3E 5E               MVI A,5EH
4912   6580 CD D2 65            CALL L1675
4913   6583 DA 97 65            JC L1684
4914   6586 F1                  POP PSW
4915   6587 F6 40               ORI 40H
4916   6589 CD D2 65            CALL L1675
4917   658C D2 0C 65            JNC L1676
4918   658F 3A 27 F9            LDA 0F927H
4919   6592 A7                  ANA A
4920   6593 C2 28 66            JNZ L1683
4921   6596 C9                  RET
4922   6597 F1          L1684:  POP PSW
4923   6598 1B                  DCX D
4924   6599 2A 99 F8            LHLD 0F899H
4925   659C 2B                  DCX H
4926   659D 22 99 F8            SHLD 0F899H
4927   65A0 21 97 F8            LXI H,0F897H
4928   65A3 35                  DCR M
4929   65A4 C3 0F 66            JMP L1680
4930   65A7 3A 27 F9    L1671:  LDA 0F927H
4931   65AA A7                  ANA A
4932   65AB 3E AB               MVI A,0ABH
4933   65AD CC D2 65            CZ L1675
4934   65B0 CD 0F 66            CALL L1680
4935   65B3 11 FF FF            LXI D,0FFFFH
4936   65B6 C9                  RET
4937   65B7 1A          L1672:  LDAX D
4938   65B8 FE 0A               CPI 0AH
4939   65BA 3E 0D               MVI A,0DH
4940   65BC C2 7D 65            JNZ L1674
4941   65BF D5                  PUSH D
4942   65C0 CD 32 66            CALL L1670
4943   65C3 D1                  POP D
4944   65C4 3A 27 F9            LDA 0F927H
4945   65C7 A7                  ANA A
4946   65C8 3E A0               MVI A,0A0H
4947   65CA CC D2 65            CZ L1675
4948   65CD CD 0F 66            CALL L1680
4949   65D0 13                  INX D
4950   65D1 C9                  RET
4951   65D2 E5          L1675:  PUSH H
4952   65D3 CD F0 65            CALL L1685
4953   65D6 21 97 F8            LXI H,0F897H
4954   65D9 FE 09               CPI 09H
4955   65DB CA E2 65            JZ L1686
4956   65DE 34                  INR M
4957   65DF C3 E9 65            JMP L1687
4958   65E2 34          L1686:  INR M
4959   65E3 7E                  MOV A,M
4960   65E4 E6 07               ANI 07H
4961   65E6 C2 E2 65            JNZ L1686
4962   65E9 3A 29 F9    L1687:  LDA 0F929H
4963   65EC 3D                  DCR A
4964   65ED BE                  CMP M
4965   65EE E1                  POP H
4966   65EF C9                  RET
4967   65F0 2A 99 F8    L1685:  LHLD 0F899H
4968   65F3 77                  MOV M,A
4969   65F4 23                  INX H
4970   65F5 22 99 F8            SHLD 0F899H
4971   65F8 C9                  RET
4972   65F9 2A 99 F8    L1681:  LHLD 0F899H
4973   65FC 2B                  DCX H
4974   65FD 2B                  DCX H
4975   65FE 2B                  DCX H
4976   65FF 7E                  MOV A,M
4977   6600 FE 1B               CPI 1BH
4978   6602 CA 07 66            JZ L1688
4979   6605 23                  INX H
4980   6606 23                  INX H
4981   6607 22 99 F8    L1688:  SHLD 0F899H
4982   660A 21 97 F8            LXI H,0F897H
4983   660D 35                  DCR M
4984   660E C9                  RET
4985   660F 3A 97 F8    L1680:  LDA 0F897H
4986   6612 21 29 F9            LXI H,0F929H
4987   6615 BE                  CMP M
4988   6616 D0                  RNC
4989   6617 3A 27 F9            LDA 0F927H
4990   661A A7                  ANA A
4991   661B C2 28 66            JNZ L1683
4992   661E 3E 1B               MVI A,1BH
4993   6620 CD F0 65            CALL L1685
4994   6623 3E 4B               MVI A,4BH
4995   6625 CD F0 65            CALL L1685
4996   6628 3E 0D       L1683:  MVI A,0DH
4997   662A CD F0 65            CALL L1685
4998   662D 3E 0A               MVI A,0AH
4999   662F C3 F0 65            JMP L1685
5000   6632 CD 0E 60    L1670:  CALL L1605
5001   6635 3A 27 F9            LDA 0F927H
5002   6638 A7                  ANA A
5003   6639 C0                  RNZ
5004   663A 01 ED F6            LXI B,0F6EDH
5005   663D D5                  PUSH D
5006   663E EB                  XCHG
5007   663F 2A EB F6            LHLD 0F6EBH
5008   6642 EB                  XCHG
5009   6643 DF                  RST 3
5010   6644 D1                  POP D
5011   6645 D2 5F 66            JNC L1689
5012   6648 EB                  XCHG
5013   6649 DF                  RST 3
5014   664A DA 6D 66            JC L1690
5015   664D EB                  XCHG
5016   664E 2A EB F6            LHLD 0F6EBH
5017   6651 EB                  XCHG
5018   6652 DF                  RST 3
5019   6653 D2 6D 66            JNC L1690
5020   6656 0A          L1692:  LDAX B
5021   6657 A7                  ANA A
5022   6658 C0                  RNZ
5023   6659 3C                  INR A
5024   665A 26 70               MVI H,70H
5025   665C C3 73 66            JMP L1691
5026   665F EB          L1689:  XCHG
5027   6660 DF                  RST 3
5028   6661 D2 6D 66            JNC L1690
5029   6664 EB                  XCHG
5030   6665 2A EB F6            LHLD 0F6EBH
5031   6668 EB                  XCHG
5032   6669 DF                  RST 3
5033   666A D2 56 66            JNC L1692
5034   666D 0A          L1690:  LDAX B
5035   666E A7                  ANA A
5036   666F C8                  RZ
5037   6670 AF                  XRA A
5038   6671 26 71               MVI H,71H
5039   6673 E5          L1691:  PUSH H
5040   6674 02                  STAX B
5041   6675 3E 1B               MVI A,1BH
5042   6677 CD F0 65            CALL L1685
5043   667A F1                  POP PSW
5044   667B C3 F0 65            JMP L1685
5045   667E 47          L1677:  MOV B,A
5046   667F 3A 28 F9            LDA 0F928H
5047   6682 A7                  ANA A
5048   6683 78                  MOV A,B
5049   6684 C8                  RZ
5050   6685 21 97 66    L1591:  LXI H,6697H
5051   6688 06 08               MVI B,08H
5052   668A BE          L1693:  CMP M
5053   668B C8                  RZ
5054   668C 23                  INX H
5055   668D 05                  DCR B
5056   668E C2 8A 66            JNZ L1693
5057   6691 FE 21               CPI 21H
5058   6693 04                  INR B
5059   6694 D0                  RNC
5060   6695 05                  DCR B
5061   6696 C9                  RET
5062   6697 28                  UNRECOGNIZED
5063   6698 29                  DAD H
5064   6699 3C                  INR A
5065   669A 3E 2B               MVI A,2BH
5066   669C 2D                  DCR L
5067   669D 2A 2F 00            LHLD 002FH
5068   66A0 00                  NOP
5069   66A1 CD ED 60    L1644:  CALL L1182
5070   66A4 A7                  ANA A
5071   66A5 1F                  RAR
5072   66A6 CD 59 68    L1550:  CALL L1599
5073   66A9 22 F2 F6            SHLD 0F6F2H
5074   66AC CD ED 60            CALL L1182
5075   66AF 87                  ADD A
5076   66B0 21 F4 F6            LXI H,0F6F4H
5077   66B3 36 FE       L1694:  MVI M,0FEH
5078   66B5 23                  INX H
5079   66B6 3D                  DCR A
5080   66B7 C2 B3 66            JNZ L1694
5081   66BA 3C                  INR A
5082   66BB C3 EB 66            JMP L1601
5083   66BE F5          L1578:  PUSH PSW
5084   66BF 2A F0 F6            LHLD 0F6F0H
5085   66C2 7C                  MOV A,H
5086   66C3 B5                  ORA L
5087   66C4 CA EA 66            JZ L1695
5088   66C7 EB                  XCHG
5089   66C8 CD FF 64            CALL L1423
5090   66CB F1                  POP PSW
5091   66CC 47                  MOV B,A
5092   66CD CD 47 67            CALL L1696
5093   66D0 78                  MOV A,B
5094   66D1 F5                  PUSH PSW
5095   66D2 CA EA 66            JZ L1695
5096   66D5 3D                  DCR A
5097   66D6 CA EA 66            JZ L1695
5098   66D9 6F                  MOV L,A
5099   66DA 26 01               MVI H,01H
5100   66DC CD 58 42            CALL L0598
5101   66DF CD 30 67            CALL L1513
5102   66E2 7A                  MOV A,D
5103   66E3 A3                  ANA E
5104   66E4 3C                  INR A
5105   66E5 C1                  POP B
5106   66E6 CA 39 42            JZ L0742
5107   66E9 C5                  PUSH B
5108   66EA F1          L1695:  POP PSW
5109   66EB 6F          L1601:  MOV L,A
5110   66EC 26 01               MVI H,01H
5111   66EE CD 58 42            CALL L0598
5112   66F1 CD 65 67            CALL L1581
5113   66F4 7B                  MOV A,E
5114   66F5 A2                  ANA D
5115   66F6 3C                  INR A
5116   66F7 CA 24 67            JZ L1697
5117   66FA CD 65 67            CALL L1581
5118   66FD CD FB 60    L1701:  CALL L1558
5119   6700 BD                  CMP L
5120   6701 CA 14 67            JZ L1698
5121   6704 CD 2D 67            CALL L1610
5122   6707 7A                  MOV A,D
5123   6708 A3                  ANA E
5124   6709 3C                  INR A
5125   670A CA 1E 67            JZ L1699
5126   670D CD 4E 67            CALL L1700
5127   6710 C2 FD 66            JNZ L1701
5128   6713 C9                  RET
5129   6714 CD 2D 67    L1698:  CALL L1610
5130   6717 CD ED 60    L1702:  CALL L1182
5131   671A 3C                  INR A
5132   671B C3 47 67            JMP L1696
5133   671E CD 4E 67    L1699:  CALL L1700
5134   6721 CA 17 67            JZ L1702
5135   6724 CD 39 42    L1697:  CALL L0742
5136   6727 CD FE 41            CALL L0562
5137   672A C3 1E 67            JMP L1699
5138   672D CD FF 64    L1610:  CALL L1423
5139   6730 D5          L1513:  PUSH D
5140   6731 2A 99 F8            LHLD 0F899H
5141   6734 11 9B F8            LXI D,0F89BH
5142   6737 1A          L1703:  LDAX D
5143   6738 E7                  RST 4
5144   6739 13                  INX D
5145   673A DF                  RST 3
5146   673B C2 37 67            JNZ L1703
5147   673E 3A 27 F9            LDA 0F927H
5148   6741 A7                  ANA A
5149   6742 CC 4A 42            CZ L1153
5150   6745 D1                  POP D
5151   6746 C9                  RET
5152   6747 D5          L1696:  PUSH D
5153   6748 CD 68 67            CALL L1572
5154   674B C3 52 67            JMP L1704
5155   674E D5          L1700:  PUSH D
5156   674F CD 65 67            CALL L1581
5157   6752 4F          L1704:  MOV C,A
5158   6753 E3                  XTHL
5159   6754 DF                  RST 3
5160   6755 79                  MOV A,C
5161   6756 EB                  XCHG
5162   6757 E1                  POP H
5163   6758 C8                  RZ
5164   6759 73                  MOV M,E
5165   675A 23                  INX H
5166   675B 72                  MOV M,D
5167   675C 79                  MOV A,C
5168   675D C9                  RET
5169   675E CD ED 60    L1598:  CALL L1182
5170   6761 3C                  INR A
5171   6762 C3 68 67            JMP L1572
5172   6765 3A 40 F6    L1581:  LDA 0F640H
5173   6768 5F          L1572:  MOV E,A
5174   6769 16 00               MVI D,00H
5175   676B 21 F0 F6            LXI H,0F6F0H
5176   676E 19                  DAD D
5177   676F 19                  DAD D
5178   6770 5E                  MOV E,M
5179   6771 23                  INX H
5180   6772 56                  MOV D,M
5181   6773 2B                  DCX H
5182   6774 C9                  RET
5183   6775 CD 65 67    L1620:  CALL L1581
5184   6778 3D                  DCR A
5185   6779 CA 81 67            JZ L1705
5186   677C 2B                  DCX H
5187   677D 56                  MOV D,M
5188   677E 2B                  DCX H
5189   677F 5E                  MOV E,M
5190   6780 C9                  RET
5191   6781 2A 6E F7    L1705:  LHLD 0F76EH
5192   6784 DF                  RST 3
5193   6785 DA 8C 67            JC L1706
5194   6788 11 00 00            LXI D,0000H
5195   678B C9                  RET
5196   678C D5          L1706:  PUSH D
5197   678D 1B                  DCX D
5198   678E DF                  RST 3
5199   678F D2 AA 67            JNC L1707
5200   6792 1B          L1708:  DCX D
5201   6793 DF                  RST 3
5202   6794 D2 AA 67            JNC L1707
5203   6797 1A                  LDAX D
5204   6798 FE 0A               CPI 0AH
5205   679A C2 92 67            JNZ L1708
5206   679D 1B                  DCX D
5207   679E DF                  RST 3
5208   679F D2 AA 67            JNC L1707
5209   67A2 1A                  LDAX D
5210   67A3 13                  INX D
5211   67A4 FE 0D               CPI 0DH
5212   67A6 C2 92 67            JNZ L1708
5213   67A9 13                  INX D
5214   67AA D5          L1707:  PUSH D
5215   67AB CD FF 64            CALL L1423
5216   67AE C1                  POP B
5217   67AF EB                  XCHG
5218   67B0 D1                  POP D
5219   67B1 D5                  PUSH D
5220   67B2 DF                  RST 3
5221   67B3 EB                  XCHG
5222   67B4 DA AA 67            JC L1707
5223   67B7 D1                  POP D
5224   67B8 59                  MOV E,C
5225   67B9 50                  MOV D,B
5226   67BA C9                  RET
5227   67BB CD 75 67    L1560:  CALL L1620
5228   67BE EB                  XCHG
5229   67BF 22 F0 F6            SHLD 0F6F0H
5230   67C2 C9                  RET
5231   67C3 22 EE F6    L1596:  SHLD 0F6EEH
5232   67C6 E5                  PUSH H
5233   67C7 21 F2 F6            LXI H,0F6F2H
5234   67CA CD ED 60            CALL L1182
5235   67CD 47                  MOV B,A
5236   67CE 5E          L1710:  MOV E,M
5237   67CF 23                  INX H
5238   67D0 56                  MOV D,M
5239   67D1 23                  INX H
5240   67D2 E5                  PUSH H
5241   67D3 2A EE F6            LHLD 0F6EEH
5242   67D6 DF                  RST 3
5243   67D7 DA E4 67            JC L1709
5244   67DA E1                  POP H
5245   67DB EB                  XCHG
5246   67DC E3                  XTHL
5247   67DD EB                  XCHG
5248   67DE 05                  DCR B
5249   67DF F2 CE 67            JP L1710
5250   67E2 F3                  DI
5251   67E3 76                  HLT
5252   67E4 EB          L1709:  XCHG
5253   67E5 E1                  POP H
5254   67E6 E1                  POP H
5255   67E7 E5          L1715:  PUSH H
5256   67E8 21 9B F8            LXI H,0F89BH
5257   67EB 22 99 F8            SHLD 0F899H
5258   67EE AF                  XRA A
5259   67EF 32 97 F8            STA 0F897H
5260   67F2 E1                  POP H
5261   67F3 2B                  DCX H
5262   67F4 23          L1712:  INX H
5263   67F5 DF                  RST 3
5264   67F6 D2 0E 68            JNC L1711
5265   67F9 7E                  MOV A,M
5266   67FA CD D2 65            CALL L1675
5267   67FD 7E                  MOV A,M
5268   67FE FE 20               CPI 20H
5269   6800 D2 F4 67            JNC L1712
5270   6803 FE 09               CPI 09H
5271   6805 CA F4 67            JZ L1712
5272   6808 CD D2 65            CALL L1675
5273   680B C3 F4 67            JMP L1712
5274   680E 3A 97 F8    L1711:  LDA 0F897H
5275   6811 3C                  INR A
5276   6812 67                  MOV H,A
5277   6813 CD ED 60    L0913:  CALL L1182
5278   6816 90                  SUB B
5279   6817 6F                  MOV L,A
5280   6818 C9                  RET
5281   6819 CD 65 67    L1561:  CALL L1581
5282   681C D5                  PUSH D
5283   681D 3C                  INR A
5284   681E CD 68 67            CALL L1572
5285   6821 7A                  MOV A,D
5286   6822 A3                  ANA E
5287   6823 3C                  INR A
5288   6824 C2 2C 68            JNZ L1713
5289   6827 2A 74 FB            LHLD 0FB74H
5290   682A EB                  XCHG
5291   682B 13                  INX D
5292   682C 1B          L1713:  DCX D
5293   682D 1A                  LDAX D
5294   682E FE 0A               CPI 0AH
5295   6830 C2 3B 68            JNZ L1714
5296   6833 1B                  DCX D
5297   6834 1A                  LDAX D
5298   6835 FE 0D               CPI 0DH
5299   6837 CA 3B 68            JZ L1714
5300   683A 13                  INX D
5301   683B E1          L1714:  POP H
5302   683C E5                  PUSH H
5303   683D CD E7 67            CALL L1715
5304   6840 3A 41 F6            LDA 0F641H
5305   6843 BC                  CMP H
5306   6844 DA 2C 68            JC L1713
5307   6847 E1                  POP H
5308   6848 EB                  XCHG
5309   6849 C9                  RET
5310   684A 2A 6E F7    L1549:  LHLD 0F76EH
5311   684D 3E 1A       L1433:  MVI A,1AH
5312   684F BE          L1716:  CMP M
5313   6850 23                  INX H
5314   6851 C2 4F 68            JNZ L1716
5315   6854 2B                  DCX H
5316   6855 22 74 FB            SHLD 0FB74H
5317   6858 C9                  RET
5318   6859 F5          L1599:  PUSH PSW
5319   685A EB                  XCHG
5320   685B 2A 6E F7            LHLD 0F76EH
5321   685E EB                  XCHG
5322   685F E5          L1717:  PUSH H
5323   6860 D5                  PUSH D
5324   6861 CD FF 64            CALL L1423
5325   6864 C1                  POP B
5326   6865 E1                  POP H
5327   6866 DF                  RST 3
5328   6867 D2 5F 68            JNC L1717
5329   686A 60                  MOV H,B
5330   686B 69                  MOV L,C
5331   686C C1                  POP B
5332   686D 05                  DCR B
5333   686E C8                  RZ
5334   686F EB                  XCHG
5335   6870 C5          L1718:  PUSH B
5336   6871 CD 81 67            CALL L1705
5337   6874 C1                  POP B
5338   6875 7A                  MOV A,D
5339   6876 B3                  ORA E
5340   6877 2A 6E F7            LHLD 0F76EH
5341   687A C8                  RZ
5342   687B 05                  DCR B
5343   687C C2 70 68            JNZ L1718
5344   687F EB                  XCHG
5345   6880 C9                  RET
5346   6881 01 01 00    L0667:  LXI B,0001H
5347   6884 F5                  PUSH PSW
5348   6885 CD 8D 68            CALL L0466
5349   6888 C1                  POP B
5350   6889 D8                  RC
5351   688A 70                  MOV M,B
5352   688B 23                  INX H
5353   688C C9                  RET
5354   688D EB          L0466:  XCHG
5355   688E 2A C8 FB            LHLD 0FBC8H
5356   6891 09                  DAD B
5357   6892 D8                  RC
5358   6893 3E 88               MVI A,88H
5359   6895 95                  SUB L
5360   6896 6F                  MOV L,A
5361   6897 3E FF               MVI A,0FFH
5362   6899 9C                  SBB H
5363   689A 67                  MOV H,A
5364   689B D8                  RC
5365   689C 39                  DAD SP
5366   689D 3F                  CMC
5367   689E D8                  RC
5368   689F C5          L0663:  PUSH B
5369   68A0 CD E3 68            CALL L1719
5370   68A3 2A C8 FB            LHLD 0FBC8H
5371   68A6 7D                  MOV A,L
5372   68A7 93                  SUB E
5373   68A8 5F                  MOV E,A
5374   68A9 7C                  MOV A,H
5375   68AA 9A                  SBB D
5376   68AB 57                  MOV D,A
5377   68AC D5                  PUSH D
5378   68AD 5D                  MOV E,L
5379   68AE 54                  MOV D,H
5380   68AF 09                  DAD B
5381   68B0 22 C8 FB            SHLD 0FBC8H
5382   68B3 EB                  XCHG
5383   68B4 1B                  DCX D
5384   68B5 2B                  DCX H
5385   68B6 C1                  POP B
5386   68B7 78                  MOV A,B
5387   68B8 B1                  ORA C
5388   68B9 C4 06 69            CNZ L1621
5389   68BC 23                  INX H
5390   68BD C1                  POP B
5391   68BE C9                  RET
5392   68BF 78          L0640:  MOV A,B
5393   68C0 B1                  ORA C
5394   68C1 C8                  RZ
5395   68C2 E5                  PUSH H
5396   68C3 C5                  PUSH B
5397   68C4 E5                  PUSH H
5398   68C5 09                  DAD B
5399   68C6 EB                  XCHG
5400   68C7 2A C8 FB            LHLD 0FBC8H
5401   68CA EB                  XCHG
5402   68CB 7B                  MOV A,E
5403   68CC 95                  SUB L
5404   68CD 4F                  MOV C,A
5405   68CE 7A                  MOV A,D
5406   68CF 9C                  SBB H
5407   68D0 47                  MOV B,A
5408   68D1 D1                  POP D
5409   68D2 78                  MOV A,B
5410   68D3 B1                  ORA C
5411   68D4 C4 FB 68            CNZ L0683
5412   68D7 EB                  XCHG
5413   68D8 22 C8 FB            SHLD 0FBC8H
5414   68DB C1                  POP B
5415   68DC AF                  XRA A
5416   68DD 91                  SUB C
5417   68DE 4F                  MOV C,A
5418   68DF 9F                  SBB A
5419   68E0 90                  SUB B
5420   68E1 47                  MOV B,A
5421   68E2 E1                  POP H
5422   68E3 E5          L1719:  PUSH H
5423   68E4 2A C2 FB            LHLD 0FBC2H
5424   68E7 09                  DAD B
5425   68E8 22 C2 FB            SHLD 0FBC2H
5426   68EB 2A C4 FB            LHLD 0FBC4H
5427   68EE 09                  DAD B
5428   68EF 22 C4 FB            SHLD 0FBC4H
5429   68F2 2A C6 FB            LHLD 0FBC6H
5430   68F5 09                  DAD B
5431   68F6 22 C6 FB            SHLD 0FBC6H
5432   68F9 E1                  POP H
5433   68FA C9                  RET
5434   68FB 7E          L0683:  MOV A,M
5435   68FC 12                  STAX D
5436   68FD 23                  INX H
5437   68FE 13                  INX D
5438   68FF 0B                  DCX B
5439   6900 78                  MOV A,B
5440   6901 B1                  ORA C
5441   6902 C2 FB 68            JNZ L0683
5442   6905 C9                  RET
5443   6906 7E          L1621:  MOV A,M
5444   6907 12                  STAX D
5445   6908 2B                  DCX H
5446   6909 1B                  DCX D
5447   690A 0B                  DCX B
5448   690B 78                  MOV A,B
5449   690C B1                  ORA C
5450   690D C2 06 69            JNZ L1621
5451   6910 C9                  RET
5452   6911 B0                  ORA B
5453   6912 69                  MOV L,C
5454   6913 69                  MOV L,C
5455   6914 42                  MOV B,D
5456   6915 41                  MOV B,C
5457   6916 53                  MOV D,E
5458   6917 49                  MOV C,C
5459   6918 43                  MOV B,E
5460   6919 20                  RIM
5461   691A 20                  RIM
5462   691B 00                  NOP
5463   691C B0                  ORA B
5464   691D 0E 5B               MVI C,5BH
5465   691F 54                  MOV D,H
5466   6920 45                  MOV B,L
5467   6921 58                  MOV E,B
5468   6922 54                  MOV D,H
5469   6923 20                  RIM
5470   6924 20                  RIM
5471   6925 20                  RIM
5472   6926 00                  NOP
5473   6927 B0                  ORA B
5474   6928 07                  RLC
5475   6929 51                  MOV D,C
5476   692A 54                  MOV D,H
5477   692B 45                  MOV B,L
5478   692C 4C                  MOV C,H
5479   692D 43                  MOV B,E
5480   692E 4F                  MOV C,A
5481   692F 4D                  MOV C,L
5482   6930 20                  RIM
5483   6931 00                  NOP
5484   6932 B0                  ORA B
5485   6933 8B                  ADC E
5486   6934 58                  MOV E,B
5487   6935 41                  MOV B,C
5488   6936 44                  MOV B,H
5489   6937 44                  MOV B,H
5490   6938 52                  MOV D,D
5491   6939 53                  MOV D,E
5492   693A 53                  MOV D,E
5493   693B 20                  RIM
5494   693C 00                  NOP
5495   693D B0                  ORA B
5496   693E 92                  SUB D
5497   693F 58                  MOV E,B
5498   6940 53                  MOV D,E
5499   6941 43                  MOV B,E
5500   6942 48                  MOV C,B
5501   6943 45                  MOV B,L
5502   6944 44                  MOV B,H
5503   6945 4C                  MOV C,H
5504   6946 20                  RIM
5505   6947 00                  NOP
5506   6948 88                  ADC B
5507   6949 00                  NOP
5508   694A 00                  NOP
5509   694B 00                  NOP
5510   694C 53                  MOV D,E
5511   694D 75                  MOV M,L
5512   694E 7A                  MOV A,D
5513   694F 75                  MOV M,L
5514   6950 6B                  MOV L,E
5515   6951 69                  MOV L,C
5516   6952 20                  RIM
5517   6953 C8                  RZ
5518   6954 00                  NOP
5519   6955 00                  NOP
5520   6956 00                  NOP
5521   6957 48                  MOV C,B
5522   6958 61                  MOV H,C
5523   6959 79                  MOV A,C
5524   695A 61                  MOV H,C
5525   695B 73                  MOV M,E
5526   695C 68                  MOV L,B
5527   695D 69                  MOV L,C
5528   695E 48                  MOV C,B
5529   695F 00                  NOP
5530   6960 00                  NOP
5531   6961 00                  NOP
5532   6962 52                  MOV D,D
5533   6963 69                  MOV L,C
5534   6964 63                  MOV H,E
5535   6965 6B                  MOV L,E
5536   6966 59                  MOV E,C
5537   6967 20                  RIM
5538   6968 20                  RIM
5539   6969 CD 9F 69            CALL L1485
5540   696C CD 98 7B            CALL L1720
5541   696F 21 A0 F9            LXI H,0F9A0H
5542   6972 22 93 FA            SHLD 0FA93H
5543   6975 2A A1 F9            LHLD 0F9A1H
5544   6978 22 83 F6            SHLD 0F683H
5545   697B CD BC 69    L1542:  CALL L1484
5546   697E CD C1 57            CALL L0573
5547   6981 AF                  XRA A
5548   6982 32 57 F6            STA 0F657H
5549   6985 3C                  INR A
5550   6986 32 B4 FA            STA 0FAB4H
5551   6989 21 98 69            LXI H,6998H
5552   698C 22 91 F8            SHLD 0F891H
5553   698F CD F7 05            CALL L0616
5554   6992 CD 04 3F            CALL L0105
5555   6995 C3 09 05            JMP L0366
5556   6998 6C                  MOV L,H
5557   6999 6C                  MOV L,H
5558   699A 69                  MOV L,C
5559   699B 73                  MOV M,E
5560   699C 74                  MOV M,H
5561   699D 0D                  DCR C
5562   699E 00                  NOP
5563   699F 2A C4 FB    L1485:  LHLD 0FBC4H
5564   69A2 01 78 01            LXI B,0178H
5565   69A5 09                  DAD B
5566   69A6 EB                  XCHG
5567   69A7 2A 79 FB            LHLD 0FB79H
5568   69AA DF                  RST 3
5569   69AB DA AF 69            JC L1721
5570   69AE 25                  DCR H
5571   69AF 22 7F F6    L1721:  SHLD 0F67FH
5572   69B2 C9                  RET
5573   69B3 21 90 F7    L0574:  LXI H,0F790H
5574   69B6 11 11 F8            LXI D,0F811H
5575   69B9 C3 C2 69            JMP L1722
5576   69BC 21 11 F8    L1484:  LXI H,0F811H
5577   69BF 11 90 F7            LXI D,0F790H
5578   69C2 06 80       L1722:  MVI B,80H
5579   69C4 C3 1A 25            JMP L0463
5580   69C7 2B          L1399:  DCX H
5581   69C8 D7                  RST 2
5582   69C9 1A          L1725:  LDAX D
5583   69CA 3C                  INR A
5584   69CB C8                  RZ
5585   69CC E5                  PUSH H
5586   69CD 06 04               MVI B,04H
5587   69CF 1A          L1724:  LDAX D
5588   69D0 4F                  MOV C,A
5589   69D1 CD EF 0F            CALL L0495
5590   69D4 B9                  CMP C
5591   69D5 13                  INX D
5592   69D6 23                  INX H
5593   69D7 C2 EC 69            JNZ L1723
5594   69DA 05                  DCR B
5595   69DB C2 CF 69            JNZ L1724
5596   69DE F1                  POP PSW
5597   69DF E5                  PUSH H
5598   69E0 EB                  XCHG
5599   69E1 5E                  MOV E,M
5600   69E2 23                  INX H
5601   69E3 56                  MOV D,M
5602   69E4 EB                  XCHG
5603   69E5 D1                  POP D
5604   69E6 E3                  XTHL
5605   69E7 E5                  PUSH H
5606   69E8 EB                  XCHG
5607   69E9 24                  INR H
5608   69EA 25                  DCR H
5609   69EB C9                  RET
5610   69EC 13          L1723:  INX D
5611   69ED 05                  DCR B
5612   69EE C2 EC 69            JNZ L1723
5613   69F1 13                  INX D
5614   69F2 E1                  POP H
5615   69F3 C3 C9 69            JMP L1725
5616   69F6 F3          L1906:  DI
5617   69F7 21 40 FF            LXI H,0FF40H
5618   69FA 06 61               MVI B,61H
5619   69FC CD D1 4E            CALL L1363
5620   69FF 3E EC               MVI A,0ECH
5621   6A01 D3 BA               OUT 0BAH
5622   6A03 DB BB               IN 0BBH
5623   6A05 0F                  RRC
5624   6A06 0F                  RRC
5625   6A07 0F                  RRC
5626   6A08 0F                  RRC
5627   6A09 E6 03               ANI 03H
5628   6A0B 32 8F FF            STA 0FF8FH
5629   6A0E F6 FF               ORI 0FFH
5630   6A10 F5          L1903:  PUSH PSW
5631   6A11 F3                  DI
5632   6A12 3E 19               MVI A,19H
5633   6A14 30                  SIM
5634   6A15 DB C8               IN 0C8H
5635   6A17 3E 43               MVI A,43H
5636   6A19 D3 B8               OUT 0B8H
5637   6A1B 3E 05               MVI A,05H
5638   6A1D CD 72 70            CALL L1726
5639   6A20 3E E5               MVI A,0E5H
5640   6A22 D3 BA               OUT 0BAH
5641   6A24 AF                  XRA A
5642   6A25 32 46 FF            STA 0FF46H
5643   6A28 D3 E8               OUT 0E8H
5644   6A2A 32 9F FF            STA 0FF9FH
5645   6A2D CD 4D 72            CALL L1727
5646   6A30 AF                  XRA A
5647   6A31 D3 FE               OUT 0FEH
5648   6A33 CD 4D 72            CALL L1727
5649   6A36 3E 3B               MVI A,3BH
5650   6A38 D3 FE               OUT 0FEH
5651   6A3A CD 45 72            CALL L1728
5652   6A3D CD 4D 72            CALL L1727
5653   6A40 3E 39               MVI A,39H
5654   6A42 D3 FE               OUT 0FEH
5655   6A44 FB                  EI
5656   6A45 CD BA 73            CALL L1729
5657   6A48 D2 4C 6A            JNC L1730
5658   6A4B AF          L1733:  XRA A
5659   6A4C 32 93 FC    L1730:  STA 0FC93H
5660   6A4F B7                  ORA A
5661   6A50 CA 6B 6A            JZ L1731
5662   6A53 3A A0 FF            LDA 0FFA0H
5663   6A56 B7                  ORA A
5664   6A57 C2 6B 6A            JNZ L1731
5665   6A5A F1                  POP PSW
5666   6A5B C8                  RZ
5667   6A5C 2A C4 FB            LHLD 0FBC4H
5668   6A5F 11 00 E0            LXI D,0E000H
5669   6A62 DF                  RST 3
5670   6A63 D0                  RNC
5671   6A64 CD D0 73            CALL L1732
5672   6A67 F5                  PUSH PSW
5673   6A68 DA 4B 6A            JC L1733
5674   6A6B F1          L1731:  POP PSW
5675   6A6C C9                  RET
5676   6A6D C5          L0426:  PUSH B
5677   6A6E 4F                  MOV C,A
5678   6A6F CD 8F 6F    L1735:  CALL L1414
5679   6A72 DA 9A 6A            JC L1734
5680   6A75 DB BB               IN 0BBH
5681   6A77 E6 06               ANI 06H
5682   6A79 EE 02               XRI 02H
5683   6A7B C2 6F 6A            JNZ L1735
5684   6A7E CD 76 73            CALL L1736
5685   6A81 79                  MOV A,C
5686   6A82 D3 B9               OUT 0B9H
5687   6A84 3A 46 FF            LDA 0FF46H
5688   6A87 47                  MOV B,A
5689   6A88 F6 02               ORI 02H
5690   6A8A F3                  DI
5691   6A8B D3 E8               OUT 0E8H
5692   6A8D 78                  MOV A,B
5693   6A8E D3 E8               OUT 0E8H
5694   6A90 06 24               MVI B,24H
5695   6A92 05          L1737:  DCR B
5696   6A93 C2 92 6A            JNZ L1737
5697   6A96 FB                  EI
5698   6A97 3E 09               MVI A,09H
5699   6A99 30                  SIM
5700   6A9A 79          L1734:  MOV A,C
5701   6A9B C1                  POP B
5702   6A9C C9                  RET
5703   6A9D 3A 42 FF    L0151:  LDA 0FF42H
5704   6AA0 B7                  ORA A
5705   6AA1 CA A9 6A            JZ L1738
5706   6AA4 3A 41 FF            LDA 0FF41H
5707   6AA7 3C                  INR A
5708   6AA8 C8                  RZ
5709   6AA9 3A 47 FF    L1738:  LDA 0FF47H
5710   6AAC B7                  ORA A
5711   6AAD C9                  RET
5712   6AAE E5          L0493:  PUSH H
5713   6AAF D5                  PUSH D
5714   6AB0 C5                  PUSH B
5715   6AB1 21 03 6F            LXI H,6F03H
5716   6AB4 E5                  PUSH H
5717   6AB5 21 47 FF            LXI H,0FF47H
5718   6AB8 CD 8F 6F    L1739:  CALL L1414
5719   6ABB D8                  RC
5720   6ABC CD 9D 6A            CALL L0151
5721   6ABF CA B8 6A            JZ L1739
5722   6AC2 FE 03               CPI 03H
5723   6AC4 DC 3B 6B            CC L1740
5724   6AC7 F3                  DI
5725   6AC8 35                  DCR M
5726   6AC9 CD 2C 6B            CALL L1741
5727   6ACC 7E                  MOV A,M
5728   6ACD EB                  XCHG
5729   6ACE 23                  INX H
5730   6ACF 23                  INX H
5731   6AD0 34                  INR M
5732   6AD1 35                  DCR M
5733   6AD2 C8                  RZ
5734   6AD3 35                  DCR M
5735   6AD4 CA D9 6A            JZ L1742
5736   6AD7 BF                  CMP A
5737   6AD8 C9                  RET
5738   6AD9 F6 FF       L1742:  ORI 0FFH
5739   6ADB C9                  RET
5740   6ADC CD FC F5    L0009:  CALL L1743
5741   6ADF E5                  PUSH H
5742   6AE0 D5                  PUSH D
5743   6AE1 C5                  PUSH B
5744   6AE2 F5                  PUSH PSW
5745   6AE3 21 02 6F            LXI H,6F02H
5746   6AE6 E5                  PUSH H
5747   6AE7 DB C8               IN 0C8H
5748   6AE9 21 4E FF            LXI H,0FF4EH
5749   6AEC A6                  ANA M
5750   6AED 4F                  MOV C,A
5751   6AEE DB D8               IN 0D8H
5752   6AF0 E6 0E               ANI 0EH
5753   6AF2 47                  MOV B,A
5754   6AF3 C2 0B 6B            JNZ L1744
5755   6AF6 79                  MOV A,C
5756   6AF7 FE 11               CPI 11H
5757   6AF9 CA 02 6B            JZ L1745
5758   6AFC FE 13               CPI 13H
5759   6AFE C2 0B 6B            JNZ L1744
5760   6B01 3E AF               MVI A,0AFH
5761   6B03 32 40 FF            STA 0FF40H
5762   6B06 3A 42 FF            LDA 0FF42H
5763   6B09 B7                  ORA A
5764   6B0A C0                  RNZ
5765   6B0B 21 47 FF    L1744:  LXI H,0FF47H
5766   6B0E 7E                  MOV A,M
5767   6B0F FE 40               CPI 40H
5768   6B11 C8                  RZ
5769   6B12 FE 28               CPI 28H
5770   6B14 D4 4E 6B            CNC L1746
5771   6B17 C5                  PUSH B
5772   6B18 34                  INR M
5773   6B19 23                  INX H
5774   6B1A CD 2C 6B            CALL L1741
5775   6B1D C1                  POP B
5776   6B1E 71                  MOV M,C
5777   6B1F 78                  MOV A,B
5778   6B20 B7                  ORA A
5779   6B21 C8                  RZ
5780   6B22 EB                  XCHG
5781   6B23 23                  INX H
5782   6B24 35                  DCR M
5783   6B25 34                  INR M
5784   6B26 C0                  RNZ
5785   6B27 3A 47 FF            LDA 0FF47H
5786   6B2A 77                  MOV M,A
5787   6B2B C9                  RET
5788   6B2C 23          L1741:  INX H
5789   6B2D 4E                  MOV C,M
5790   6B2E 79                  MOV A,C
5791   6B2F 3C                  INR A
5792   6B30 E6 3F               ANI 3FH
5793   6B32 77                  MOV M,A
5794   6B33 EB                  XCHG
5795   6B34 21 A1 FF            LXI H,0FFA1H
5796   6B37 06 00               MVI B,00H
5797   6B39 09                  DAD B
5798   6B3A C9                  RET
5799   6B3B 3A 42 FF    L1740:  LDA 0FF42H
5800   6B3E A7                  ANA A
5801   6B3F C8                  RZ
5802   6B40 3A 4B FF            LDA 0FF4BH
5803   6B43 3D                  DCR A
5804   6B44 C0                  RNZ
5805   6B45 32 4B FF            STA 0FF4BH
5806   6B48 C5                  PUSH B
5807   6B49 0E 11               MVI C,11H
5808   6B4B C3 6A 6B            JMP L1747
5809   6B4E 3A 42 FF    L1746:  LDA 0FF42H
5810   6B51 A7                  ANA A
5811   6B52 C8                  RZ
5812   6B53 3A 4B FF            LDA 0FF4BH
5813   6B56 B7                  ORA A
5814   6B57 C0                  RNZ
5815   6B58 3C                  INR A
5816   6B59 32 4B FF            STA 0FF4BH
5817   6B5C C5                  PUSH B
5818   6B5D 0E 13               MVI C,13H
5819   6B5F C3 6A 6B            JMP L1747
5820   6B62 C5          L0492:  PUSH B
5821   6B63 4F                  MOV C,A
5822   6B64 CD 8F 6B            CALL L1748
5823   6B67 DA 8C 6B            JC L1749
5824   6B6A DB BA       L1747:  IN 0BAH
5825   6B6C 47                  MOV B,A
5826   6B6D CD 8F 6F    L1751:  CALL L1414
5827   6B70 DA 89 6B            JC L1750
5828   6B73 DB D8               IN 0D8H
5829   6B75 E6 10               ANI 10H
5830   6B77 CA 6D 6B            JZ L1751
5831   6B7A 3E 7F               MVI A,7FH
5832   6B7C A0                  ANA B
5833   6B7D D3 BA               OUT 0BAH
5834   6B7F DB BB               IN 0BBH
5835   6B81 E6 10               ANI 10H
5836   6B83 C2 6D 6B            JNZ L1751
5837   6B86 79                  MOV A,C
5838   6B87 D3 C8               OUT 0C8H
5839   6B89 78          L1750:  MOV A,B
5840   6B8A D3 BA               OUT 0BAH
5841   6B8C 79          L1749:  MOV A,C
5842   6B8D C1                  POP B
5843   6B8E C9                  RET
5844   6B8F 3A 42 FF    L1748:  LDA 0FF42H
5845   6B92 B7                  ORA A
5846   6B93 C8                  RZ
5847   6B94 79                  MOV A,C
5848   6B95 FE 11               CPI 11H
5849   6B97 C2 A1 6B            JNZ L1752
5850   6B9A AF                  XRA A
5851   6B9B 32 4B FF            STA 0FF4BH
5852   6B9E C3 A7 6B            JMP L1753
5853   6BA1 D6 13       L1752:  SUI 13H
5854   6BA3 C2 AB 6B            JNZ L1754
5855   6BA6 3D                  DCR A
5856   6BA7 32 41 FF    L1753:  STA 0FF41H
5857   6BAA C9                  RET
5858   6BAB CD 8F 6F    L1754:  CALL L1414
5859   6BAE D8                  RC
5860   6BAF 3A 40 FF            LDA 0FF40H
5861   6BB2 B7                  ORA A
5862   6BB3 C2 AB 6B            JNZ L1754
5863   6BB6 C9                  RET
5864   6BB7 E5          L1756:  PUSH H
5865   6BB8 7C                  MOV A,H
5866   6BB9 07                  RLC
5867   6BBA 21 D4 6B            LXI H,6BD4H
5868   6BBD 16 00               MVI D,00H
5869   6BBF 5F                  MOV E,A
5870   6BC0 19                  DAD D
5871   6BC1 22 4C FF            SHLD 0FF4CH
5872   6BC4 E1                  POP H
5873   6BC5 E5          L1826:  PUSH H
5874   6BC6 2A 4C FF            LHLD 0FF4CH
5875   6BC9 7E                  MOV A,M
5876   6BCA D3 BC               OUT 0BCH
5877   6BCC 23                  INX H
5878   6BCD 7E                  MOV A,M
5879   6BCE D3 BD               OUT 0BDH
5880   6BD0 3E C3               MVI A,0C3H
5881   6BD2 D3 B8               OUT 0B8H
5882   6BD4 E1                  POP H
5883   6BD5 C9                  RET
5884   6BD6 00                  NOP
5885   6BD7 48                  MOV C,B
5886   6BD8 6B                  MOV L,E
5887   6BD9 45                  MOV B,L
5888   6BDA 00                  NOP
5889   6BDB 42                  MOV B,D
5890   6BDC 00                  NOP
5891   6BDD 41                  MOV B,C
5892   6BDE 80                  ADD B
5893   6BDF 40                  MOV B,B
5894   6BE0 40                  MOV B,B
5895   6BE1 40                  MOV B,B
5896   6BE2 20                  RIM
5897   6BE3 40                  MOV B,B
5898   6BE4 10                  UNRECOGNIZED
5899   6BE5 40                  MOV B,B
5900   6BE6 08                  UNRECOGNIZED
5901   6BE7 40                  MOV B,B
5902   6BE8 E5          L0503:  PUSH H
5903   6BE9 D5                  PUSH D
5904   6BEA C5                  PUSH B
5905   6BEB F5                  PUSH PSW
5906   6BEC 06 25               MVI B,25H
5907   6BEE DA F5 6B            JC L1755
5908   6BF1 26 03               MVI H,03H
5909   6BF3 06 2D               MVI B,2DH
5910   6BF5 F3          L1755:  DI
5911   6BF6 CD B7 6B            CALL L1756
5912   6BF9 78                  MOV A,B
5913   6BFA D3 BA               OUT 0BAH
5914   6BFC DB D8               IN 0D8H
5915   6BFE 7D                  MOV A,L
5916   6BFF E6 1F               ANI 1FH
5917   6C01 D3 D8               OUT 0D8H
5918   6C03 CD 15 6C            CALL L1757
5919   6C06 3D                  DCR A
5920   6C07 32 43 FF            STA 0FF43H
5921   6C0A C3 02 6F            JMP L1758
5922   6C0D 3E AF       L0500:  MVI A,0AFH
5923   6C0F F3                  DI
5924   6C10 32 42 FF            STA 0FF42H
5925   6C13 FB                  EI
5926   6C14 C9                  RET
5927   6C15 AF          L1757:  XRA A
5928   6C16 6F                  MOV L,A
5929   6C17 67                  MOV H,A
5930   6C18 22 40 FF            SHLD 0FF40H
5931   6C1B 22 47 FF            SHLD 0FF47H
5932   6C1E 22 49 FF            SHLD 0FF49H
5933   6C21 32 4B FF            STA 0FF4BH
5934   6C24 C9                  RET
5935   6C25 DB BA       L0491:  IN 0BAH
5936   6C27 F6 C0               ORI 0C0H
5937   6C29 D3 BA               OUT 0BAH
5938   6C2B AF                  XRA A
5939   6C2C 32 43 FF            STA 0FF43H
5940   6C2F C9                  RET
5941   6C30 01 00 02    L0432:  LXI B,0200H
5942   6C33 3E 55       L1760:  MVI A,55H
5943   6C35 C5                  PUSH B
5944   6C36 CD 48 6C            CALL L1759
5945   6C39 C1                  POP B
5946   6C3A 0B                  DCX B
5947   6C3B 78                  MOV A,B
5948   6C3C B1                  ORA C
5949   6C3D C2 33 6C            JNZ L1760
5950   6C40 3E 7F               MVI A,7FH
5951   6C42 C3 48 6C            JMP L1759
5952   6C45 CD 5B 6C    L0436:  CALL L1761
5953   6C48 06 08       L1759:  MVI B,08H
5954   6C4A CD 54 6C    L1763:  CALL L1762
5955   6C4D 05                  DCR B
5956   6C4E C2 4A 6C            JNZ L1763
5957   6C51 C3 8F 6F            JMP L1414
5958   6C54 07          L1762:  RLC
5959   6C55 11 24 1F            LXI D,1F24H
5960   6C58 DA 5E 6C            JC L1764
5961   6C5B 11 49 43    L1761:  LXI D,4349H
5962   6C5E 15          L1764:  DCR D
5963   6C5F C2 5E 6C            JNZ L1764
5964   6C62 57                  MOV D,A
5965   6C63 3E D0               MVI A,0D0H
5966   6C65 30                  SIM
5967   6C66 1D          L1765:  DCR E
5968   6C67 C2 66 6C            JNZ L1765
5969   6C6A 3E 50               MVI A,50H
5970   6C6C 30                  SIM
5971   6C6D 7A                  MOV A,D
5972   6C6E C9                  RET
5973   6C6F 06 80       L0429:  MVI B,80H
5974   6C71 CD C5 6C    L1767:  CALL L1766
5975   6C74 D8                  RC
5976   6C75 79                  MOV A,C
5977   6C76 FE 02               CPI 02H
5978   6C78 DA 6F 6C            JC L0429
5979   6C7B FE 40               CPI 40H
5980   6C7D D2 6F 6C            JNC L0429
5981   6C80 05                  DCR B
5982   6C81 C2 71 6C            JNZ L1767
5983   6C84 CD 8F 6F    L1773:  CALL L1414
5984   6C87 D8                  RC
5985   6C88 21 00 00            LXI H,0000H
5986   6C8B 06 40               MVI B,40H
5987   6C8D CD 00 6D    L1771:  CALL L1768
5988   6C90 D8                  RC
5989   6C91 51                  MOV D,C
5990   6C92 CD 00 6D            CALL L1768
5991   6C95 D8                  RC
5992   6C96 7A                  MOV A,D
5993   6C97 91                  SUB C
5994   6C98 D2 9D 6C            JNC L1769
5995   6C9B 2F                  CMA
5996   6C9C 3C                  INR A
5997   6C9D FE 0B       L1769:  CPI 0BH
5998   6C9F DA A4 6C            JC L1770
5999   6CA2 24                  INR H
6000   6CA3 3E 2C               MVI A,2CH
6001   6CA5 05                  DCR B
6002   6CA6 C2 8D 6C            JNZ L1771
6003   6CA9 3E 40               MVI A,40H
6004   6CAB BD                  CMP L
6005   6CAC CA B3 6C            JZ L1772
6006   6CAF 94                  SUB H
6007   6CB0 C2 84 6C            JNZ L1773
6008   6CB3 32 4F FF    L1772:  STA 0FF4FH
6009   6CB6 16 00               MVI D,00H
6010   6CB8 CD C5 6C    L1775:  CALL L1766
6011   6CBB D8                  RC
6012   6CBC CD 0D 6D            CALL L1774
6013   6CBF FE 7F               CPI 7FH
6014   6CC1 C2 B8 6C            JNZ L1775
6015   6CC4 C9                  RET
6016   6CC5 0E 00       L1766:  MVI C,00H
6017   6CC7 3A 4F FF            LDA 0FF4FH
6018   6CCA A7                  ANA A
6019   6CCB CA E4 6C            JZ L1776
6020   6CCE CD 8F 6F    L1777:  CALL L1414
6021   6CD1 D8                  RC
6022   6CD2 20                  RIM
6023   6CD3 07                  RLC
6024   6CD4 D2 CE 6C            JNC L1777
6025   6CD7 0C          L1783:  INR C
6026   6CD8 0C          L1778:  INR C
6027   6CD9 CA CE 6C            JZ L1777
6028   6CDC 20                  RIM
6029   6CDD 07                  RLC
6030   6CDE DA D8 6C            JC L1778
6031   6CE1 C3 F7 6C            JMP L1779
6032   6CE4 CD 8F 6F    L1776:  CALL L1414
6033   6CE7 D8                  RC
6034   6CE8 20                  RIM
6035   6CE9 07                  RLC
6036   6CEA DA E4 6C            JC L1776
6037   6CED 0C          L1782:  INR C
6038   6CEE 0C          L1780:  INR C
6039   6CEF CA E4 6C            JZ L1776
6040   6CF2 20                  RIM
6041   6CF3 07                  RLC
6042   6CF4 D2 EE 6C            JNC L1780
6043   6CF7 3A 44 FF    L1779:  LDA 0FF44H
6044   6CFA A7                  ANA A
6045   6CFB CC 90 73            CZ L1781
6046   6CFE AF                  XRA A
6047   6CFF C9                  RET
6048   6D00 CD ED 6C    L1768:  CALL L1782
6049   6D03 D8                  RC
6050   6D04 0E 00               MVI C,00H
6051   6D06 CD D7 6C            CALL L1783
6052   6D09 D8                  RC
6053   6D0A C3 ED 6C            JMP L1782
6054   6D0D 79          L1774:  MOV A,C
6055   6D0E FE 16               CPI 16H
6056   6D10 7A                  MOV A,D
6057   6D11 17                  RAL
6058   6D12 57                  MOV D,A
6059   6D13 C9                  RET
6060   6D14 CD C5 6C    L0434:  CALL L1766
6061   6D17 D8                  RC
6062   6D18 79                  MOV A,C
6063   6D19 FE 16               CPI 16H
6064   6D1B DA 14 6D            JC L0434
6065   6D1E 06 08               MVI B,08H
6066   6D20 CD C5 6C    L1784:  CALL L1766
6067   6D23 D8                  RC
6068   6D24 CD 0D 6D            CALL L1774
6069   6D27 05                  DCR B
6070   6D28 C2 20 6D            JNZ L1784
6071   6D2B AF                  XRA A
6072   6D2C C9                  RET
6073   6D2D 3A 46 FF    L0433:  LDA 0FF46H
6074   6D30 E6 F1               ANI 0F1H
6075   6D32 1C                  INR E
6076   6D33 1D                  DCR E
6077   6D34 CA 39 6D            JZ L1785
6078   6D37 F6 08               ORI 08H
6079   6D39 D3 E8       L1785:  OUT 0E8H
6080   6D3B 32 46 FF            STA 0FF46H
6081   6D3E C9                  RET
6082   6D3F 21 FF 6E            LXI H,6EFFH
6083   6D42 E5                  PUSH H
6084   6D43 21 50 FF            LXI H,0FF50H
6085   6D46 35                  DCR M
6086   6D47 C0                  RNZ
6087   6D48 36 03               MVI M,03H
6088   6D4A 21 5B FF            LXI H,0FF5BH
6089   6D4D 11 65 FF            LXI D,0FF65H
6090   6D50 CD A1 6F            CALL L1786
6091   6D53 4F                  MOV C,A
6092   6D54 78                  MOV A,B
6093   6D55 F6 01               ORI 01H
6094   6D57 D3 BA               OUT 0BAH
6095   6D59 79                  MOV A,C
6096   6D5A 2F                  CMA
6097   6D5B BE                  CMP M
6098   6D5C 77                  MOV M,A
6099   6D5D CC FA 6D            CZ L1787
6100   6D60 79                  MOV A,C
6101   6D61 F6 FC               ORI 0FCH
6102   6D63 4F                  MOV C,A
6103   6D64 AF                  XRA A
6104   6D65 D3 B9               OUT 0B9H
6105   6D67 DB E8               IN 0E8H
6106   6D69 A9                  XRA C
6107   6D6A 3E FF               MVI A,0FFH
6108   6D6C D3 B9               OUT 0B9H
6109   6D6E CA 08 6F            JZ L1788
6110   6D71 06 FE               MVI B,0FEH
6111   6D73 79                  MOV A,C
6112   6D74 0E 08               MVI C,08H
6113   6D76 C3 7E 6D            JMP L1789
6114   6D79 47          L1792:  MOV B,A
6115   6D7A D3 B9               OUT 0B9H
6116   6D7C DB E8               IN 0E8H
6117   6D7E 2F          L1789:  CMA
6118   6D7F 2B                  DCX H
6119   6D80 1B                  DCX D
6120   6D81 BE                  CMP M
6121   6D82 77                  MOV M,A
6122   6D83 3E FF               MVI A,0FFH
6123   6D85 D3 B9               OUT 0B9H
6124   6D87 C2 8F 6D            JNZ L1790
6125   6D8A 1A                  LDAX D
6126   6D8B BE                  CMP M
6127   6D8C C4 BE 6D            CNZ L1791
6128   6D8F 78          L1790:  MOV A,B
6129   6D90 0F                  RRC
6130   6D91 0D                  DCR C
6131   6D92 F2 79 6D            JP L1792
6132   6D95 2B                  DCX H
6133   6D96 36 02               MVI M,02H
6134   6D98 21 68 FF            LXI H,0FF68H
6135   6D9B 35                  DCR M
6136   6D9C CA 13 6E            JZ L1793
6137   6D9F 34                  INR M
6138   6DA0 F8                  RM
6139   6DA1 3A 6A FF            LDA 0FF6AH
6140   6DA4 2A 6B FF            LHLD 0FF6BH
6141   6DA7 A6                  ANA M
6142   6DA8 C8                  RZ
6143   6DA9 3A 6D FF            LDA 0FF6DH
6144   6DAC FE 02               CPI 02H
6145   6DAE D0                  RNC
6146   6DAF 21 67 FF            LXI H,0FF67H
6147   6DB2 35                  DCR M
6148   6DB3 C0                  RNZ
6149   6DB4 36 06               MVI M,06H
6150   6DB6 3E 01               MVI A,01H
6151   6DB8 32 97 FF            STA 0FF97H
6152   6DBB C3 1D 6E            JMP L1794
6153   6DBE C5          L1791:  PUSH B
6154   6DBF E5                  PUSH H
6155   6DC0 D5                  PUSH D
6156   6DC1 47                  MOV B,A
6157   6DC2 3E 80               MVI A,80H
6158   6DC4 1E 07               MVI E,07H
6159   6DC6 57          L1797:  MOV D,A
6160   6DC7 A6                  ANA M
6161   6DC8 CA CF 6D            JZ L1795
6162   6DCB A0                  ANA B
6163   6DCC CA DB 6D            JZ L1796
6164   6DCF 7A          L1795:  MOV A,D
6165   6DD0 0F                  RRC
6166   6DD1 1D                  DCR E
6167   6DD2 F2 C6 6D            JP L1797
6168   6DD5 D1                  POP D
6169   6DD6 E1          L1799:  POP H
6170   6DD7 7E                  MOV A,M
6171   6DD8 12                  STAX D
6172   6DD9 C1                  POP B
6173   6DDA C9                  RET
6174   6DDB 21 68 FF    L1796:  LXI H,0FF68H
6175   6DDE 3C                  INR A
6176   6DDF BE                  CMP M
6177   6DE0 C2 E7 6D            JNZ L1798
6178   6DE3 D1                  POP D
6179   6DE4 E1                  POP H
6180   6DE5 C1                  POP B
6181   6DE6 C9                  RET
6182   6DE7 77          L1798:  MOV M,A
6183   6DE8 79                  MOV A,C
6184   6DE9 07                  RLC
6185   6DEA 07                  RLC
6186   6DEB 07                  RLC
6187   6DEC B3                  ORA E
6188   6DED 23                  INX H
6189   6DEE 77                  MOV M,A
6190   6DEF 23                  INX H
6191   6DF0 72                  MOV M,D
6192   6DF1 D1                  POP D
6193   6DF2 EB                  XCHG
6194   6DF3 22 6B FF            SHLD 0FF6BH
6195   6DF6 EB                  XCHG
6196   6DF7 C3 D6 6D            JMP L1799
6197   6DFA 1A          L1787:  LDAX D
6198   6DFB 47                  MOV B,A
6199   6DFC 7E                  MOV A,M
6200   6DFD 12                  STAX D
6201   6DFE 07                  RLC
6202   6DFF D0                  RNC
6203   6E00 78                  MOV A,B
6204   6E01 07                  RLC
6205   6E02 D8                  RC
6206   6E03 E3                  XTHL
6207   6E04 21 D2 6E            LXI H,6ED2H
6208   6E07 E3                  XTHL
6209   6E08 16 00               MVI D,00H
6210   6E0A 7E                  MOV A,M
6211   6E0B E6 04               ANI 04H
6212   6E0D 3E 03               MVI A,03H
6213   6E0F C0                  RNZ
6214   6E10 3E 13               MVI A,13H
6215   6E12 C9                  RET
6216   6E13 2B          L1793:  DCX H
6217   6E14 36 54               MVI M,54H
6218   6E16 2B                  DCX H
6219   6E17 3A 65 FF            LDA 0FF65H
6220   6E1A E6 FC               ANI 0FCH
6221   6E1C 77                  MOV M,A
6222   6E1D 3A 69 FF    L1794:  LDA 0FF69H
6223   6E20 4F                  MOV C,A
6224   6E21 11 2F 00            LXI D,002FH
6225   6E24 42                  MOV B,D
6226   6E25 FE 36               CPI 36H
6227   6E27 DA 2E 6E            JC L1800
6228   6E2A 21 6A FF            LXI H,0FF6AH
6229   6E2D 70                  MOV M,B
6230   6E2E 3A 66 FF    L1800:  LDA 0FF66H
6231   6E31 0F                  RRC
6232   6E32 0F                  RRC
6233   6E33 0F                  RRC
6234   6E34 F5                  PUSH PSW
6235   6E35 79                  MOV A,C
6236   6E36 BB                  CMP E
6237   6E37 DA 7D 6E            JC L1801
6238   6E3A CA 48 6E            JZ L1802
6239   6E3D FE 34               CPI 34H
6240   6E3F D2 48 6E            JNC L1802
6241   6E42 F1                  POP PSW
6242   6E43 F5                  PUSH PSW
6243   6E44 0F                  RRC
6244   6E45 DA 7D 6E            JC L1801
6245   6E48 21 3C 79    L1802:  LXI H,793CH
6246   6E4B F1                  POP PSW
6247   6E4C D2 52 6E            JNC L1803
6248   6E4F 21 6B 79            LXI H,796BH
6249   6E52 09          L1803:  DAD B
6250   6E53 7E                  MOV A,M
6251   6E54 4F                  MOV C,A
6252   6E55 FE 80               CPI 80H
6253   6E57 DA F2 6E            JC L1804
6254   6E5A FE 88               CPI 88H
6255   6E5C D2 F2 6E            JNC L1804
6256   6E5F 3A 57 F6            LDA 0F657H
6257   6E62 E6 E0               ANI 0E0H
6258   6E64 C2 F2 6E            JNZ L1804
6259   6E67 2A 81 F6            LHLD 0F681H
6260   6E6A 7C                  MOV A,H
6261   6E6B A5                  ANA L
6262   6E6C 3C                  INR A
6263   6E6D CA F2 6E            JZ L1804
6264   6E70 21 B7 F5            LXI H,0F5B7H
6265   6E73 09                  DAD B
6266   6E74 7E                  MOV A,M
6267   6E75 B7                  ORA A
6268   6E76 CA F2 6E            JZ L1804
6269   6E79 79                  MOV A,C
6270   6E7A C3 E3 6E            JMP L1805
6271   6E7D F1          L1801:  POP PSW
6272   6E7E F5                  PUSH PSW
6273   6E7F E6 88               ANI 88H
6274   6E81 C2 86 6E            JNZ L1806
6275   6E84 1E 00               MVI E,00H
6276   6E86 F1          L1806:  POP PSW
6277   6E87 0F                  RRC
6278   6E88 F5                  PUSH PSW
6279   6E89 DA 15 6F            JC L1807
6280   6E8C 21 C5 79            LXI H,79C5H
6281   6E8F 0F                  RRC
6282   6E90 DA C3 6E            JC L1808
6283   6E93 0F                  RRC
6284   6E94 79                  MOV A,C
6285   6E95 D2 A9 6E            JNC L1809
6286   6E98 21 AD 79            LXI H,79ADH
6287   6E9B 06 0C               MVI B,0CH
6288   6E9D BE          L1811:  CMP M
6289   6E9E 23                  INX H
6290   6E9F CA C5 6E            JZ L1810
6291   6EA2 23                  INX H
6292   6EA3 05                  DCR B
6293   6EA4 C2 9D 6E            JNZ L1811
6294   6EA7 F1                  POP PSW
6295   6EA8 C9                  RET
6296   6EA9 21 3C 79    L1809:  LXI H,793CH
6297   6EAC FE 1B               CPI 1BH
6298   6EAE D2 C3 6E            JNC L1808
6299   6EB1 7B                  MOV A,E
6300   6EB2 0F                  RRC
6301   6EB3 3A 8F FF            LDA 0FF8FH
6302   6EB6 17                  RAL
6303   6EB7 11 1B 00            LXI D,001BH
6304   6EBA 21 64 78            LXI H,7864H
6305   6EBD 19          L1812:  DAD D
6306   6EBE 3D                  DCR A
6307   6EBF F2 BD 6E            JP L1812
6308   6EC2 3E 19               MVI A,19H
6309   6EC4 09                  DAD B
6310   6EC5 F1          L1810:  POP PSW
6311   6EC6 7E                  MOV A,M
6312   6EC7 D2 D2 6E            JNC L1813
6313   6ECA FE 5B               CPI 5BH
6314   6ECC D0                  RNC
6315   6ECD FE 40               CPI 40H
6316   6ECF D8                  RC
6317   6ED0 E6 3F               ANI 3FH
6318   6ED2 4F          L1813:  MOV C,A
6319   6ED3 E6 EF               ANI 0EFH
6320   6ED5 FE 03               CPI 03H
6321   6ED7 C2 F2 6E            JNZ L1804
6322   6EDA 3A 57 F6            LDA 0F657H
6323   6EDD E6 C0               ANI 0C0H
6324   6EDF C2 F2 6E            JNZ L1804
6325   6EE2 79                  MOV A,C
6326   6EE3 32 8E FF    L1805:  STA 0FF8EH
6327   6EE6 FE 03               CPI 03H
6328   6EE8 C0                  RNZ
6329   6EE9 21 6D FF            LXI H,0FF6DH
6330   6EEC 36 01               MVI M,01H
6331   6EEE 23                  INX H
6332   6EEF C3 FD 6E            JMP L1814
6333   6EF2 21 6D FF    L1804:  LXI H,0FF6DH
6334   6EF5 7E                  MOV A,M
6335   6EF6 FE 20               CPI 20H
6336   6EF8 D0                  RNC
6337   6EF9 34                  INR M
6338   6EFA 23                  INX H
6339   6EFB 5F                  MOV E,A
6340   6EFC 19                  DAD D
6341   6EFD 71          L1814:  MOV M,C
6342   6EFE F1                  POP PSW
6343   6EFF 3E 09       L1836:  MVI A,09H
6344   6F01 30                  SIM
6345   6F02 F1          L1758:  POP PSW
6346   6F03 C1                  POP B
6347   6F04 D1                  POP D
6348   6F05 E1                  POP H
6349   6F06 FB                  EI
6350   6F07 C9                  RET
6351   6F08 21 51 FF    L1788:  LXI H,0FF51H
6352   6F0B 35                  DCR M
6353   6F0C C0                  RNZ
6354   6F0D 21 52 FF            LXI H,0FF52H
6355   6F10 06 13               MVI B,13H
6356   6F12 C3 D1 4E            JMP L1363
6357   6F15 1E 2F       L1807:  MVI E,2FH
6358   6F17 79                  MOV A,C
6359   6F18 21 71 79            LXI H,7971H
6360   6F1B FE 0D               CPI 0DH
6361   6F1D CA 28 6F            JZ L1815
6362   6F20 21 52 79            LXI H,7952H
6363   6F23 FE 2F               CPI 2FH
6364   6F25 DA A9 6E            JC L1809
6365   6F28 F1          L1815:  POP PSW
6366   6F29 09                  DAD B
6367   6F2A 7E                  MOV A,M
6368   6F2B C3 D2 6E            JMP L1813
6369   6F2E CD 76 73    L0404:  CALL L1736
6370   6F31 3A 6D FF            LDA 0FF6DH
6371   6F34 B7                  ORA A
6372   6F35 CA 5A 6F            JZ L1816
6373   6F38 21 6E FF            LXI H,0FF6EH
6374   6F3B 7E                  MOV A,M
6375   6F3C E6 E0               ANI 0E0H
6376   6F3E EE 80               XRI 80H
6377   6F40 7E                  MOV A,M
6378   6F41 C2 47 6F            JNZ L1817
6379   6F44 E6 7F               ANI 7FH
6380   6F46 37                  STC
6381   6F47 F5          L1817:  PUSH PSW
6382   6F48 2B                  DCX H
6383   6F49 35                  DCR M
6384   6F4A 4E                  MOV C,M
6385   6F4B 11 6F FF            LXI D,0FF6FH
6386   6F4E 23                  INX H
6387   6F4F 0D          L1819:  DCR C
6388   6F50 FA 5B 6F            JM L1818
6389   6F53 1A                  LDAX D
6390   6F54 77                  MOV M,A
6391   6F55 23                  INX H
6392   6F56 13                  INX D
6393   6F57 C3 4F 6F            JMP L1819
6394   6F5A F5          L1816:  PUSH PSW
6395   6F5B 3E 09       L1818:  MVI A,09H
6396   6F5D 30                  SIM
6397   6F5E F1                  POP PSW
6398   6F5F C9                  RET
6399   6F60 CD 73 6F    L0396:  CALL L0417
6400   6F63 CA 6E 6F            JZ L1820
6401   6F66 FE 03               CPI 03H
6402   6F68 C2 6E 6F            JNZ L1820
6403   6F6B B7                  ORA A
6404   6F6C 37                  STC
6405   6F6D C9                  RET
6406   6F6E 3A 6D FF    L1820:  LDA 0FF6DH
6407   6F71 B7                  ORA A
6408   6F72 C9                  RET
6409   6F73 E5          L0417:  PUSH H
6410   6F74 21 8E FF            LXI H,0FF8EH
6411   6F77 7E                  MOV A,M
6412   6F78 36 00               MVI M,00H
6413   6F7A E1                  POP H
6414   6F7B B7                  ORA A
6415   6F7C F0                  RP
6416   6F7D E5                  PUSH H
6417   6F7E C5                  PUSH B
6418   6F7F 21 D1 F7            LXI H,0F7D1H
6419   6F82 4F                  MOV C,A
6420   6F83 06 00               MVI B,00H
6421   6F85 09                  DAD B
6422   6F86 09                  DAD B
6423   6F87 09                  DAD B
6424   6F88 CD AE 3F            CALL L0556
6425   6F8B C1                  POP B
6426   6F8C E1                  POP H
6427   6F8D AF                  XRA A
6428   6F8E C9                  RET
6429   6F8F C5          L1414:  PUSH B
6430   6F90 DB B9               IN 0B9H
6431   6F92 4F                  MOV C,A
6432   6F93 CD A1 6F            CALL L1786
6433   6F96 47                  MOV B,A
6434   6F97 79                  MOV A,C
6435   6F98 D3 B9               OUT 0B9H
6436   6F9A 78                  MOV A,B
6437   6F9B C1                  POP B
6438   6F9C E6 84               ANI 84H
6439   6F9E C0                  RNZ
6440   6F9F 37                  STC
6441   6FA0 C9                  RET
6442   6FA1 3E FF       L1786:  MVI A,0FFH
6443   6FA3 D3 B9               OUT 0B9H
6444   6FA5 DB BA               IN 0BAH
6445   6FA7 47                  MOV B,A
6446   6FA8 E6 FE               ANI 0FEH
6447   6FAA D3 BA               OUT 0BAH
6448   6FAC DB E8               IN 0E8H
6449   6FAE F5                  PUSH PSW
6450   6FAF 78                  MOV A,B
6451   6FB0 D3 BA               OUT 0BAH
6452   6FB2 F1                  POP PSW
6453   6FB3 C9                  RET
6454   6FB4 F3          L0603:  DI
6455   6FB5 7B                  MOV A,E
6456   6FB6 D3 BC               OUT 0BCH
6457   6FB8 7A                  MOV A,D
6458   6FB9 F6 40               ORI 40H
6459   6FBB D3 BD               OUT 0BDH
6460   6FBD 3E C3               MVI A,0C3H
6461   6FBF D3 B8               OUT 0B8H
6462   6FC1 DB BA               IN 0BAH
6463   6FC3 E6 F8               ANI 0F8H
6464   6FC5 F6 20               ORI 20H
6465   6FC7 D3 BA               OUT 0BAH
6466   6FC9 CD 8F 6F    L1825:  CALL L1414
6467   6FCC D2 D7 6F            JNC L1821
6468   6FCF 3E 03               MVI A,03H
6469   6FD1 32 8E FF            STA 0FF8EH
6470   6FD4 C3 E8 6F            JMP L1822
6471   6FD7 0E 64       L1821:  MVI C,64H
6472   6FD9 C5          L1824:  PUSH B
6473   6FDA 0E 1E               MVI C,1EH
6474   6FDC CD 71 73            CALL L1823
6475   6FDF C1                  POP B
6476   6FE0 0D                  DCR C
6477   6FE1 C2 D9 6F            JNZ L1824
6478   6FE4 05                  DCR B
6479   6FE5 C2 C9 6F            JNZ L1825
6480   6FE8 DB BA       L1822:  IN 0BAH
6481   6FEA F6 04               ORI 04H
6482   6FEC D3 BA               OUT 0BAH
6483   6FEE CD C5 6B            CALL L1826
6484   6FF1 FB                  EI
6485   6FF2 C9                  RET
6486   6FF3 E5                  PUSH H
6487   6FF4 D5                  PUSH D
6488   6FF5 C5                  PUSH B
6489   6FF6 F5                  PUSH PSW
6490   6FF7 5E                  MOV E,M
6491   6FF8 23                  INX H
6492   6FF9 56                  MOV D,M
6493   6FFA 23                  INX H
6494   6FFB 4E                  MOV C,M
6495   6FFC 23                  INX H
6496   6FFD 46                  MOV B,M
6497   6FFE 23                  INX H
6498   6FFF 7E                  MOV A,M
6499   7000 D3 70               OUT 70H
6500   7002 F3                  DI
6501   7003 23                  INX H
6502   7004 7E                  MOV A,M
6503   7005 D3 71               OUT 71H
6504   7007 23                  INX H
6505   7008 7E                  MOV A,M
6506   7009 D3 72               OUT 72H
6507   700B 78          L1827:  MOV A,B
6508   700C B1                  ORA C
6509   700D CA 02 6F            JZ L1758
6510   7010 DB 73               IN 73H
6511   7012 12                  STAX D
6512   7013 13                  INX D
6513   7014 0B                  DCX B
6514   7015 C3 0B 70            JMP L1827
6515   7018 F6 AF       L0525:  ORI 0AFH
6516   701A F5                  PUSH PSW
6517   701B CD 76 73            CALL L1736
6518   701E 3E 03               MVI A,03H
6519   7020 C4 72 70            CNZ L1726
6520   7023 3E 01               MVI A,01H
6521   7025 CD 72 70            CALL L1726
6522   7028 0E 07               MVI C,07H
6523   702A CD 71 73            CALL L1823
6524   702D 06 0A               MVI B,0AH
6525   702F 0E 04       L1831:  MVI C,04H
6526   7031 56                  MOV D,M
6527   7032 F1          L1830:  POP PSW
6528   7033 F5                  PUSH PSW
6529   7034 CA 41 70            JZ L1828
6530   7037 DB BB               IN 0BBH
6531   7039 1F                  RAR
6532   703A 7A                  MOV A,D
6533   703B 1F                  RAR
6534   703C 57                  MOV D,A
6535   703D AF                  XRA A
6536   703E C3 4C 70            JMP L1829
6537   7041 7A          L1828:  MOV A,D
6538   7042 0F                  RRC
6539   7043 57                  MOV D,A
6540   7044 3E 10               MVI A,10H
6541   7046 1F                  RAR
6542   7047 1F                  RAR
6543   7048 1F                  RAR
6544   7049 1F                  RAR
6545   704A D3 B9               OUT 0B9H
6546   704C F6 09       L1829:  ORI 09H
6547   704E D3 B9               OUT 0B9H
6548   7050 E6 F7               ANI 0F7H
6549   7052 D3 B9               OUT 0B9H
6550   7054 0D                  DCR C
6551   7055 C2 32 70            JNZ L1830
6552   7058 7A                  MOV A,D
6553   7059 0F                  RRC
6554   705A 0F                  RRC
6555   705B 0F                  RRC
6556   705C 0F                  RRC
6557   705D E6 0F               ANI 0FH
6558   705F 77                  MOV M,A
6559   7060 23                  INX H
6560   7061 05                  DCR B
6561   7062 C2 2F 70            JNZ L1831
6562   7065 F1                  POP PSW
6563   7066 3E 02               MVI A,02H
6564   7068 CC 72 70            CZ L1726
6565   706B AF                  XRA A
6566   706C CD 72 70            CALL L1726
6567   706F C3 46 71            JMP L1832
6568   7072 D3 B9       L1726:  OUT 0B9H
6569   7074 3A 46 FF            LDA 0FF46H
6570   7077 F6 04               ORI 04H
6571   7079 D3 E8               OUT 0E8H
6572   707B E6 FB               ANI 0FBH
6573   707D D3 E8               OUT 0E8H
6574   707F C9                  RET
6575   7080 CD 76 73    L0559:  CALL L1736
6576   7083 21 3F 6D            LXI H,6D3FH
6577   7086 E5                  PUSH H
6578   7087 21 97 FF            LXI H,0FF97H
6579   708A 35                  DCR M
6580   708B C0                  RNZ
6581   708C 36 7D               MVI M,7DH
6582   708E 2B                  DCX H
6583   708F 7E                  MOV A,M
6584   7090 B7                  ORA A
6585   7091 F2 95 70            JP L1833
6586   7094 E0                  RPO
6587   7095 EE 01       L1833:  XRI 01H
6588   7097 77                  MOV M,A
6589   7098 E5          L1207:  PUSH H
6590   7099 21 90 FF            LXI H,0FF90H
6591   709C 16 00               MVI D,00H
6592   709E CD BC 71            CALL L1834
6593   70A1 06 06               MVI B,06H
6594   70A3 2B                  DCX H
6595   70A4 7E          L1835:  MOV A,M
6596   70A5 2F                  CMA
6597   70A6 77                  MOV M,A
6598   70A7 2B                  DCX H
6599   70A8 05                  DCR B
6600   70A9 C2 A4 70            JNZ L1835
6601   70AC 23                  INX H
6602   70AD 16 01               MVI D,01H
6603   70AF CD BC 71            CALL L1834
6604   70B2 E1                  POP H
6605   70B3 C9                  RET
6606   70B4 E5          L1163:  PUSH H
6607   70B5 D5                  PUSH D
6608   70B6 C5                  PUSH B
6609   70B7 F5                  PUSH PSW
6610   70B8 CD 76 73            CALL L1736
6611   70BB 21 96 FF            LXI H,0FF96H
6612   70BE 7E                  MOV A,M
6613   70BF 0F                  RRC
6614   70C0 DC 98 70            CC L1207
6615   70C3 36 80               MVI M,80H
6616   70C5 C3 FF 6E            JMP L1836
6617   70C8 F5          L1166:  PUSH PSW
6618   70C9 E5                  PUSH H
6619   70CA CD 76 73            CALL L1736
6620   70CD 21 96 FF            LXI H,0FF96H
6621   70D0 7E                  MOV A,M
6622   70D1 E6 7F               ANI 7FH
6623   70D3 77                  MOV M,A
6624   70D4 23                  INX H
6625   70D5 36 01               MVI M,01H
6626   70D7 3E 09               MVI A,09H
6627   70D9 30                  SIM
6628   70DA E1                  POP H
6629   70DB F1                  POP PSW
6630   70DC C9                  RET
6631   70DD 79          L1206:  MOV A,C
6632   70DE FE 80               CPI 80H
6633   70E0 DA EA 70            JC L1837
6634   70E3 FE A0               CPI 0A0H
6635   70E5 D2 EA 70            JNC L1837
6636   70E8 0E 20               MVI C,20H
6637   70EA CD 76 73    L1837:  CALL L1736
6638   70ED 21 00 00            LXI H,0000H
6639   70F0 39                  DAD SP
6640   70F1 22 9C FF            SHLD 0FF9CH
6641   70F4 15                  DCR D
6642   70F5 1D                  DCR E
6643   70F6 EB                  XCHG
6644   70F7 22 98 FF            SHLD 0FF98H
6645   70FA 79                  MOV A,C
6646   70FB 21 57 78            LXI H,7857H
6647   70FE 06 0A               MVI B,0AH
6648   7100 BE          L1839:  CMP M
6649   7101 CA 4A 71            JZ L1838
6650   7104 23                  INX H
6651   7105 05                  DCR B
6652   7106 C2 00 71            JNZ L1839
6653   7109 11 2A 74    L1843:  LXI D,742AH
6654   710C D6 20               SUI 20H
6655   710E CA 1A 71            JZ L1840
6656   7111 13                  INX D
6657   7112 FE 60               CPI 60H
6658   7114 DA 1A 71            JC L1840
6659   7117 11 17 73            LXI D,7317H
6660   711A F5          L1840:  PUSH PSW
6661   711B 6F                  MOV L,A
6662   711C 26 00               MVI H,00H
6663   711E 44                  MOV B,H
6664   711F 4D                  MOV C,L
6665   7120 29                  DAD H
6666   7121 29                  DAD H
6667   7122 09                  DAD B
6668   7123 F1                  POP PSW
6669   7124 F5                  PUSH PSW
6670   7125 DA 29 71            JC L1841
6671   7128 09                  DAD B
6672   7129 19          L1841:  DAD D
6673   712A F1                  POP PSW
6674   712B D2 3A 71            JNC L1842
6675   712E 11 90 FF            LXI D,0FF90H
6676   7131 D5                  PUSH D
6677   7132 06 05               MVI B,05H
6678   7134 CD 1A 25            CALL L0463
6679   7137 AF                  XRA A
6680   7138 12                  STAX D
6681   7139 E1                  POP H
6682   713A 16 01       L1842:  MVI D,01H
6683   713C CD BC 71            CALL L1834
6684   713F AF          L1902:  XRA A
6685   7140 32 9D FF            STA 0FF9DH
6686   7143 CD 45 72            CALL L1728
6687   7146 3E 09       L1832:  MVI A,09H
6688   7148 30                  SIM
6689   7149 C9                  RET
6690   714A 3A 8F FF    L1838:  LDA 0FF8FH
6691   714D 47                  MOV B,A
6692   714E 11 0A 00            LXI D,000AH
6693   7151 7E          L1844:  MOV A,M
6694   7152 05                  DCR B
6695   7153 FA 09 71            JM L1843
6696   7156 19                  DAD D
6697   7157 C3 51 71            JMP L1844
6698   715A CD 76 73    L1165:  CALL L1736
6699   715D 15                  DCR D
6700   715E 1D                  DCR E
6701   715F EB                  XCHG
6702   7160 22 98 FF            SHLD 0FF98H
6703   7163 C3 46 71            JMP L1832
6704   7166 F6 AF       L0576:  ORI 0AFH
6705   7168 F5                  PUSH PSW
6706   7169 CD 76 73            CALL L1736
6707   716C D5                  PUSH D
6708   716D 0E FE               MVI C,0FEH
6709   716F 7A                  MOV A,D
6710   7170 0C          L1845:  INR C
6711   7171 0C                  INR C
6712   7172 57                  MOV D,A
6713   7173 D6 32               SUI 32H
6714   7175 D2 70 71            JNC L1845
6715   7178 06 00               MVI B,00H
6716   717A 21 5D 73            LXI H,735DH
6717   717D 7B                  MOV A,E
6718   717E 17                  RAL
6719   717F 17                  RAL
6720   7180 17                  RAL
6721   7181 D2 87 71            JNC L1846
6722   7184 21 67 73            LXI H,7367H
6723   7187 09          L1846:  DAD B
6724   7188 47                  MOV B,A
6725   7189 CD 55 72            CALL L1847
6726   718C 78                  MOV A,B
6727   718D E6 C0               ANI 0C0H
6728   718F B2                  ORA D
6729   7190 47                  MOV B,A
6730   7191 1E 01               MVI E,01H
6731   7193 21 90 FF            LXI H,0FF90H
6732   7196 CD 0F 72            CALL L1848
6733   7199 D1                  POP D
6734   719A 50                  MOV D,B
6735   719B 7B                  MOV A,E
6736   719C E6 07               ANI 07H
6737   719E 87                  ADD A
6738   719F 4F                  MOV C,A
6739   71A0 06 00               MVI B,00H
6740   71A2 21 5D 73            LXI H,735DH
6741   71A5 09                  DAD B
6742   71A6 F1                  POP PSW
6743   71A7 7E                  MOV A,M
6744   71A8 21 90 FF            LXI H,0FF90H
6745   71AB C2 B1 71            JNZ L1849
6746   71AE 2F                  CMA
6747   71AF A6                  ANA M
6748   71B0 06 B6               MVI B,0B6H
6749   71B2 77                  MOV M,A
6750   71B3 42                  MOV B,D
6751   71B4 1E 01               MVI E,01H
6752   71B6 CD 10 72            CALL L1850
6753   71B9 C3 46 71            JMP L1832
6754   71BC E5          L1834:  PUSH H
6755   71BD 1E 06               MVI E,06H
6756   71BF 3A 99 FF            LDA 0FF99H
6757   71C2 FE 08               CPI 08H
6758   71C4 CA D1 71            JZ L1851
6759   71C7 FE 10               CPI 10H
6760   71C9 CA D3 71            JZ L1852
6761   71CC FE 21               CPI 21H
6762   71CE C2 D5 71            JNZ L1853
6763   71D1 1D          L1851:  DCR E
6764   71D2 1D                  DCR E
6765   71D3 1D          L1852:  DCR E
6766   71D4 1D                  DCR E
6767   71D5 4F          L1853:  MOV C,A
6768   71D6 81                  ADD C
6769   71D7 81                  ADD C
6770   71D8 4F                  MOV C,A
6771   71D9 06 00               MVI B,00H
6772   71DB 3A 98 FF            LDA 0FF98H
6773   71DE 1F                  RAR
6774   71DF 1F                  RAR
6775   71E0 1F                  RAR
6776   71E1 21 E3 72            LXI H,72E3H
6777   71E4 DA EA 71            JC L1854
6778   71E7 21 6B 72            LXI H,726BH
6779   71EA 09          L1854:  DAD B
6780   71EB 47                  MOV B,A
6781   71EC CD 55 72            CALL L1847
6782   71EF 22 9A FF            SHLD 0FF9AH
6783   71F2 78                  MOV A,B
6784   71F3 B6                  ORA M
6785   71F4 47                  MOV B,A
6786   71F5 E1                  POP H
6787   71F6 15                  DCR D
6788   71F7 CD 11 72            CALL L1855
6789   71FA 14                  INR D
6790   71FB 3E 06               MVI A,06H
6791   71FD 93                  SUB E
6792   71FE C8                  RZ
6793   71FF 5F                  MOV E,A
6794   7200 E5                  PUSH H
6795   7201 2A 9A FF            LHLD 0FF9AH
6796   7204 23                  INX H
6797   7205 CD 55 72            CALL L1847
6798   7208 E1                  POP H
6799   7209 78                  MOV A,B
6800   720A E6 C0               ANI 0C0H
6801   720C 47                  MOV B,A
6802   720D 15                  DCR D
6803   720E DA F6 AF            JC L1856
6804   7211 D5                  PUSH D
6805   7212 F5                  PUSH PSW
6806   7213 78                  MOV A,B
6807   7214 CD 62 72            CALL L1857
6808   7217 D3 FE               OUT 0FEH
6809   7219 CA 21 72            JZ L1858
6810   721C CD 62 72            CALL L1857
6811   721F DB FF               IN 0FFH
6812   7221 F1          L1858:  POP PSW
6813   7222 C2 35 72            JNZ L1859
6814   7225 DB FE       L1860:  IN 0FEH
6815   7227 17                  RAL
6816   7228 DA 25 72            JC L1860
6817   722B 7E                  MOV A,M
6818   722C D3 FF               OUT 0FFH
6819   722E 23                  INX H
6820   722F 1D                  DCR E
6821   7230 C2 25 72            JNZ L1860
6822   7233 D1                  POP D
6823   7234 C9                  RET
;
6824   7235 DB FE       L1859:  IN 0FEH
6825   7237 17                  RAL
6826   7238 DA 35 72            JC L1859
6827   723B DB FF               IN 0FFH
6828   723D 77                  MOV M,A
6829   723E 23                  INX H
6830   723F 1D                  DCR E
6831   7240 C2 35 72            JNZ L1859
6832   7243 D1                  POP D
6833   7244 C9                  RET
;
6834   7245 CD 4D 72    L1728:  CALL L1727
6835   7248 3E 3E               MVI A,3EH
6836   724A D3 FE               OUT 0FEH
6837   724C C9                  RET
6838   724D 0E 03       L1727:  MVI C,03H
6839   724F CD 71 73            CALL L1823
6840   7252 21 5B 73            LXI H,735BH
6841   7255 7E          L1847:  MOV A,M
6842   7256 D3 B9               OUT 0B9H
6843   7258 23                  INX H
6844   7259 DB BA               IN 0BAH
6845   725B E6 FC               ANI 0FCH
6846   725D B6                  ORA M
6847   725E D3 BA               OUT 0BAH
6848   7260 23                  INX H
6849   7261 C9                  RET
;
6850   7262 F5          L1857:  PUSH PSW
6851   7263 DB FE       L1861:  IN 0FEH
6852   7265 17                  RAL
6853   7266 DA 63 72            JC L1861
6854   7269 F1                  POP PSW
6855   726A C9                  RET
;
6856   726B 01 00 00            LXI B,0000H
6857   726E 01 00 06            LXI B,0600H
6858   7271 01 00 0C            LXI B,0C00H
6859   7274 01 00 12            LXI B,1200H
6860   7277 01 00 18            LXI B,1800H
6861   727A 01 00 1E            LXI B,1E00H
6862   727D 01 00 24            LXI B,2400H
6863   7280 01 00 2A            LXI B,2A00H
6864   7283 01 00 30            LXI B,3000H
6865   7286 02                  STAX B
6866   7287 00                  NOP
6867   7288 04                  INR B
6868   7289 02                  STAX B
6869   728A 00                  NOP
6870   728B 0A                  LDAX B
6871   728C 02                  STAX B
6872   728D 00                  NOP
6873   728E 10                  UNRECOGNIZED
6874   728F 02                  STAX B
6875   7290 00                  NOP
6876   7291 16 02               MVI D,02H
6877   7293 00                  NOP
6878   7294 1C                  INR E
6879   7295 02                  STAX B
6880   7296 00                  NOP
6881   7297 22 02 00            SHLD 0002H
6882   729A 28                  UNRECOGNIZED
6883   729B 02                  STAX B
6884   729C 00                  NOP
6885   729D 2E 04               MVI L,04H
6886   729F 00                  NOP
6887   72A0 02                  STAX B
6888   72A1 04                  INR B
6889   72A2 00                  NOP
6890   72A3 08                  UNRECOGNIZED
6891   72A4 04                  INR B
6892   72A5 00                  NOP
6893   72A6 0E 04               MVI C,04H
6894   72A8 00                  NOP
6895   72A9 14                  INR D
6896   72AA 04                  INR B
6897   72AB 00                  NOP
6898   72AC 1A                  LDAX D
6899   72AD 04                  INR B
6900   72AE 00                  NOP
6901   72AF 20                  RIM
6902   72B0 04                  INR B
6903   72B1 00                  NOP
6904   72B2 26 04               MVI H,04H
6905   72B4 00                  NOP
6906   72B5 2C                  INR L
6907   72B6 08                  UNRECOGNIZED
6908   72B7 00                  NOP
6909   72B8 00                  NOP
6910   72B9 08                  UNRECOGNIZED
6911   72BA 00                  NOP
6912   72BB 06 08               MVI B,08H
6913   72BD 00                  NOP
6914   72BE 0C                  INR C
6915   72BF 08                  UNRECOGNIZED
6916   72C0 00                  NOP
6917   72C1 12                  STAX D
6918   72C2 08                  UNRECOGNIZED
6919   72C3 00                  NOP
6920   72C4 18                  UNRECOGNIZED
6921   72C5 08                  UNRECOGNIZED
6922   72C6 00                  NOP
6923   72C7 1E 08               MVI E,08H
6924   72C9 00                  NOP
6925   72CA 24                  INR H
6926   72CB 08                  UNRECOGNIZED
6927   72CC 00                  NOP
6928   72CD 2A 08 00            LHLD 0008H
6929   72D0 30                  SIM
6930   72D1 10                  UNRECOGNIZED
6931   72D2 00                  NOP
6932   72D3 04                  INR B
6933   72D4 10                  UNRECOGNIZED
6934   72D5 00                  NOP
6935   72D6 0A                  LDAX B
6936   72D7 10                  UNRECOGNIZED
6937   72D8 00                  NOP
6938   72D9 10                  UNRECOGNIZED
6939   72DA 10                  UNRECOGNIZED
6940   72DB 00                  NOP
6941   72DC 16 10               MVI D,10H
6942   72DE 00                  NOP
6943   72DF 1C                  INR E
6944   72E0 10                  UNRECOGNIZED
6945   72E1 00                  NOP
6946   72E2 22 20 00            SHLD 0020H
6947   72E5 00                  NOP
6948   72E6 20                  RIM
6949   72E7 00                  NOP
6950   72E8 06 20               MVI B,20H
6951   72EA 00                  NOP
6952   72EB 0C                  INR C
6953   72EC 20                  RIM
6954   72ED 00                  NOP
6955   72EE 12                  STAX D
6956   72EF 20                  RIM
6957   72F0 00                  NOP
6958   72F1 18                  UNRECOGNIZED
6959   72F2 20                  RIM
6960   72F3 00                  NOP
6961   72F4 1E 20               MVI E,20H
6962   72F6 00                  NOP
6963   72F7 24                  INR H
6964   72F8 20                  RIM
6965   72F9 00                  NOP
6966   72FA 2A 20 00            LHLD 0020H
6967   72FD 30                  SIM
6968   72FE 40                  MOV B,B
6969   72FF 00                  NOP
6970   7300 04                  INR B
6971   7301 40                  MOV B,B
6972   7302 00                  NOP
6973   7303 0A                  LDAX B
6974   7304 40                  MOV B,B
6975   7305 00                  NOP
6976   7306 10                  UNRECOGNIZED
6977   7307 40                  MOV B,B
6978   7308 00                  NOP
6979   7309 16 40               MVI D,40H
6980   730B 00                  NOP
6981   730C 1C                  INR E
6982   730D 40                  MOV B,B
6983   730E 00                  NOP
6984   730F 22 40 00            SHLD 0040H
6985   7312 28                  UNRECOGNIZED
6986   7313 40                  MOV B,B
6987   7314 00                  NOP
6988   7315 2E 80               MVI L,80H
6989   7317 00                  NOP
6990   7318 02                  STAX B
6991   7319 80                  ADD B
6992   731A 00                  NOP
6993   731B 08                  UNRECOGNIZED
6994   731C 80                  ADD B
6995   731D 00                  NOP
6996   731E 0E 80               MVI C,80H
6997   7320 00                  NOP
6998   7321 14                  INR D
6999   7322 80                  ADD B
7000   7323 00                  NOP
7001   7324 1A                  LDAX D
7002   7325 80                  ADD B
7003   7326 00                  NOP
7004   7327 20                  RIM
7005   7328 80                  ADD B
7006   7329 00                  NOP
7007   732A 26 80               MVI H,80H
7008   732C 00                  NOP
7009   732D 2C                  INR L
7010   732E 00                  NOP
7011   732F 01 00 00            LXI B,0000H
7012   7332 01 06 00            LXI B,0006H
7013   7335 01 0C 00            LXI B,000CH
7014   7338 01 12 00            LXI B,0012H
7015   733B 01 18 00            LXI B,0018H
7016   733E 01 1E 00            LXI B,001EH
7017   7341 01 24 00            LXI B,0024H
7018   7344 01 2A 00            LXI B,002AH
7019   7347 01 30 00            LXI B,0030H
7020   734A 02                  STAX B
7021   734B 04                  INR B
7022   734C 00                  NOP
7023   734D 02                  STAX B
7024   734E 0A                  LDAX B
7025   734F 00                  NOP
7026   7350 02                  STAX B
7027   7351 10                  UNRECOGNIZED
7028   7352 00                  NOP
7029   7353 02                  STAX B
7030   7354 16 00               MVI D,00H
7031   7356 02                  STAX B
7032   7357 1C                  INR E
7033   7358 00                  NOP
7034   7359 02                  STAX B
7035   735A 22 FF 03            SHLD 03FFH
7036   735D 01 00 02            LXI B,0200H
7037   7360 00                  NOP
7038   7361 04                  INR B
7039   7362 00                  NOP
7040   7363 08                  UNRECOGNIZED
7041   7364 00                  NOP
7042   7365 10                  UNRECOGNIZED
7043   7366 00                  NOP
7044   7367 20                  RIM
7045   7368 00                  NOP
7046   7369 40                  MOV B,B
7047   736A 00                  NOP
7048   736B 80                  ADD B
7049   736C 00                  NOP
7050   736D 00                  NOP
7051   736E 01 00 02            LXI B,0200H
7052   7371 0D          L1823:  DCR C
7053   7372 C2 71 73            JNZ L1823
7054   7375 C9                  RET
7055   7376 F3          L1736:  DI
7056   7377 3E 1D               MVI A,1DH
7057   7379 30                  SIM
7058   737A FB                  EI
7059   737B C9                  RET
7060   737C CD 76 73            CALL L1736
7061   737F 06 00               MVI B,00H
7062   7381 CD 90 73    L1862:  CALL L1781
7063   7384 0E 50               MVI C,50H
7064   7386 CD 71 73            CALL L1823
7065   7389 05                  DCR B
7066   738A C2 81 73            JNZ L1862
7067   738D C3 46 71            JMP L1832
7068   7390 DB BA       L1781:  IN 0BAH
7069   7392 EE 20               XRI 20H
7070   7394 D3 BA               OUT 0BAH
7071   7396 C9                  RET
7072   7397 3A 9F FF            LDA 0FF9FH
7073   739A 3C                  INR A
7074   739B C9                  RET
7075   739C 21 9F FF    L0558:  LXI H,0FF9FH
7076   739F DB 82               IN 82H
7077   73A1 E6 07               ANI 07H
7078   73A3 CA A9 73            JZ L1863
7079   73A6 36 00               MVI M,00H
7080   73A8 C9                  RET
7081   73A9 B6          L1863:  ORA M
7082   73AA C0                  RNZ
7083   73AB 36 FF               MVI M,0FFH
7084   73AD 3E C1       L1871:  MVI A,0C1H
7085   73AF D3 83               OUT 83H
7086   73B1 DB 80               IN 80H
7087   73B3 3E 04               MVI A,04H
7088   73B5 D3 81               OUT 81H
7089   73B7 D3 80               OUT 80H
7090   73B9 C9                  RET
7091   73BA CD 9C 73    L1729:  CALL L0558
7092   73BD 37                  STC
7093   73BE C0                  RNZ
7094   73BF 3E 03               MVI A,03H
7095   73C1 32 9E FF            STA 0FF9EH
7096   73C4 AF                  XRA A
7097   73C5 CD F8 73            CALL L1864
7098   73C8 CD 15 74            CALL L1865
7099   73CB 07                  RLC
7100   73CC 07                  RLC
7101   73CD E6 03               ANI 03H
7102   73CF C9                  RET
7103   73D0 3E 03       L1732:  MVI A,03H
7104   73D2 32 9E FF            STA 0FF9EH
7105   73D5 21 25 74            LXI H,7425H
7106   73D8 06 05               MVI B,05H
7107   73DA 7E          L1866:  MOV A,M
7108   73DB CD F8 73            CALL L1864
7109   73DE 23                  INX H
7110   73DF 05                  DCR B
7111   73E0 C2 DA 73            JNZ L1866
7112   73E3 CD 15 74            CALL L1865
7113   73E6 B7                  ORA A
7114   73E7 37                  STC
7115   73E8 C0                  RNZ
7116   73E9 21 00 E0            LXI H,0E000H
7117   73EC CD 15 74    L1867:  CALL L1865
7118   73EF 77                  MOV M,A
7119   73F0 23                  INX H
7120   73F1 05                  DCR B
7121   73F2 C2 EC 73            JNZ L1867
7122   73F5 C3 00 E0            JMP L1868
7123   73F8 F5          L1864:  PUSH PSW
7124   73F9 CD 8F 6F    L1870:  CALL L1414
7125   73FC DA 0E 74            JC L1869
7126   73FF DB 82               IN 82H
7127   7401 07                  RLC
7128   7402 D2 F9 73            JNC L1870
7129   7405 3A 9E FF            LDA 0FF9EH
7130   7408 D3 81               OUT 81H
7131   740A F1                  POP PSW
7132   740B D3 80               OUT 80H
7133   740D C9                  RET
7134   740E F1          L1869:  POP PSW
7135   740F F1          L1872:  POP PSW
7136   7410 CD AD 73            CALL L1871
7137   7413 37                  STC
7138   7414 C9                  RET
7139   7415 CD 8F 6F    L1865:  CALL L1414
7140   7418 DA 0F 74            JC L1872
7141   741B DB 82               IN 82H
7142   741D E6 20               ANI 20H
7143   741F CA 15 74            JZ L1865
7144   7422 DB 80               IN 80H
7145   7424 C9                  RET
7146   7425 02                  STAX B
7147   7426 01 00 00            LXI B,0000H
7148   7429 01 00 00            LXI B,0000H
;7711H -  Start of LCD character generator shape table.  Five bytes per 
;        character for the first 128 characters.  6 bytes per 
;        character for characters 128-255.
; 0X20 - Space
7148   742b 00                  0X00 ; '        '
7149   742C 00                  0X00 ; '        '
7150   742D 00                  0X00 ; '        '
7151   742E 00                  0X00 ; '        '
7152   742F 00                  0X00 ; '        '
; 0X21 - !
7153   7430 00                  0X00 ; '        '
7154   7431 00                  0X00 ; '        '
7155   7432 5F                  0X5F ; ' # #####'
7156   7433 00                  0X00 ; '        '
7157   7434 00                  0X00 ; '        '
; 0X22 - "
7158   7435 00                  0X00 ; '        '
7159   7436 07                  0X07 ; '     ###'
7160   7437 00                  0X00 ; '        '
7161   7438 07                  0X07 ; '     ###'
7162   7439 00                  0X00 ; '        '
; 0X23 - (POUND)
7163   743A 48                  0X48 ; ' #  #   '
7164   743B 3E                  0X3E ; '  ##### '
7164   743c 49                  0X49 ; ' #  #  #'
7165   743D 49                  0X49 ; ' #  #  #'
7166   743E 42                  0X42 ; ' #    # '
; 0X24 - $
7167   743F 24                  0X24 ; '  #  #  '
7168   7440 2A                  0X2A ; '  # # # '
7168   7441 7F                  0X7F ; ' #######'
7168   7442 2A                  0X2A ; '  # # # '
7169   7443 12                  0X12 ; '   #  # '
; 0X25 - %
7170   7444 23                  0X23 ; '  #   ##'
7171   7445 13                  0X13 ; '   #  ##'
7172   7446 08                  0X08 ; '    #   '
7173   7447 64                  0X64 ; ' ##  #  '
7174   7448 62                  0X62 ; ' ##   # '
; 0X26 - &
7175   7449 30                  0X30 ; '  ##    '
7176   744A 4E                  0X4E ; ' #  ### '
7177   744B 51                  0X51 ; ' # #   #'
7178   744C 26                  0X26 ; '  #  ## '
7178   744d 50                  0X50 ; ' # #    '
; 0X27 - '
7179   744E 00                  0X00 ; '        '
7180   744F 04                  0X04 ; '     #  '
7181   7450 02                  0X02 ; '      # '
7182   7451 01                  0X01 ; '       #'
7182   7452 00                  0X00 ; '        '
; 0X28 - (
7182   7453 00                  0X00 ; '        '
7183   7454 1C                  0X1C ; '   ###  '
7184   7455 22                  0X22 ; '  #   # '
7184   7456 41                  0X41 ; ' #     #'
7184   7457 00                  0X00 ; '        '
; 0X29 - )
7185   7458 00                  0X00 ; '        '
7186   7459 41                  0X41 ; ' #     #'
7187   745A 22                  0X22 ; '  #   # '
7187   745b 1C                  0X1C ; '   ###  '
7187   745c 00                  0X00 ; '        '
; 0X2A - *
7188   745D 15                  0X15 ; '   # # #'
7189   745E 0E                  0X0E ; '    ### '
7189   745f 04                  0X04 ; '     #  '
7190   7460 0E                  0X0E ; '    ### '
7190   7461 15                  0X15 ; '   # # #'
; 0X2B - +
7191   7462 10                  0X10 ; '   #    '
7192   7463 10                  0X10 ; '   #    '
7193   7464 7C                  0X7C ; ' #####  '
7194   7465 10                  0X10 ; '   #    '
7195   7466 10                  0X10 ; '   #    '
; 0X2C - ,
7196   7467 00                  0X00 ; '        '
7197   7468 A0                  0XA0 ; '# #     '
7198   7469 60                  0X60 ; ' ##     '
7199   746A 00                  0X00 ; '        '
7200   746B 00                  0X00 ; '        '
; 0X2D - -
7201   746C 10                  0X10 ; '   #    '
7202   746D 10                  0X10 ; '   #    '
7203   746E 10                  0X10 ; '   #    '
7204   746F 10                  0X10 ; '   #    '
7205   7470 10                  0X10 ; '   #    '
; 0X2E - .
7206   7471 00                  0X00 ; '        '
7207   7472 60                  0X60 ; ' ##     '
7208   7473 60                  0X60 ; ' ##     '
7209   7474 00                  0X00 ; '        '
7210   7475 00                  0X00 ; '        '
; 0X2F - /
7211   7476 20                  0X20 ; '  #     '
7212   7477 10                  0X10 ; '   #    '
7213   7478 08                  0X08 ; '    #   '
7214   7479 04                  0X04 ; '     #  '
7215   747A 02                  0X02 ; '      # '
; 0X30 - 0
7216   747B 3E                  0X3E ; '  ##### '
7216   747c 51                  0X51 ; ' # #   #'
7217   747D 49                  0X49 ; ' #  #  #'
7218   747E 45                  0X45 ; ' #   # #'
7219   747F 3E                  0X3E ; '  ##### '
; 1
7219   7480 02                  0X02 ; '      # '
7220   7481 02                  0X02 ; '      # '
7221   7482 7F                  0X7F ; ' #######'
7222   7483 00                  0X00 ; '        '
7223   7484 00                  0X00 ; '        '
; 2
7224   7485 42                  0X42 ; ' #    # '
7225   7486 61                  0X61 ; ' ##    #'
7226   7487 51                  0X51 ; ' # #   #'
7227   7488 49                  0X49 ; ' #  #  #'
7228   7489 46                  0X46 ; ' #   ## '
; 3
7229   748A 20                  0X20 ; '  #     '
7230   748B 41                  0X41 ; ' #     #'
7231   748C 49                  0X49 ; ' #  #  #'
7232   748D 4D                  0X4D ; ' #  ## #'
7233   748E 32                  0X32 ; '  ##  # '
; 4
7233   748f 30                  0X30 ; '  ##    '
7233   7490 28                  0X28 ; '  # #   '
7234   7491 24                  0X24 ; '  #  #  '
7235   7492 73                  0X73 ; ' ###  ##'
7236   7493 20                  0X20 ; '  #     '
; 5
7237   7494 07                  0X07 ; '     ###'
7238   7495 45                  0X45 ; ' #   # #'
7239   7496 45                  0X45 ; ' #   # #'
7240   7497 25                  0X25 ; '  #  # #'
7241   7498 18                  0X18 ; '   ##   '
; 6
7242   7499 3C                  0X3C ; '  ####  '
7243   749A 4A                  0X4A ; ' #  # # '
7244   749B 49                  0X49 ; ' #  #  #'
7245   749C 49                  0X49 ; ' #  #  #'
7246   749D 30                  0X30 ; '  ##    '
; 7
7247   749E 01                  0X01 ; '       #'
7247   749f 61                  0X61 ; ' ##    #'
7247   74a0 11                  0X11 ; '   #   #'
7248   74A1 09                  0X09 ; '    #  #'
7249   74A2 07                  0X07 ; '     ###'
; 8
7250   74A3 36                  0X36 ; '  ## ## '
7250   74a4 49                  0X49 ; ' #  #  #'
7251   74A5 49                  0X49 ; ' #  #  #'
7252   74A6 49                  0X49 ; ' #  #  #'
7253   74A7 36                  0X36 ; '  ## ## '
; 9
7253   74a8 06                  0X06 ; '     ## '
7254   74A9 49                  0X49 ; ' #  #  #'
7255   74AA 49                  0X49 ; ' #  #  #'
7256   74AB 29                  0X29 ; '  # #  #'
7257   74AC 1E                  0X1E ; '   #### '
; :
7257   74ad 00                  0X00 ; '        '
7258   74AE 00                  0X00 ; '        '
7259   74AF 44                  0X44 ; ' #   #  '
7260   74B0 00                  0X00 ; '        '
7261   74B1 00                  0X00 ; '        '
; ;
7262   74B2 00                  0X00 ; '        '
7263   74B3 A0                  0XA0 ; '# #     '
7264   74B4 64                  0X64 ; ' ##  #  '
7265   74B5 00                  0X00 ; '        '
7266   74B6 00                  0X00 ; '        '
; <
7267   74B7 08                  0X08 ; '    #   '
7268   74B8 1C                  0X1C ; '   ###  '
7269   74B9 36                  0X36 ; '  ## ## '
7269   74ba 63                  0X63 ; ' ##   ##'
7270   74BB 41                  0X41 ; ' #     #'
; =
7271   74BC 28                  0X28 ; '  # #   '
7272   74BD 28                  0X28 ; '  # #   '
7273   74BE 28                  0X28 ; '  # #   '
7274   74BF 28                  0X28 ; '  # #   '
7275   74C0 28                  0X28 ; '  # #   '
; >
7276   74C1 41                  0X41 ; ' #     #'
7277   74C2 63                  0X63 ; ' ##   ##'
7278   74C3 36                  0X36 ; '  ## ## '
7278   74c4 1C                  0X1C ; '   ###  '
7279   74C5 08                  0X08 ; '    #   '
; ?
7280   74C6 02                  0X02 ; '      # '
7281   74C7 01                  0X01 ; '       #'
7281   74c8 51                  0X51 ; ' # #   #'
7281   74c9 09                  0X09 ; '    #  #'
7282   74CA 06                  0X06 ; '     ## '
; @
7282   74cb 32                  0X32 ; '  ##  # '
7283   74CC 49                  0X49 ; ' #  #  #'
7284   74CD 79                  0X79 ; ' ####  #'
7285   74CE 41                  0X41 ; ' #     #'
7286   74CF 3E                  0X3E ; '  ##### '
; A
7286   74d0 7C                  0X7C ; ' #####  '
7287   74D1 12                  0X12 ; '   #  # '
7288   74D2 11                  0X11 ; '   #   #'
7288   74d3 12                  0X12 ; '   #  # '
7288   74d4 7C                  0X7C ; ' #####  '
; B
7289   74D5 7F                  0X7F ; ' #######'
7290   74D6 49                  0X49 ; ' #  #  #'
7291   74D7 49                  0X49 ; ' #  #  #'
7292   74D8 49                  0X49 ; ' #  #  #'
7293   74D9 36                  0X36 ; '  ## ## '
; C
7293   74da 3E                  0X3E ; '  ##### '
7294   74DB 41                  0X41 ; ' #     #'
7295   74DC 41                  0X41 ; ' #     #'
7296   74DD 41                  0X41 ; ' #     #'
7297   74DE 42                  0X42 ; ' #    # '
; D
7298   74DF 7F                  0X7F ; ' #######'
7299   74E0 41                  0X41 ; ' #     #'
7300   74E1 41                  0X41 ; ' #     #'
7301   74E2 22                  0X22 ; '  #   # '
7301   74e3 1C                  0X1C ; '   ###  '
; E
7301   74e4 7F                  0X7F ; ' #######'
7302   74E5 49                  0X49 ; ' #  #  #'
7303   74E6 49                  0X49 ; ' #  #  #'
7304   74E7 49                  0X49 ; ' #  #  #'
7305   74E8 41                  0X41 ; ' #     #'
; F
7306   74E9 7F                  0X7F ; ' #######'
7307   74EA 09                  0X09 ; '    #  #'
7308   74EB 09                  0X09 ; '    #  #'
7309   74EC 09                  0X09 ; '    #  #'
7310   74ED 01                  0X01 ; '       #'
; G
7310   74ee 3E                  0X3E ; '  ##### '
7310   74ef 41                  0X41 ; ' #     #'
7311   74F0 49                  0X49 ; ' #  #  #'
7312   74F1 49                  0X49 ; ' #  #  #'
7313   74F2 3A                  0X3A ; '  ### # '
; H
7313   74f3 7F                  0X7F ; ' #######'
7313   74f4 08                  0X08 ; '    #   '
7314   74F5 08                  0X08 ; '    #   '
7315   74F6 08                  0X08 ; '    #   '
7316   74F7 7F                  0X7F ; ' #######'
; I
7317   74F8 00                  0X00 ; '        '
7318   74F9 41                  0X41 ; ' #     #'
7319   74FA 7F                  0X7F ; ' #######'
7320   74FB 41                  0X41 ; ' #     #'
7321   74FC 00                  0X00 ; '        '
; J
7322   74FD 30                  0X30 ; '  ##    '
7323   74FE 40                  0X40 ; ' #      '
7324   74FF 40                  0X40 ; ' #      '
7325   7500 40                  0X40 ; ' #      '
7326   7501 3F                  0X3F ; '  ######'
; K
7327   7502 7F                  0X7F ; ' #######'
7328   7503 08                  0X08 ; '    #   '
7329   7504 14                  0X14 ; '   # #  '
7330   7505 22                  0X22 ; '  #   # '
7330   7506 41                  0X41 ; ' #     #'
; L
7330   7507 7F                  0X7F ; ' #######'
7331   7508 40                  0X40 ; ' #      '
7332   7509 40                  0X40 ; ' #      '
7333   750A 40                  0X40 ; ' #      '
7334   750B 40                  0X40 ; ' #      '
; M
7335   750C 7F                  0X7F ; ' #######'
7336   750D 02                  0X02 ; '      # '
7337   750E 0C                  0X0C ; '    ##  '
7338   750F 02                  0X02 ; '      # '
7339   7510 7F                  0X7F ; ' #######'
; N
7340   7511 7F                  0X7F ; ' #######'
7341   7512 06                  0X06 ; '     ## '
7341   7513 08                  0X08 ; '    #   '
7342   7514 30                  0X30 ; '  ##    '
7343   7515 7F                  0X7F ; ' #######'
; O
7344   7516 3E                  0X3E ; '  ##### '
7344   7517 41                  0X41 ; ' #     #'
7345   7518 41                  0X41 ; ' #     #'
7346   7519 41                  0X41 ; ' #     #'
7347   751A 3E                  0X3E ; '  ##### '
; P
7347   751b 7F                  0X7F ; ' #######'
7348   751C 09                  0X09 ; '    #  #'
7349   751D 09                  0X09 ; '    #  #'
7350   751E 09                  0X09 ; '    #  #'
7351   751F 06                  0X06 ; '     ## '
; Q
7351   7520 3E                  0X3E ; '  ##### '
7352   7521 41                  0X41 ; ' #     #'
7353   7522 51                  0X51 ; ' # #   #'
7354   7523 21                  0X21 ; '  #    #'
7354   7524 5E                  0X5E ; ' # #### '
; R
7354   7525 7F                  0X7F ; ' #######'
7355   7526 09                  0X09 ; '    #  #'
7356   7527 19                  0X19 ; '   ##  #'
7357   7528 29                  0X29 ; '  # #  #'
7358   7529 46                  0X46 ; ' #   ## '
; S
7359   752A 26                  0X26 ; '  #  ## '
7359   752b 49                  0X49 ; ' #  #  #'
7360   752C 49                  0X49 ; ' #  #  #'
7361   752D 49                  0X49 ; ' #  #  #'
7362   752E 32                  0X32 ; '  ##  # '
; T
7362   752f 01                  0X01 ; '       #'
7362   7530 01                  0X01 ; '       #'
7363   7531 7F                  0X7F ; ' #######'
7364   7532 01                  0X01 ; '       #'
7364   7533 01                  0X01 ; '       #'
; U
7364   7534 3F                  0X3F ; '  ######'
7365   7535 40                  0X40 ; ' #      '
7366   7536 40                  0X40 ; ' #      '
7367   7537 40                  0X40 ; ' #      '
7368   7538 3F                  0X3F ; '  ######'
; V
7369   7539 1F                  0X1F ; '   #####'
7370   753A 20                  0X20 ; '  #     '
7371   753B 40                  0X40 ; ' #      '
7372   753C 20                  0X20 ; '  #     '
7373   753D 1F                  0X1F ; '   #####'
; W
7374   753E 3F                  0X3F ; '  ######'
7375   753F 40                  0X40 ; ' #      '
7376   7540 38                  0X38 ; '  ###   '
7377   7541 40                  0X40 ; ' #      '
7378   7542 3F                  0X3F ; '  ######'
; X
7379   7543 63                  0X63 ; ' ##   ##'
7380   7544 14                  0X14 ; '   # #  '
7381   7545 08                  0X08 ; '    #   '
7382   7546 14                  0X14 ; '   # #  '
7383   7547 63                  0X63 ; ' ##   ##'
; Y
7384   7548 07                  0X07 ; '     ###'
7385   7549 08                  0X08 ; '    #   '
7386   754A 70                  0X70 ; ' ###    '
7387   754B 08                  0X08 ; '    #   '
7388   754C 07                  0X07 ; '     ###'
; 90 0X5A Z
7389   754D 61                  0X61 ; ' ##    #'
7390   754E 51                  0X51 ; ' # #   #'
7391   754F 49                  0X49 ; ' #  #  #'
7392   7550 45                  0X45 ; ' #   # #'
7393   7551 43                  0X43 ; ' #    ##'
; [
7394   7552 00                  0X00 ; '        '
7395   7553 FF                  0XFF ; '########'
7396   7554 81                  0X81 ; '#      #'
7397   7555 81                  0X81 ; '#      #'
7398   7556 00                  0X00 ; '        '
; \
7399   7557 02                  0X02 ; '      # '
7400   7558 04                  0X04 ; '     #  '
7401   7559 08                  0X08 ; '    #   '
7402   755A 10                  0X10 ; '   #    '
7403   755B 20                  0X20 ; '  #     '
; ]
7404   755C 00                  0X00 ; '        '
7405   755D 81                  0X81 ; '#      #'
7406   755E 81                  0X81 ; '#      #'
7407   755F FF                  0XFF ; '########'
7408   7560 00                  0X00 ; '        '
; ^
7409   7561 04                  0X04 ; '     #  '
7410   7562 02                  0X02 ; '      # '
7411   7563 01                  0X01 ; '       #'
7411   7564 02                  0X02 ; '      # '
7411   7565 04                  0X04 ; '     #  '
; _
7412   7566 40                  0X40 ; ' #      '
7413   7567 40                  0X40 ; ' #      '
7414   7568 40                  0X40 ; ' #      '
7415   7569 40                  0X40 ; ' #      '
7416   756A 40                  0X40 ; ' #      '
; `
7417   756B 00                  0X00 ; '        '
7418   756C 01                  0X01 ; '       #'
7418   756d 02                  0X02 ; '      # '
7418   756e 04                  0X04 ; '     #  '
7419   756F 00                  0X00 ; '        '
; 97 0X60 a
7420   7570 20                  0X20 ; '  #     '
7421   7571 54                  0X54 ; ' # # #  '
7422   7572 54                  0X54 ; ' # # #  '
7423   7573 54                  0X54 ; ' # # #  '
7424   7574 78                  0X78 ; ' ####   '
; b
7425   7575 7F                  0X7F ; ' #######'
7426   7576 44                  0X44 ; ' #   #  '
7427   7577 44                  0X44 ; ' #   #  '
7428   7578 44                  0X44 ; ' #   #  '
7429   7579 38                  0X38 ; '  ###   '
; c
7430   757A 38                  0X38 ; '  ###   '
7431   757B 44                  0X44 ; ' #   #  '
7432   757C 44                  0X44 ; ' #   #  '
7433   757D 44                  0X44 ; ' #   #  '
7434   757E 48                  0X48 ; ' #  #   '
; d
7435   757F 38                  0X38 ; '  ###   '
7436   7580 44                  0X44 ; ' #   #  '
7437   7581 44                  0X44 ; ' #   #  '
7438   7582 44                  0X44 ; ' #   #  '
7439   7583 7F                  0X7F ; ' #######'
; e
7440   7584 38                  0X38 ; '  ###   '
7441   7585 54                  0X54 ; ' # # #  '
7442   7586 54                  0X54 ; ' # # #  '
7443   7587 54                  0X54 ; ' # # #  '
7444   7588 18                  0X18 ; '   ##   '
; f
7445   7589 08                  0X08 ; '    #   '
7446   758A 08                  0X08 ; '    #   '
7447   758B 7E                  0X7E ; ' ###### '
7448   758C 09                  0X09 ; '    #  #'
7449   758D 09                  0X09 ; '    #  #'
; g
7450   758E 18                  0X18 ; '   ##   '
7451   758F A4                  0XA4 ; '# #  #  '
7452   7590 A4                  0XA4 ; '# #  #  '
7453   7591 A4                  0XA4 ; '# #  #  '
7454   7592 7C                  0X7C ; ' #####  '
; h
7455   7593 7F                  0X7F ; ' #######'
7456   7594 04                  0X04 ; '     #  '
7457   7595 04                  0X04 ; '     #  '
7458   7596 04                  0X04 ; '     #  '
7459   7597 78                  0X78 ; ' ####   '
; i
7460   7598 00                  0X00 ; '        '
7461   7599 04                  0X04 ; '     #  '
7462   759A 7D                  0X7D ; ' ##### #'
7463   759B 00                  0X00 ; '        '
7464   759C 00                  0X00 ; '        '
; j
7465   759D 40                  0X40 ; ' #      '
7466   759E 80                  0X80 ; '#       '
7467   759F 80                  0X80 ; '#       '
7468   75A0 7D                  0X7D ; ' ##### #'
7469   75A1 00                  0X00 ; '        '
; k
7470   75A2 7F                  0X7F ; ' #######'
7471   75A3 10                  0X10 ; '   #    '
7472   75A4 28                  0X28 ; '  # #   '
7473   75A5 44                  0X44 ; ' #   #  '
7474   75A6 44                  0X44 ; ' #   #  '
; l
7475   75A7 00                  0X00 ; '        '
7476   75A8 01                  0X01 ; '       #'
7476   75a9 7F                  0X7F ; ' #######'
7476   75aa 00                  0X00 ; '        '
7477   75AB 00                  0X00 ; '        '
; m
7478   75AC 7C                  0X7C ; ' #####  '
7479   75AD 04                  0X04 ; '     #  '
7480   75AE 7C                  0X7C ; ' #####  '
7481   75AF 04                  0X04 ; '     #  '
7482   75B0 78                  0X78 ; ' ####   '
; n
7483   75B1 7C                  0X7C ; ' #####  '
7484   75B2 04                  0X04 ; '     #  '
7485   75B3 04                  0X04 ; '     #  '
7486   75B4 04                  0X04 ; '     #  '
7487   75B5 78                  0X78 ; ' ####   '
; o
7488   75B6 38                  0X38 ; '  ###   '
7489   75B7 44                  0X44 ; ' #   #  '
7490   75B8 44                  0X44 ; ' #   #  '
7491   75B9 44                  0X44 ; ' #   #  '
7492   75BA 38                  0X38 ; '  ###   '
; p
7493   75BB FC                  0XFC ; '######  '
7493   75bc 24                  0X24 ; '  #  #  '
7493   75bd 24                  0X24 ; '  #  #  '
7494   75BE 24                  0X24 ; '  #  #  '
7495   75BF 18                  0X18 ; '   ##   '
; q
7496   75C0 18                  0X18 ; '   ##   '
7497   75C1 24                  0X24 ; '  #  #  '
7498   75C2 24                  0X24 ; '  #  #  '
7499   75C3 24                  0X24 ; '  #  #  '
7500   75C4 FC                  0XFC ; '######  '
; r
7500   75c5 04                  0X04 ; '     #  '
7500   75c6 7C                  0X7C ; ' #####  '
7501   75C7 04                  0X04 ; '     #  '
7502   75C8 04                  0X04 ; '     #  '
7503   75C9 08                  0X08 ; '    #   '
; s
7504   75CA 48                  0X48 ; ' #  #   '
7505   75CB 54                  0X54 ; ' # # #  '
7506   75CC 54                  0X54 ; ' # # #  '
7507   75CD 54                  0X54 ; ' # # #  '
7508   75CE 20                  0X20 ; '  #     '
; t
7509   75CF 04                  0X04 ; '     #  '
7510   75D0 3F                  0X3F ; '  ######'
7511   75D1 44                  0X44 ; ' #   #  '
7512   75D2 44                  0X44 ; ' #   #  '
7513   75D3 44                  0X44 ; ' #   #  '
; u
7514   75D4 3C                  0X3C ; '  ####  '
7515   75D5 40                  0X40 ; ' #      '
7516   75D6 40                  0X40 ; ' #      '
7517   75D7 20                  0X20 ; '  #     '
7518   75D8 7C                  0X7C ; ' #####  '
; v
7519   75D9 1C                  0X1C ; '   ###  '
7520   75DA 20                  0X20 ; '  #     '
7521   75DB 40                  0X40 ; ' #      '
7522   75DC 20                  0X20 ; '  #     '
7523   75DD 1C                  0X1C ; '   ###  '
; w
7524   75DE 3C                  0X3C ; '  ####  '
7525   75DF 40                  0X40 ; ' #      '
7526   75E0 38                  0X38 ; '  ###   '
7527   75E1 40                  0X40 ; ' #      '
7528   75E2 3C                  0X3C ; '  ####  '
; x
7529   75E3 44                  0X44 ; ' #   #  '
7530   75E4 28                  0X28 ; '  # #   '
7531   75E5 10                  0X10 ; '   #    '
7532   75E6 28                  0X28 ; '  # #   '
7533   75E7 44                  0X44 ; ' #   #  '
; y
7534   75E8 1C                  0X1C ; '   ###  '
7535   75E9 A0                  0XA0 ; '# #     '
7536   75EA A0                  0XA0 ; '# #     '
7537   75EB A0                  0XA0 ; '# #     '
7538   75EC 7C                  0X7C ; ' #####  '
; 122 0X7A z
7539   75ED 44                  0X44 ; ' #   #  '
7540   75EE 64                  0X64 ; ' ##  #  '
7541   75EF 54                  0X54 ; ' # # #  '
7542   75F0 4C                  0X4C ; ' #  ##  '
7543   75F1 44                  0X44 ; ' #   #  '
; 123 0X7B {
7544   75F2 00                  0X00 ; '        '
7545   75F3 08                  0X08 ; '    #   '
7546   75F4 36                  0X36 ; '  ## ## '
7546   75f5 41                  0X41 ; ' #     #'
7547   75F6 41                  0X41 ; ' #     #'
; 124 0X7C |
7548   75F7 00                  0X00 ; '        '
7549   75F8 00                  0X00 ; '        '
7550   75F9 77                  0X77 ; ' ### ###'
7551   75FA 00                  0X00 ; '        '
7552   75FB 00                  0X00 ; '        '
; 125 0X7D }
7553   75FC 41                  0X41 ; ' #     #'
7554   75FD 41                  0X41 ; ' #     #'
7555   75FE 36                  0X36 ; '  ## ## '
7555   75ff 08                  0X08 ; '    #   '
7556   7600 00                  0X00 ; '        '
; 126 0X7E ~
7557   7601 02                  0X02 ; '      # '
7558   7602 01                  0X01 ; '       #'
7558   7603 02                  0X02 ; '      # '
7558   7604 04                  0X04 ; '     #  '
7559   7605 02                  0X02 ; '      # '
; 127 0X7F DEL
7560   7606 00                  0X00 ; '        '
7561   7607 00                  0X00 ; '        '
7562   7608 00                  0X00 ; '        '
7563   7609 00                  0X00 ; '        '
7564   760A 00                  0X00 ; '        '
; Characters 128-255 6 bytes per pattern
; chars 128 - 159; 0X80 - 0X9F blank
; 
7565   760B 3E                  0X3E ; '  ##### '
7565   760c 41                  0X41 ; ' #     #'
7566   760D 81                  0X81 ; '#      #'
7567   760E 41                  0X41 ; ' #     #'
7568   760F 42                  0X42 ; ' #    # '
7569   7610 00                  0X00 ; '        '
;
7570   7611 00                  0X00 ; '        '
7571   7612 01                  0X01 ; '       #'
7571   7613 00                  0X00 ; '        '
7571   7614 01                  0X01 ; '       #'
7572   7615 00                  0X00 ; '        '
7573   7616 00                  0X00 ; '        '
; 160 0XA0
7574   7617 00                  0X00 ; '        '
7575   7618 08                  0X08 ; '    #   '
7576   7619 1C                  0X1C ; '   ###  '
7577   761A 3E                  0X3E ; '  ##### '
7577   761b 00                  0X00 ; '        '
7578   761C 00                  0X00 ; '        '
; 161
7579   761D 71                  0X71 ; ' ###   #'
7580   761E 28                  0X28 ; '  # #   '
7581   761F 24                  0X24 ; '  #  #  '
7582   7620 28                  0X28 ; '  # #   '
7583   7621 71                  0X71 ; ' ###   #'
7584   7622 00                  0X00 ; '        '
; 162
7585   7623 39                  0X39 ; '  ###  #'
7586   7624 44                  0X44 ; ' #   #  '
7587   7625 44                  0X44 ; ' #   #  '
7588   7626 44                  0X44 ; ' #   #  '
7589   7627 39                  0X39 ; '  ###  #'
7590   7628 00                  0X00 ; '        '
; 163
7591   7629 3D                  0X3D ; '  #### #'
7592   762A 40                  0X40 ; ' #      '
7593   762B 40                  0X40 ; ' #      '
7594   762C 40                  0X40 ; ' #      '
7595   762D 3D                  0X3D ; '  #### #'
7596   762E 00                  0X00 ; '        '
; 164
7597   762F 70                  0X70 ; ' ###    '
7598   7630 28                  0X28 ; '  # #   '
7599   7631 25                  0X25 ; '  #  # #'
7600   7632 28                  0X28 ; '  # #   '
7601   7633 70                  0X70 ; ' ###    '
7602   7634 00                  0X00 ; '        '
; 165
7603   7635 7E                  0X7E ; ' ###### '
7604   7636 11                  0X11 ; '   #   #'
7604   7637 7F                  0X7F ; ' #######'
7604   7638 49                  0X49 ; ' #  #  #'
7605   7639 49                  0X49 ; ' #  #  #'
7606   763A 00                  0X00 ; '        '
; 166
7607   763B BC                  0XBC ; '# ####  '
7608   763C 42                  0X42 ; ' #    # '
7609   763D 5A                  0X5A ; ' # ## # '
7610   763E 42                  0X42 ; ' #    # '
7611   763F 3D                  0X3D ; '  #### #'
7612   7640 00                  0X00 ; '        '
; 167
7613   7641 72                  0X72 ; ' ###  # '
7614   7642 29                  0X29 ; '  # #  #'
7615   7643 2A                  0X2A ; '  # # # '
7615   7644 2A                  0X2A ; '  # # # '
7615   7645 71                  0X71 ; ' ###   #'
7616   7646 00                  0X00 ; '        '
; 168
7617   7647 32                  0X32 ; '  ##  # '
7617   7648 49                  0X49 ; ' #  #  #'
7617   7649 4A                  0X4A ; ' #  # # '
7618   764A 4A                  0X4A ; ' #  # # '
7619   764B 31                  0X31 ; '  ##   #'
7619   764c 00                  0X00 ; '        '
; 169
7619   764d 3E                  0X3E ; '  ##### '
7620   764E 41                  0X41 ; ' #     #'
7621   764F 81                  0X81 ; '#      #'
7622   7650 41                  0X41 ; ' #     #'
7623   7651 42                  0X42 ; ' #    # '
7624   7652 00                  0X00 ; '        '
; 170
7625   7653 7A                  0X7A ; ' #### # '
7626   7654 09                  0X09 ; '    #  #'
7627   7655 12                  0X12 ; '   #  # '
7628   7656 22                  0X22 ; '  #   # '
7628   7657 79                  0X79 ; ' ####  #'
7628   7658 00                  0X00 ; '        '
; 171
7629   7659 08                  0X08 ; '    #   '
7630   765A 1C                  0X1C ; '   ###  '
7631   765B 2A                  0X2A ; '  # # # '
7631   765c 08                  0X08 ; '    #   '
7631   765d 08                  0X08 ; '    #   '
7632   765E 00                  0X00 ; '        '
; 172
7633   765F 08                  0X08 ; '    #   '
7634   7660 08                  0X08 ; '    #   '
7635   7661 2A                  0X2A ; '  # # # '
7635   7662 1C                  0X1C ; '   ###  '
7635   7663 08                  0X08 ; '    #   '
7636   7664 00                  0X00 ; '        '
; 173
7637   7665 08                  0X08 ; '    #   '
7638   7666 04                  0X04 ; '     #  '
7639   7667 7E                  0X7E ; ' ###### '
7640   7668 04                  0X04 ; '     #  '
7641   7669 08                  0X08 ; '    #   '
7642   766A 00                  0X00 ; '        '
; 174
7643   766B 10                  0X10 ; '   #    '
7644   766C 20                  0X20 ; '  #     '
7645   766D 7E                  0X7E ; ' ###### '
7646   766E 20                  0X20 ; '  #     '
7647   766F 10                  0X10 ; '   #    '
7648   7670 00                  0X00 ; '        '
; 175
7649   7671 78                  0X78 ; ' ####   '
7650   7672 44                  0X44 ; ' #   #  '
7651   7673 42                  0X42 ; ' #    # '
7652   7674 44                  0X44 ; ' #   #  '
7653   7675 78                  0X78 ; ' ####   '
7654   7676 00                  0X00 ; '        '
; 176
7655   7677 FC                  0XFC ; '######  '
7655   7678 20                  0X20 ; '  #     '
7655   7679 40                  0X40 ; ' #      '
7656   767A 40                  0X40 ; ' #      '
7657   767B 7C                  0X7C ; ' #####  '
7658   767C 00                  0X00 ; '        '
; 177
7659   767D 7F                  0X7F ; ' #######'
7660   767E 01                  0X01 ; '       #'
7660   767f 01                  0X01 ; '       #'
7660   7680 01                  0X01 ; '       #'
7661   7681 7F                  0X7F ; ' #######'
7662   7682 00                  0X00 ; '        '
; 178
7663   7683 41                  0X41 ; ' #     #'
7664   7684 63                  0X63 ; ' ##   ##'
7665   7685 55                  0X55 ; ' # # # #'
7666   7686 49                  0X49 ; ' #  #  #'
7667   7687 41                  0X41 ; ' #     #'
7668   7688 00                  0X00 ; '        '
; 179
7669   7689 5E                  0X5E ; ' # #### '
7670   768A 61                  0X61 ; ' ##    #'
7671   768B 01                  0X01 ; '       #'
7671   768c 61                  0X61 ; ' ##    #'
7671   768d 5E                  0X5E ; ' # #### '
7672   768E 00                  0X00 ; '        '
; 180
7673   768F 10                  0X10 ; '   #    '
7674   7690 20                  0X20 ; '  #     '
7675   7691 7E                  0X7E ; ' ###### '
7676   7692 02                  0X02 ; '      # '
7677   7693 02                  0X02 ; '      # '
7678   7694 00                  0X00 ; '        '
; 181
7679   7695 50                  0X50 ; ' # #    '
7680   7696 58                  0X58 ; ' # ##   '
7681   7697 54                  0X54 ; ' # # #  '
7682   7698 52                  0X52 ; ' # #  # '
7683   7699 51                  0X51 ; ' # #   #'
7684   769A 00                  0X00 ; '        '
; 182
7685   769B 51                  0X51 ; ' # #   #'
7686   769C 52                  0X52 ; ' # #  # '
7687   769D 54                  0X54 ; ' # # #  '
7688   769E 58                  0X58 ; ' # ##   '
7689   769F 50                  0X50 ; ' # #    '
7690   76A0 00                  0X00 ; '        '
; 183
7691   76A1 18                  0X18 ; '   ##   '
7692   76A2 24                  0X24 ; '  #  #  '
7693   76A3 18                  0X18 ; '   ##   '
7694   76A4 24                  0X24 ; '  #  #  '
7695   76A5 18                  0X18 ; '   ##   '
7696   76A6 00                  0X00 ; '        '
; 184
7697   76A7 00                  0X00 ; '        '
7698   76A8 FF                  0XFF ; '########'
7699   76A9 81                  0X81 ; '#      #'
7700   76AA 81                  0X81 ; '#      #'
7701   76AB 00                  0X00 ; '        '
7702   76AC 00                  0X00 ; '        '
; 185
7703   76AD 00                  0X00 ; '        '
7704   76AE 81                  0X81 ; '#      #'
7705   76AF 81                  0X81 ; '#      #'
7706   76B0 FF                  0XFF ; '########'
7707   76B1 00                  0X00 ; '        '
7708   76B2 00                  0X00 ; '        '
; 186
7709   76B3 22                  0X22 ; '  #   # '
7709   76b4 14                  0X14 ; '   # #  '
7709   76b5 08                  0X08 ; '    #   '
7710   76B6 14                  0X14 ; '   # #  '
7711   76B7 22                  0X22 ; '  #   # '
7711   76b8 00                  0X00 ; '        '
; 187
7711   76b9 10                  0X10 ; '   #    '
7712   76BA 10                  0X10 ; '   #    '
7713   76BB 54                  0X54 ; ' # # #  '
7714   76BC 10                  0X10 ; '   #    '
7715   76BD 10                  0X10 ; '   #    '
7716   76BE 00                  0X00 ; '        '
; 188
7717   76BF 00                  0X00 ; '        '
7718   76C0 00                  0X00 ; '        '
7719   76C1 19                  0X19 ; '   ##  #'
7720   76C2 15                  0X15 ; '   # # #'
7721   76C3 12                  0X12 ; '   #  # '
7722   76C4 00                  0X00 ; '        '
; 189
7723   76C5 00                  0X00 ; '        '
7724   76C6 00                  0X00 ; '        '
7725   76C7 15                  0X15 ; '   # # #'
7726   76C8 15                  0X15 ; '   # # #'
7727   76C9 0A                  0X0A ; '    # # '
7728   76CA 00                  0X00 ; '        '
; 190
7729   76CB 00                  0X00 ; '        '
7730   76CC 80                  0X80 ; '#       '
7731   76CD 7E                  0X7E ; ' ###### '
7732   76CE 01                  0X01 ; '       #'
7732   76cf 00                  0X00 ; '        '
7732   76d0 00                  0X00 ; '        '
; 191
7733   76D1 24                  0X24 ; '  #  #  '
7734   76D2 FF                  0XFF ; '########'
7735   76D3 24                  0X24 ; '  #  #  '
7736   76D4 FF                  0XFF ; '########'
7737   76D5 24                  0X24 ; '  #  #  '
7738   76D6 00                  0X00 ; '        '
; 192
7739   76D7 28                  0X28 ; '  # #   '
7740   76D8 68                  0X68 ; ' ## #   '
7741   76D9 38                  0X38 ; '  ###   '
7742   76DA 2C                  0X2C ; '  # ##  '
7743   76DB 28                  0X28 ; '  # #   '
7744   76DC 00                  0X00 ; '        '
; 193
7745   76DD 50                  0X50 ; ' # #    '
7746   76DE 48                  0X48 ; ' #  #   '
7747   76DF 48                  0X48 ; ' #  #   '
7748   76E0 50                  0X50 ; ' # #    '
7749   76E1 48                  0X48 ; ' #  #   '
7750   76E2 00                  0X00 ; '        '
; 194
7751   76E3 44                  0X44 ; ' #   #  '
7752   76E4 44                  0X44 ; ' #   #  '
7753   76E5 5F                  0X5F ; ' # #####'
7754   76E6 44                  0X44 ; ' #   #  '
7755   76E7 44                  0X44 ; ' #   #  '
7756   76E8 00                  0X00 ; '        '
; 195
7757   76E9 0F                  0X0F ; '    ####'
7758   76EA 40                  0X40 ; ' #      '
7759   76EB 60                  0X60 ; ' ##     '
7760   76EC 50                  0X50 ; ' # #    '
7761   76ED E8                  0XE8 ; '### #   '
7762   76EE 00                  0X00 ; '        '
; 196
7763   76EF 0F                  0X0F ; '    ####'
7764   76F0 00                  0X00 ; '        '
7765   76F1 C8                  0XC8 ; '##  #   '
7766   76F2 A8                  0XA8 ; '# # #   '
7767   76F3 90                  0X90 ; '#  #    '
7768   76F4 00                  0X00 ; '        '
; 197
7769   76F5 86                  0X86 ; '#    ## '
7770   76F6 D2                  0XD2 ; '## #  # '
7770   76f7 E2                  0XE2 ; '###   # '
7770   76f8 D2                  0XD2 ; '## #  # '
7771   76F9 86                  0X86 ; '#    ## '
7772   76FA 00                  0X00 ; '        '
; 198
7773   76FB 7C                  0X7C ; ' #####  '
7774   76FC 6A                  0X6A ; ' ## # # '
7775   76FD 5F                  0X5F ; ' # #####'
7776   76FE 6A                  0X6A ; ' ## # # '
7777   76FF 7C                  0X7C ; ' #####  '
7778   7700 00                  0X00 ; '        '
; 199
7779   7701 7F                  0X7F ; ' #######'
7780   7702 41                  0X41 ; ' #     #'
7781   7703 14                  0X14 ; '   # #  '
7782   7704 08                  0X08 ; '    #   '
7783   7705 14                  0X14 ; '   # #  '
7784   7706 00                  0X00 ; '        '
; 200
7785   7707 0C                  0X0C ; '    ##  '
7786   7708 4C                  0X4C ; ' #  ##  '
7787   7709 7F                  0X7F ; ' #######'
7788   770A 4C                  0X4C ; ' #  ##  '
7789   770B 0C                  0X0C ; '    ##  '
7790   770C 00                  0X00 ; '        '
; 201
7791   770D EE                  0XEE ; '### ### '
7791   770e 44                  0X44 ; ' #   #  '
7792   770F FF                  0XFF ; '########'
7793   7710 44                  0X44 ; ' #   #  '
7794   7711 EE                  0XEE ; '### ### '
7794   7712 00                  0X00 ; '        '
; 202
7795   7713 48                  0X48 ; ' #  #   '
7796   7714 3E                  0X3E ; '  ##### '
7796   7715 49                  0X49 ; ' #  #  #'
7797   7716 49                  0X49 ; ' #  #  #'
7798   7717 42                  0X42 ; ' #    # '
7799   7718 00                  0X00 ; '        '
; 203
7800   7719 2B                  0X2B ; '  # # ##'
7801   771A 2C                  0X2C ; '  # ##  '
7802   771B 78                  0X78 ; ' ####   '
7803   771C 2C                  0X2C ; '  # ##  '
7804   771D 2B                  0X2B ; '  # # ##'
7805   771E 00                  0X00 ; '        '
; 204
7806   771F B8                  0XB8 ; '# ###   '
7807   7720 44                  0X44 ; ' #   #  '
7808   7721 54                  0X54 ; ' # # #  '
7809   7722 44                  0X44 ; ' #   #  '
7810   7723 4A                  0X4A ; ' #  # # '
7811   7724 00                  0X00 ; '        '
; 205
7812   7725 5A                  0X5A ; ' # ## # '
7813   7726 24                  0X24 ; '  #  #  '
7814   7727 24                  0X24 ; '  #  #  '
7815   7728 24                  0X24 ; '  #  #  '
7816   7729 5A                  0X5A ; ' # ## # '
7817   772A 00                  0X00 ; '        '
; 206
7818   772B 32                  0X32 ; '  ##  # '
7818   772c 49                  0X49 ; ' #  #  #'
7818   772d 79                  0X79 ; ' ####  #'
7819   772E 41                  0X41 ; ' #     #'
7820   772F 3E                  0X3E ; '  ##### '
7820   7730 00                  0X00 ; '        '
; 207
7821   7731 06                  0X06 ; '     ## '
7821   7732 09                  0X09 ; '    #  #'
7822   7733 09                  0X09 ; '    #  #'
7823   7734 09                  0X09 ; '    #  #'
7824   7735 06                  0X06 ; '     ## '
7824   7736 00                  0X00 ; '        '
; 208
7825   7737 FF                  0XFF ; '########'
7826   7738 81                  0X81 ; '#      #'
7827   7739 81                  0X81 ; '#      #'
7828   773A 81                  0X81 ; '#      #'
7829   773B 81                  0X81 ; '#      #'
7830   773C FF                  0XFF ; '########'
; 209
7831   773D 21                  0X21 ; '  #    #'
7831   773e 54                  0X54 ; ' # # #  '
7831   773f 54                  0X54 ; ' # # #  '
7832   7740 54                  0X54 ; ' # # #  '
7833   7741 79                  0X79 ; ' ####  #'
7834   7742 00                  0X00 ; '        '
; 210
7835   7743 39                  0X39 ; '  ###  #'
7836   7744 44                  0X44 ; ' #   #  '
7837   7745 44                  0X44 ; ' #   #  '
7838   7746 44                  0X44 ; ' #   #  '
7839   7747 39                  0X39 ; '  ###  #'
7840   7748 00                  0X00 ; '        '
; 211
7841   7749 3C                  0X3C ; '  ####  '
7842   774A 41                  0X41 ; ' #     #'
7843   774B 40                  0X40 ; ' #      '
7844   774C 21                  0X21 ; '  #    #'
7844   774d 7C                  0X7C ; ' #####  '
7844   774e 00                  0X00 ; '        '
; 212
7845   774F 20                  0X20 ; '  #     '
7846   7750 54                  0X54 ; ' # # #  '
7847   7751 55                  0X55 ; ' # # # #'
7848   7752 54                  0X54 ; ' # # #  '
7849   7753 78                  0X78 ; ' ####   '
7850   7754 00                  0X00 ; '        '
; 213
7851   7755 74                  0X74 ; ' ### #  '
7852   7756 54                  0X54 ; ' # # #  '
7853   7757 38                  0X38 ; '  ###   '
7854   7758 54                  0X54 ; ' # # #  '
7855   7759 58                  0X58 ; ' # ##   '
7856   775A 00                  0X00 ; '        '
; 214
7857   775B B8                  0XB8 ; '# ###   '
7858   775C 44                  0X44 ; ' #   #  '
7859   775D 54                  0X54 ; ' # # #  '
7860   775E 44                  0X44 ; ' #   #  '
7861   775F 3A                  0X3A ; '  ### # '
7861   7760 00                  0X00 ; '        '
; 215
7861   7761 22                  0X22 ; '  #   # '
7862   7762 51                  0X51 ; ' # #   #'
7863   7763 55                  0X55 ; ' # # # #'
7864   7764 56                  0X56 ; ' # # ## '
7865   7765 79                  0X79 ; ' ####  #'
7866   7766 00                  0X00 ; '        '
; 216
7867   7767 32                  0X32 ; '  ##  # '
7867   7768 49                  0X49 ; ' #  #  #'
7867   7769 49                  0X49 ; ' #  #  #'
7868   776A 4A                  0X4A ; ' #  # # '
7869   776B 31                  0X31 ; '  ##   #'
7869   776c 00                  0X00 ; '        '
; 217
7869   776d 38                  0X38 ; '  ###   '
7870   776E 44                  0X44 ; ' #   #  '
7871   776F 84                  0X84 ; '#    #  '
7872   7770 44                  0X44 ; ' #   #  '
7873   7771 48                  0X48 ; ' #  #   '
7874   7772 00                  0X00 ; '        '
; 218
7875   7773 7A                  0X7A ; ' #### # '
7876   7774 09                  0X09 ; '    #  #'
7877   7775 09                  0X09 ; '    #  #'
7878   7776 0A                  0X0A ; '    # # '
7879   7777 71                  0X71 ; ' ###   #'
7880   7778 00                  0X00 ; '        '
; 219
7881   7779 00                  0X00 ; '        '
7882   777A 00                  0X00 ; '        '
7883   777B FA                  0XFA ; '##### # '
7883   777c 00                  0X00 ; '        '
7883   777d 00                  0X00 ; '        '
7884   777E 00                  0X00 ; '        '
; 220
7885   777F 60                  0X60 ; ' ##     '
7886   7780 90                  0X90 ; '#  #    '
7887   7781 8A                  0X8A ; '#   # # '
7888   7782 80                  0X80 ; '#       '
7889   7783 40                  0X40 ; ' #      '
7890   7784 00                  0X00 ; '        '
; 221
7891   7785 7D                  0X7D ; ' ##### #'
7892   7786 00                  0X00 ; '        '
7893   7787 00                  0X00 ; '        '
7894   7788 80                  0X80 ; '#       '
7895   7789 7D                  0X7D ; ' ##### #'
7896   778A 00                  0X00 ; '        '
; 222
7897   778B 7C                  0X7C ; ' #####  '
7898   778C 02                  0X02 ; '      # '
7899   778D 49                  0X49 ; ' #  #  #'
7900   778E 49                  0X49 ; ' #  #  #'
7901   778F 36                  0X36 ; '  ## ## '
7901   7790 00                  0X00 ; '        '
; 223
7902   7791 21                  0X21 ; '  #    #'
7902   7792 55                  0X55 ; ' # # # #'
7902   7793 54                  0X54 ; ' # # #  '
7903   7794 54                  0X54 ; ' # # #  '
7904   7795 78                  0X78 ; ' ####   '
7905   7796 00                  0X00 ; '        '
; 224
7906   7797 20                  0X20 ; '  #     '
7907   7798 52                  0X52 ; ' # #  # '
7908   7799 55                  0X55 ; ' # # # #'
7909   779A 56                  0X56 ; ' # # ## '
7910   779B 78                  0X78 ; ' ####   '
7911   779C 00                  0X00 ; '        '
; 123 / 225
7912   779D 38                  0X38 ; '  ###   '
7913   779E 54                  0X54 ; ' # # #  '
7914   779F 54                  0X54 ; ' # # #  '
7915   77A0 55                  0X55 ; ' # # # #'
7916   77A1 19                  0X19 ; '   ##  #'
7917   77A2 00                  0X00 ; '        '
; 125 / 226
7918   77A3 39                  0X39 ; '  ###  #'
7919   77A4 55                  0X55 ; ' # # # #'
7920   77A5 54                  0X54 ; ' # # #  '
7921   77A6 54                  0X54 ; ' # # #  '
7922   77A7 18                  0X18 ; '   ##   '
7923   77A8 00                  0X00 ; '        '
; 227
7924   77A9 38                  0X38 ; '  ###   '
7925   77AA 56                  0X56 ; ' # # ## '
7926   77AB 55                  0X55 ; ' # # # #'
7927   77AC 56                  0X56 ; ' # # ## '
7928   77AD 18                  0X18 ; '   ##   '
7929   77AE 00                  0X00 ; '        '
; 228
7930   77AF 39                  0X39 ; '  ###  #'
7931   77B0 54                  0X54 ; ' # # #  '
7932   77B1 54                  0X54 ; ' # # #  '
7933   77B2 54                  0X54 ; ' # # #  '
7934   77B3 19                  0X19 ; '   ##  #'
7935   77B4 00                  0X00 ; '        '
; 229
7936   77B5 01                  0X01 ; '       #'
7936   77b6 05                  0X05 ; '     # #'
7936   77b7 7C                  0X7C ; ' #####  '
7937   77B8 00                  0X00 ; '        '
7938   77B9 00                  0X00 ; '        '
7939   77BA 00                  0X00 ; '        '
; 230
7940   77BB 00                  0X00 ; '        '
7941   77BC 0A                  0X0A ; '    # # '
7942   77BD 79                  0X79 ; ' ####  #'
7943   77BE 02                  0X02 ; '      # '
7944   77BF 00                  0X00 ; '        '
7945   77C0 00                  0X00 ; '        '
; 231
7946   77C1 01                  0X01 ; '       #'
7946   77c2 04                  0X04 ; '     #  '
7946   77c3 7C                  0X7C ; ' #####  '
7947   77C4 00                  0X00 ; '        '
7948   77C5 01                  0X01 ; '       #'
7948   77c6 00                  0X00 ; '        '
; 232
7948   77c7 00                  0X00 ; '        '
7949   77C8 08                  0X08 ; '    #   '
7950   77C9 36                  0X36 ; '  ## ## '
7950   77ca 41                  0X41 ; ' #     #'
7951   77CB 41                  0X41 ; ' #     #'
7952   77CC 00                  0X00 ; '        '
; 233
7953   77CD 41                  0X41 ; ' #     #'
7954   77CE 41                  0X41 ; ' #     #'
7955   77CF 36                  0X36 ; '  ## ## '
7955   77d0 08                  0X08 ; '    #   '
7956   77D1 00                  0X00 ; '        '
7957   77D2 00                  0X00 ; '        '
; 234
7958   77D3 39                  0X39 ; '  ###  #'
7959   77D4 45                  0X45 ; ' #   # #'
7960   77D5 44                  0X44 ; ' #   #  '
7961   77D6 44                  0X44 ; ' #   #  '
7962   77D7 38                  0X38 ; '  ###   '
7963   77D8 00                  0X00 ; '        '
; 235
7964   77D9 30                  0X30 ; '  ##    '
7965   77DA 4A                  0X4A ; ' #  # # '
7966   77DB 49                  0X49 ; ' #  #  #'
7967   77DC 4A                  0X4A ; ' #  # # '
7968   77DD 30                  0X30 ; '  ##    '
7969   77DE 00                  0X00 ; '        '
; 236
7970   77DF 3D                  0X3D ; '  #### #'
7971   77E0 41                  0X41 ; ' #     #'
7972   77E1 40                  0X40 ; ' #      '
7973   77E2 20                  0X20 ; '  #     '
7974   77E3 7C                  0X7C ; ' #####  '
7975   77E4 00                  0X00 ; '        '
; 237
7976   77E5 38                  0X38 ; '  ###   '
7977   77E6 42                  0X42 ; ' #    # '
7978   77E7 41                  0X41 ; ' #     #'
7979   77E8 22                  0X22 ; '  #   # '
7979   77e9 78                  0X78 ; ' ####   '
7979   77ea 00                  0X00 ; '        '
; 238
7980   77EB 18                  0X18 ; '   ##   '
7981   77EC A7                  0XA7 ; '# #  ###'
7982   77ED A5                  0XA5 ; '# #  # #'
7983   77EE E5                  0XE5 ; '###  # #'
7984   77EF 18                  0X18 ; '   ##   '
7985   77F0 00                  0X00 ; '        '
; 239
7986   77F1 00                  0X00 ; '        '
7987   77F2 00                  0X00 ; '        '
7988   77F3 FF                  0XFF ; '########'
7989   77F4 00                  0X00 ; '        '
7990   77F5 00                  0X00 ; '        '
7991   77F6 00                  0X00 ; '        '
; 240
7992   77F7 02                  0X02 ; '      # '
7993   77F8 04                  0X04 ; '     #  '
7994   77F9 08                  0X08 ; '    #   '
7995   77FA 10                  0X10 ; '   #    '
7996   77FB 20                  0X20 ; '  #     '
7997   77FC 00                  0X00 ; '        '
; 241
7998   77FD 4E                  0X4E ; ' #  ### '
7999   77FE 51                  0X51 ; ' # #   #'
8000   77FF 51                  0X51 ; ' # #   #'
8001   7800 51                  0X51 ; ' # #   #'
8002   7801 4E                  0X4E ; ' #  ### '
8003   7802 00                  0X00 ; '        '
; 242
8004   7803 48                  0X48 ; ' #  #   '
8005   7804 55                  0X55 ; ' # # # #'
8006   7805 55                  0X55 ; ' # # # #'
8007   7806 55                  0X55 ; ' # # # #'
8008   7807 5E                  0X5E ; ' # #### '
8009   7808 00                  0X00 ; '        '
; 243
8010   7809 FF                  0XFF ; '########'
8011   780A FF                  0XFF ; '########'
8012   780B FF                  0XFF ; '########'
8013   780C FF                  0XFF ; '########'
8014   780D FF                  0XFF ; '########'
8015   780E FF                  0XFF ; '########'
; 244
8016   780F 55                  0X55 ; ' # # # #'
8017   7810 AA                  0XAA ; '# # # # '
8018   7811 55                  0X55 ; ' # # # #'
8019   7812 AA                  0XAA ; '# # # # '
8020   7813 55                  0X55 ; ' # # # #'
8021   7814 AA                  0XAA ; '# # # # '
; 245
8022   7815 FF                  0XFF ; '########'
8023   7816 01                  0X01 ; '       #'
8023   7817 01                  0X01 ; '       #'
8023   7818 01                  0X01 ; '       #'
8024   7819 01                  0X01 ; '       #'
8024   781a 01                  0X01 ; '       #'
; 246
8024   781b 01                  0X01 ; '       #'
8025   781C 01                  0X01 ; '       #'
8025   781d 01                  0X01 ; '       #'
8025   781e 01                  0X01 ; '       #'
8026   781F 01                  0X01 ; '       #'
8026   7820 FF                  0XFF ; '########'
; 247
8026   7821 FF                  0XFF ; '########'
8027   7822 80                  0X80 ; '#       '
8028   7823 80                  0X80 ; '#       '
8029   7824 80                  0X80 ; '#       '
8030   7825 80                  0X80 ; '#       '
8031   7826 80                  0X80 ; '#       '
; 248
8032   7827 80                  0X80 ; '#       '
8033   7828 80                  0X80 ; '#       '
8034   7829 80                  0X80 ; '#       '
8035   782A 80                  0X80 ; '#       '
8036   782B 80                  0X80 ; '#       '
8037   782C FF                  0XFF ; '########'
; 249
8038   782D FF                  0XFF ; '########'
8039   782E 00                  0X00 ; '        '
8040   782F 00                  0X00 ; '        '
8041   7830 00                  0X00 ; '        '
8042   7831 00                  0X00 ; '        '
8043   7832 00                  0X00 ; '        '
; 250
8044   7833 01                  0X01 ; '       #'
8044   7834 01                  0X01 ; '       #'
8044   7835 01                  0X01 ; '       #'
8045   7836 01                  0X01 ; '       #'
8045   7837 01                  0X01 ; '       #'
8045   7838 01                  0X01 ; '       #'
; 251
8046   7839 00                  0X00 ; '        '
8047   783A 00                  0X00 ; '        '
8048   783B 00                  0X00 ; '        '
8049   783C 00                  0X00 ; '        '
8050   783D 00                  0X00 ; '        '
8051   783E FF                  0XFF ; '########'
; 252
8052   783F 80                  0X80 ; '#       '
8053   7840 80                  0X80 ; '#       '
8054   7841 80                  0X80 ; '#       '
8055   7842 80                  0X80 ; '#       '
8056   7843 80                  0X80 ; '#       '
8057   7844 80                  0X80 ; '#       '
; 253
8058   7845 FF                  0XFF ; '########'
8059   7846 01                  0X01 ; '       #'
8059   7847 01                  0X01 ; '       #'
8059   7848 01                  0X01 ; '       #'
8060   7849 01                  0X01 ; '       #'
8060   784a FF                  0XFF ; '########'
; 254 0XFE
8060   784b FF                  0XFF ; '########'
8061   784C 80                  0X80 ; '#       '
8062   784D 80                  0X80 ; '#       '
8063   784E 80                  0X80 ; '#       '
8064   784F 80                  0X80 ; '#       '
8065   7850 FF                  0XFF ; '########'
; 255 0XFF
8066   7851 00                  0X00 ; '        '
8067   7852 00                  0X00 ; '        '
8068   7853 00                  0X00 ; '        '
8069   7854 00                  0X00 ; '        '
8070   7855 00                  0X00 ; '        '
8071   7856 00                  0X00 ; '        '
;7BF0H -  End of LCD character generator shape table.
;7BF1H -  Start of keyboard conversion matrix.
; Column PA0 bit 0 to 7
8101   787F 71                  0X71 ; 'q'
8102   7880 77                  0X77 ; 'w'
8103   7881 5B                  0X5B ; '['
8104   7882 31                  0X31 ; '1'
8104   7883 32                  0X32 ; '2'
8104   7884 33                  0X33 ; '3'
8105   7885 34                  0X34 ; '4'
8106   7886 35                  0X35 ; '5'
; Column PA1 bit 0 to 7
8107   7887 79                  0X79 ; 'y'
8108   7888 36                  0X36 ; '6'
8108   7889 37                  0X37 ; '7'
8109   788A 38                  0X38 ; '8'
8110   788B 39                  0X39 ; '9'
8111   788C 30                  0X30 ; '0'
8112   788D 2D                  0X2D ; '-'
8113   788E 5E                  0X5E ; '^'
; Column PA2 bit 0 to 7
8114   788F 5D                  0X5D ; ']'
8115   7890 40                  0X40 ; '@'
8116   7891 3B                  0X3B ; ';'
8117   7892 3A                  0X3A ; ':'
8117   7893 2F                  0X2F ; '/'
8117   7894 2E                  0X2E ; '.'
8118   7895 2C                  0X2C ; ','
8119   7896 6D                  0X6D ; 'm'
; Column PA3 bit 0 to 7
8120   7897 61                  0X61 ; 'a'
8121   7898 5C                  0X5C ; '\'
8122   7899 7A                  0X7A ; 'z'
8123   789A 51                  0X51 ; 'Q'
8124   789B 57                  0X57 ; 'W'
8125   789C 7B                  0X7B ; '{'
8126   789D 21                  0X21 ; '!'
8126   789E 22                  0X22 ; '"'
; Column PA4 bit 0 to 7
8126   789F 23                  0X23 ; '#'
8127   78A0 24                  0X24 ; '$'
8128   78A1 25                  0X25 ; '%'
8129   78A2 59                  0X59 ; 'Y'
8130   78A3 26                  0X26 ; '&'
8130   78A4 27                  0X27 ; '''
8131   78A5 28                  0X28 ; '('
8132   78A6 29                  0X29 ; ')'
; Column PA5 bit 0 to 7
8133   78A7 5F                  0X5F ; '_'
8134   78A8 3D                  0X3D ; '='
8135   78A9 7E                  0X7E ; '~'
8136   78AA 7D                  0X7D ; '}'
8137   78AB 60                  0X60 ; '`'
8138   78AC 2B                  0X2B ; '+'
8139   78AD 2A                  0X2A ; '*'
8139   78AE 3F                  0X3F ; '?'
8139   78AF 3E                  0X3E ; '>'
8140   78B0 3C                  0X3C ; '<'
8141   78B1 4D                  0X4D ; 'M'
8142   78B2 41                  0X41 ; 'A'
8143   78B3 7C                  0X7C ; '|'
8144   78B4 5A                  0X5A ; 'Z'
8145   78B5 71                  0X71 ; 'q'
8146   78B6 77                  0X77 ; 'w'
8147   78B7 2B                  0X2B ; '+'
8148   78B8 31                  0X31 ; '1'
8148   78b9 32                  0X32 ; '2'
8148   78ba 33                  0X33 ; '3'
8148   78B9 32                  0X32 ; '2'
8148   78ba 33                  0X33 ; '3'
8148   78BA 33                  0X33 ; '3'
8149   78BB 34                  0X34 ; '4'
8150   78BC 35                  0X35 ; '5'
8151   78BD 7A                  0X7A ; 'z'
8152   78BE 36                  0X36 ; '6'
8152   78bf 37                  0X37 ; '7'
8152   78BF 37                  0X37 ; '7'
8153   78C0 38                  0X38 ; '8'
8154   78C1 39                  0X39 ; '9'
8155   78C2 30                  0X30 ; '0'
8156   78C3 7E                  0X7E ; '~'
8157   78C4 27                  0X27 ; '''
8158   78C5 23                  0X23 ; '#'
8159   78C6 7D                  0X7D ; '}'
8160   78C7 7C                  0X7C ; '|'
8161   78C8 7B                  0X7B ; '{'
8162   78C9 2D                  0X2D ; '-'
8163   78CA 2E                  0X2E ; '.'
8163   78cb 2C                  0X2C ; ','
8163   78CB 2C                  0X2C ; ','
8164   78CC 6D                  0X6D ; 'm'
8165   78CD 61                  0X61 ; 'a'
8166   78CE 3C                  0X3C ; '<'
8167   78CF 79                  0X79 ; 'y'
8168   78D0 51                  0X51 ; 'Q'
8169   78D1 57                  0X57 ; 'W'
8170   78D2 2A                  0X2A ; '*'
8170   78d3 21                  0X21 ; '!'
8170   78d4 22                  0X22 ; '"'
8170   78D3 21                  0X21 ; '!'
8170   78d4 22                  0X22 ; '"'
8170   78D4 22                  0X22 ; '"'
8171   78D5 40                  0X40 ; '@'
8172   78D6 24                  0X24 ; '$'
8173   78D7 25                  0X25 ; '%'
8174   78D8 5A                  0X5A ; 'Z'
8175   78D9 26                  0X26 ; '&'
8175   78da 2F                  0X2F ; '/'
8175   78DA 2F                  0X2F ; '/'
8176   78DB 28                  0X28 ; '('
8177   78DC 29                  0X29 ; ')'
8178   78DD 3D                  0X3D ; '='
8179   78DE 3F                  0X3F ; '?'
8180   78DF 60                  0X60 ; '`'
8181   78E0 5E                  0X5E ; '^'
8182   78E1 5D                  0X5D ; ']'
8183   78E2 5C                  0X5C ; '\'
8184   78E3 5B                  0X5B ; '['
8185   78E4 5F                  0X5F ; '_'
8186   78E5 3A                  0X3A ; ':'
8186   78e6 3B                  0X3B ; ';'
8186   78e7 4D                  0X4D ; 'M'
8186   78E6 3B                  0X3B ; ';'
8186   78e7 4D                  0X4D ; 'M'
8186   78E7 4D                  0X4D ; 'M'
8187   78E8 41                  0X41 ; 'A'
8188   78E9 3E                  0X3E ; '>'
8188   78ea 59                  0X59 ; 'Y'
8188   78EA 59                  0X59 ; 'Y'
8189   78EB 71                  0X71 ; 'q'
8190   78EC 7A                  0X7A ; 'z'
8191   78ED 24                  0X24 ; '$'
8192   78EE 23                  0X23 ; '#'
8193   78EF 5D                  0X5D ; ']'
8194   78F0 22                  0X22 ; '"'
8194   78f1 27                  0X27 ; '''
8194   78f2 28                  0X28 ; '('
8194   78F1 27                  0X27 ; '''
8194   78f2 28                  0X28 ; '('
8194   78F2 28                  0X28 ; '('
8195   78F3 79                  0X79 ; 'y'
8196   78F4 5F                  0X5F ; '_'
8197   78F5 7D                  0X7D ; '}'
8198   78F6 5E                  0X5E ; '^'
8199   78F7 5C                  0X5C ; '\'
8200   78F8 7B                  0X7B ; '{'
8201   78F9 29                  0X29 ; ')'
8202   78FA 2D                  0X2D ; '-'
8203   78FB 2A                  0X2A ; '*'
8203   78fc 7E                  0X7E ; '~'
8203   78fd 6D                  0X6D ; 'm'
8203   78FC 7E                  0X7E ; '~'
8203   78fd 6D                  0X6D ; 'm'
8203   78FD 6D                  0X6D ; 'm'
8204   78FE 60                  0X60 ; '`'
8205   78FF 7C                  0X7C ; '|'
8206   7900 3A                  0X3A ; ':'
8206   7901 3B                  0X3B ; ';'
8206   7902 2C                  0X2C ; ','
8206   7901 3B                  0X3B ; ';'
8206   7902 2C                  0X2C ; ','
8206   7902 2C                  0X2C ; ','
8207   7903 61                  0X61 ; 'a'
8208   7904 3C                  0X3C ; '<'
8209   7905 77                  0X77 ; 'w'
8210   7906 51                  0X51 ; 'Q'
8211   7907 5A                  0X5A ; 'Z'
8212   7908 26                  0X26 ; '&'
8212   7909 31                  0X31 ; '1'
8212   7909 31                  0X31 ; '1'
8213   790A 32                  0X32 ; '2'
8213   790b 33                  0X33 ; '3'
8213   790c 34                  0X34 ; '4'
8213   790B 33                  0X33 ; '3'
8213   790c 34                  0X34 ; '4'
8213   790C 34                  0X34 ; '4'
8214   790D 35                  0X35 ; '5'
8215   790E 59                  0X59 ; 'Y'
8216   790F 36                  0X36 ; '6'
8216   7910 37                  0X37 ; '7'
8216   7910 37                  0X37 ; '7'
8217   7911 38                  0X38 ; '8'
8218   7912 39                  0X39 ; '9'
8219   7913 30                  0X30 ; '0'
8220   7914 5B                  0X5B ; '['
8221   7915 2B                  0X2B ; '+'
8222   7916 40                  0X40 ; '@'
8223   7917 3D                  0X3D ; '='
8224   7918 4D                  0X4D ; 'M'
8225   7919 25                  0X25 ; '%'
8226   791A 21                  0X21 ; '!'
8226   791b 2F                  0X2F ; '/'
8226   791c 2E                  0X2E ; '.'
8226   791B 2F                  0X2F ; '/'
8226   791c 2E                  0X2E ; '.'
8226   791C 2E                  0X2E ; '.'
8227   791D 3F                  0X3F ; '?'
8228   791E 41                  0X41 ; 'A'
8229   791F 3E                  0X3E ; '>'
8229   7920 57                  0X57 ; 'W'
8229   7920 57                  0X57 ; 'W'
8230   7921 61                  0X61 ; 'a'
8231   7922 7A                  0X7A ; 'z'
8232   7923 24                  0X24 ; '$'
8233   7924 23                  0X23 ; '#'
8234   7925 7B                  0X7B ; '{'
8235   7926 22                  0X22 ; '"'
8235   7927 27                  0X27 ; '''
8235   7928 28                  0X28 ; '('
8235   7927 27                  0X27 ; '''
8235   7928 28                  0X28 ; '('
8235   7928 28                  0X28 ; '('
8236   7929 79                  0X79 ; 'y'
8237   792A 2D                  0X2D ; '-'
8238   792B 7D                  0X7D ; '}'
8239   792C 5F                  0X5F ; '_'
8240   792D 5C                  0X5C ; '\'
8241   792E 40                  0X40 ; '@'
8242   792F 29                  0X29 ; ')'
8243   7930 3D                  0X3D ; '='
8244   7931 60                  0X60 ; '`'
8245   7932 5E                  0X5E ; '^'
8246   7933 6D                  0X6D ; 'm'
8247   7934 7C                  0X7C ; '|'
8248   7935 21                  0X21 ; '!'
8248   7936 3A                  0X3A ; ':'
8248   7937 3B                  0X3B ; ';'
8248   7936 3A                  0X3A ; ':'
8248   7937 3B                  0X3B ; ';'
8248   7937 3B                  0X3B ; ';'
8249   7938 2C                  0X2C ; ','
8250   7939 71                  0X71 ; 'q'
8251   793A 3C                  0X3C ; '<'
8252   793B 77                  0X77 ; 'w'
8253   793C 41                  0X41 ; 'A'
8254   793D 5A                  0X5A ; 'Z'
8255   793E 2A                  0X2A ; '*'
8255   793f 31                  0X31 ; '1'
8255   7940 32                  0X32 ; '2'
8255   793F 31                  0X31 ; '1'
8255   7940 32                  0X32 ; '2'
8255   7940 32                  0X32 ; '2'
8256   7941 33                  0X33 ; '3'
8257   7942 34                  0X34 ; '4'
8258   7943 35                  0X35 ; '5'
8259   7944 59                  0X59 ; 'Y'
8260   7945 36                  0X36 ; '6'
8260   7946 37                  0X37 ; '7'
8260   7946 37                  0X37 ; '7'
8261   7947 38                  0X38 ; '8'
8262   7948 39                  0X39 ; '9'
8263   7949 30                  0X30 ; '0'
8264   794A 5B                  0X5B ; '['
8265   794B 2B                  0X2B ; '+'
8266   794C 26                  0X26 ; '&'
8266   794d 7E                  0X7E ; '~'
8266   794D 7E                  0X7E ; '~'
8267   794E 4D                  0X4D ; 'M'
8268   794F 25                  0X25 ; '%'
8269   7950 5D                  0X5D ; ']'
8270   7951 2F                  0X2F ; '/'
8271   7952 2E                  0X2E ; '.'
8271   7953 3F                  0X3F ; '?'
8271   7953 3F                  0X3F ; '?'
8272   7954 51                  0X51 ; 'Q'
8273   7955 3E                  0X3E ; '>'
8273   7956 57                  0X57 ; 'W'
8273   7956 57                  0X57 ; 'W'
; Column PA0 bit 0 to 7
8274   7957 78                  0X78 ; 'x'
8275   7958 63                  0X63 ; 'c'
8276   7959 76                  0X76 ; 'v'
8277   795A 62                  0X62 ; 'b'
8278   795B 6E                  0X6E ; 'n'
8279   795C 73                  0X73 ; 's'
8280   795D 64                  0X64 ; 'd'
8281   795E 66                  0X66 ; 'f'
; Column PA1 bit 0 to 7
8282   795F 67                  0X67 ; 'g'
8283   7960 68                  0X68 ; 'h'
8284   7961 6A                  0X6A ; 'j'
8285   7962 6B                  0X6B ; 'k'
8286   7963 6C                  0X6C ; 'l'
8287   7964 65                  0X65 ; 'e'
8288   7965 72                  0X72 ; 'r'
8289   7966 74                  0X74 ; 't'
; Column PA2 bit 0 to 7
8290   7967 75                  0X75 ; 'u'
8291   7968 69                  0X69 ; 'i'
8292   7969 6F                  0X6F ; 'o'
8293   796A 70                  0X70 ; 'p'
8294   796B 20                  0X20 ; ' '
8295   796C 1D                  0X1D ; ''
8296   796D 1C                  0X1C ; ''
8297   796E 1E                  0X1E ; ''
; Column PA3 bit 0 to 7
8297   796F 1F                  0X1F ; ''
8298   7970 08                  0X08 ; ''
8299   7971 09                  0X09 ; '	'
8300   7972 0D                  0X0D ; '
'
8301   7973 8B                  0X8B ; '?'
8302   7974 80                  0X80 ; '?'
8303   7975 81                  0X81 ; '?'
8304   7976 82                  0X82 ; '?'
; Column PA4 bit 0 to 7
8305   7977 83                  0X83 ; '?'
8306   7978 84                  0X84 ; '?'
8307   7979 85                  0X85 ; '?'
8308   797A 86                  0X86 ; '?'
8309   797B 87                  0X87 ; '?'
8310   797C 88                  0X88 ; '?'
8311   797D 89                  0X89 ; '?'
8312   797E 1B                  0X1B ; ''
; Column PA5 bit 0 to 7
8313   797F 00                  0X00 ; ' '
8314   7980 00                  0X00 ; ' '
8315   7981 00                  0X00 ; ' '
8316   7982 11                  0X11 ; ''
8316   7983 12                  0X12 ; ''
8316   7984 17                  0X17 ; ''
8317   7985 1A                  0X1A ; ''
8318   7986 58                  0X58 ; 'X'
8319   7987 43                  0X43 ; 'C'
8320   7988 56                  0X56 ; 'V'
8321   7989 42                  0X42 ; 'B'
8322   798A 4E                  0X4E ; 'N'
8323   798B 53                  0X53 ; 'S'
8324   798C 44                  0X44 ; 'D'
8325   798D 46                  0X46 ; 'F'
8326   798E 47                  0X47 ; 'G'
8327   798F 48                  0X48 ; 'H'
8328   7990 4A                  0X4A ; 'J'
8329   7991 4B                  0X4B ; 'K'
8330   7992 4C                  0X4C ; 'L'
8331   7993 45                  0X45 ; 'E'
8332   7994 52                  0X52 ; 'R'
8333   7995 54                  0X54 ; 'T'
8334   7996 55                  0X55 ; 'U'
8335   7997 49                  0X49 ; 'I'
8336   7998 4F                  0X4F ; 'O'
8337   7999 50                  0X50 ; 'P'
8338   799A 20                  0X20 ; ' '
8339   799B 01                  0X01 ; ''
8339   799c 06                  0X06 ; ''
8339   799d 14                  0X14 ; ''
8339   799C 06                  0X06 ; ''
8339   799d 14                  0X14 ; ''
8339   799D 14                  0X14 ; ''
8340   799E 02                  0X02 ; ''
8341   799F 7F                  0X7F ; ''
8342   79A0 09                  0X09 ; '	'
8343   79A1 0D                  0X0D ; '
'
8344   79A2 8B                  0X8B ; '?'
8345   79A3 80                  0X80 ; '?'
8346   79A4 81                  0X81 ; '?'
8347   79A5 82                  0X82 ; '?'
8348   79A6 83                  0X83 ; '?'
8349   79A7 84                  0X84 ; '?'
8350   79A8 85                  0X85 ; '?'
8351   79A9 86                  0X86 ; '?'
8352   79AA 87                  0X87 ; '?'
8353   79AB 88                  0X88 ; '?'
8354   79AC 8A                  0X8A ; '?'
8355   79AD 15                  0X15 ; ''
8356   79AE 2E                  0X2E ; '.'
8356   79af 16                  0X16 ; ''
8356   79AF 16                  0X16 ; ''
8357   79B0 2C                  0X2C ; ','
8358   79B1 17                  0X17 ; ''
8359   79B2 30                  0X30 ; '0'
8360   79B3 25                  0X25 ; '%'
8361   79B4 31                  0X31 ; '1'
8361   79b5 26                  0X26 ; '&'
8361   79b6 32                  0X32 ; '2'
8361   79B5 26                  0X26 ; '&'
8361   79b6 32                  0X32 ; '2'
8361   79B6 32                  0X32 ; '2'
8362   79B7 27                  0X27 ; '''
8363   79B8 33                  0X33 ; '3'
8364   79B9 2B                  0X2B ; '+'
8365   79BA 34                  0X34 ; '4'
8366   79BB 2C                  0X2C ; ','
8367   79BC 35                  0X35 ; '5'
8368   79BD 2D                  0X2D ; '-'
8369   79BE 36                  0X36 ; '6'
8369   79bf 0A                  0X0A ; '
'
8369   79BF 0A                  0X0A ; '
'
8370   79C0 37                  0X37 ; '7'
8371   79C1 0B                  0X0B ; ''
8372   79C2 38                  0X38 ; '8'
8373   79C3 0C                  0X0C ; ''
8374   79C4 39                  0X39 ; '9'
8375   79C5 DF                  0XDF ; '?'
8376   79C6 E0                  0XE0 ; '?'
8377   79C7 D1                  0XD1 ; '?'
8378   79C8 D2                  0XD2 ; '?'
8378   79c9 D3                  0XD3 ; '?'
8378   79ca D4                  0XD4 ; '?'
8378   79C9 D3                  0XD3 ; '?'
8378   79ca D4                  0XD4 ; '?'
8378   79CA D4                  0XD4 ; '?'
8379   79CB D5                  0XD5 ; '?'
8380   79CC D6                  0XD6 ; '?'
8380   79cd E4                  0XE4 ; '?'
8380   79CD E4                  0XE4 ; '?'
8381   79CE D7                  0XD7 ; '?'
8382   79CF D8                  0XD8 ; '?'
8383   79D0 D9                  0XD9 ; '?'
8384   79D1 DA                  0XDA ; '?'
8384   79d2 DB                  0XDB ; '?'
8384   79d3 DC                  0XDC ; '?'
8384   79D2 DB                  0XDB ; '?'
8384   79d3 DC                  0XDC ; '?'
8384   79D3 DC                  0XDC ; '?'
8385   79D4 DD                  0XDD ; '?'
8386   79D5 DE                  0XDE ; '?'
8386   79d6 E9                  0XE9 ; '?'
8386   79D6 E9                  0XE9 ; '?'
8387   79D7 F3                  0XF3 ; '?'
8388   79D8 F4                  0XF4 ; '?'
8388   79d9 D0                  0XD0 ; '?'
8388   79da FE                  0XFE ; '?'
8388   79D9 D0                  0XD0 ; '?'
8388   79da FE                  0XFE ; '?'
8388   79DA FE                  0XFE ; '?'
8389   79DB FD                  0XFD ; '?'
8390   79DC FC                  0XFC ; '?'
8390   79dd EA                  0XEA ; '?'
8390   79de F5                  0XF5 ; '?'
8390   79DD EA                  0XEA ; '?'
8390   79de F5                  0XF5 ; '?'
8390   79DE F5                  0XF5 ; '?'
8391   79DF F6                  0XF6 ; '?'
8391   79e0 F7                  0XF7 ; '?'
8391   79E0 F7                  0XF7 ; '?'
8392   79E1 F8                  0XF8 ; '?'
8393   79E2 F9                  0XF9 ; '?'
8394   79E3 FA                  0XFA ; '?'
8394   79e4 FB                  0XFB ; '?'
8394   79e5 EB                  0XEB ; '?'
8394   79E4 FB                  0XFB ; '?'
8394   79e5 EB                  0XEB ; '?'
8394   79E5 EB                  0XEB ; '?'
8395   79E6 EC                  0XEC ; '?'
8395   79e7 ED                  0XED ; '?'
8395   79e8 EE                  0XEE ; '?'
8395   79E7 ED                  0XED ; '?'
8395   79e8 EE                  0XEE ; '?'
8395   79E8 EE                  0XEE ; '?'
8396   79E9 EF                  0XEF ; '?'
8397   79EA F0                  0XF0 ; '?'
8398   79EB F1                  0XF1 ; '?'
8399   79EC F2                  0XF2 ; '?'
8399   79ed E1                  0XE1 ; '?'
8399   79ee E2                  0XE2 ; '?'
8399   79ED E1                  0XE1 ; '?'
8399   79ee E2                  0XE2 ; '?'
8399   79EE E2                  0XE2 ; '?'
8400   79EF E3                  0XE3 ; '?'
8401   79F0 E5                  0XE5 ; '?'
8402   79F1 E6                  0XE6 ; '?'
8402   79f2 E7                  0XE7 ; '?'
8402   79F2 E7                  0XE7 ; '?'
8403   79F3 E8                  0XE8 ; '?'
8404   79F4 AF                  0XAF ; '?'
8405   79F5 B0                  0XB0 ; '?'
8406   79F6 A1                  0XA1 ; '?'
8407   79F7 A2                  0XA2 ; '?'
8408   79F8 A3                  0XA3 ; '?'
8409   79F9 A4                  0XA4 ; '?'
8410   79FA A5                  0XA5 ; '?'
8411   79FB A6                  0XA6 ; '?'
8412   79FC B4                  0XB4 ; '?'
8413   79FD A7                  0XA7 ; '?'
8414   79FE A8                  0XA8 ; '?'
8415   79FF A9                  0XA9 ; '?'
8416   7A00 AA                  0XAA ; '?'
8417   7A01 AB                  0XAB ; '?'
8418   7A02 AC                  0XAC ; '?'
8419   7A03 AD                  0XAD ; '?'
8420   7A04 AE                  0XAE ; '?'
8421   7A05 B9                  0XB9 ; '?'
8422   7A06 C3                  0XC3 ; '?'
8422   7a07 C4                  0XC4 ; '?'
8422   7a08 CF                  0XCF ; '?'
8422   7A07 C4                  0XC4 ; '?'
8422   7a08 CF                  0XCF ; '?'
8422   7A08 CF                  0XCF ; '?'
8423   7A09 CE                  0XCE ; '?'
8423   7a0a CD                  0XCD ; '?'
8423   7A0A CD                  0XCD ; '?'
8424   7A0B CC                  0XCC ; '?'
8424   7a0c BA                  0XBA ; '?'
8424   7a0d C5                  0XC5 ; '?'
8424   7A0C BA                  0XBA ; '?'
8424   7a0d C5                  0XC5 ; '?'
8424   7A0D C5                  0XC5 ; '?'
8425   7A0E C6                  0XC6 ; '?'
8425   7a0f C7                  0XC7 ; '?'
8425   7A0F C7                  0XC7 ; '?'
8426   7A10 C8                  0XC8 ; '?'
8427   7A11 C9                  0XC9 ; '?'
8428   7A12 CA                  0XCA ; '?'
8428   7a13 CB                  0XCB ; '?'
8428   7a14 BB                  0XBB ; '?'
8428   7A13 CB                  0XCB ; '?'
8428   7a14 BB                  0XBB ; '?'
8428   7A14 BB                  0XBB ; '?'
8429   7A15 BC                  0XBC ; '?'
8430   7A16 BD                  0XBD ; '?'
8431   7A17 BE                  0XBE ; '?'
8432   7A18 BF                  0XBF ; '?'
8433   7A19 C0                  0XC0 ; '?'
8434   7A1A C1                  0XC1 ; '?'
8435   7A1B C2                  0XC2 ; '?'
8435   7a1c B1                  0XB1 ; '?'
8435   7a1d B2                  0XB2 ; '?'
8435   7A1C B1                  0XB1 ; '?'
8435   7a1d B2                  0XB2 ; '?'
8435   7A1D B2                  0XB2 ; '?'
8436   7A1E B3                  0XB3 ; '?'
8437   7A1F B5                  0XB5 ; '?'
8438   7A20 B6                  0XB6 ; '?'
8439   7A21 B7                  0XB7 ; '?'
8440   7A22 B8                  0XB8 ; '?'
;7D32H -  End of keyboard conversion matrix.
;7D33H -  Boot routine
8441   7A23 F3          L0001:  DI
8442   7A24 31 C0 FC            LXI SP,0FCC0H
8443   7A27 21 30 75            LXI H,7530H
8444   7A2A 2B          L1893:  DCX H
8445   7A2B 7C                  MOV A,H
8446   7A2C B5                  ORA L
8447   7A2D C2 2A 7A            JNZ L1893
8448   7A30 3E 43               MVI A,43H
8449   7A32 D3 B8               OUT 0B8H
8450   7A34 3E EC               MVI A,0ECH
8451   7A36 D3 BA               OUT 0BAH
8452   7A38 3E FF               MVI A,0FFH
8453   7A3A D3 B9               OUT 0B9H
8454   7A3C DB E8               IN 0E8H
8455   7A3E E6 88               ANI 88H
8456   7A40 3E ED               MVI A,0EDH
8457   7A42 D3 BA               OUT 0BAH
8458   7A44 CA DE 7A            JZ L1894
8459   7A47 2A F0 F5            LHLD 0F5F0H
8460   7A4A 11 4D 8A            LXI D,8A4DH
8461   7A4D DF                  RST 3
8462   7A4E C2 DE 7A            JNZ L1894
8463   7A51 3A C8 FA            LDA 0FAC8H
8464   7A54 57                  MOV D,A
8465   7A55 CD D3 7B            CALL L1895
8466   7A58 BA                  CMP D
8467   7A59 C2 DE 7A            JNZ L1894
8468   7A5C CD 05 F6            CALL L1896
8469   7A5F 3E 00               MVI A,00H
8470   7A61 C2 65 7A            JNZ L1897
8471   7A64 3D                  DCR A
8472   7A65 21 2A F6    L1897:  LXI H,0F62AH
8473   7A68 BE                  CMP M
8474   7A69 C2 DE 7A            JNZ L1894
8475   7A6C 2A F2 F5            LHLD 0F5F2H
8476   7A6F EB                  XCHG
8477   7A70 21 00 00            LXI H,0000H
8478   7A73 22 F2 F5            SHLD 0F5F2H
8479   7A76 21 0B 9C            LXI H,9C0BH
8480   7A79 DF                  RST 3
8481   7A7A C2 9F 7A            JNZ L1898
8482   7A7D 2A C5 FA            LHLD 0FAC5H
8483   7A80 F9                  SPHL
8484   7A81 CD F6 F5            CALL L1899
8485   7A84 CD C7 7A            CALL L1900
8486   7A87 2A 9C FF            LHLD 0FF9CH
8487   7A8A E5                  PUSH H
8488   7A8B 3A CF FA            LDA 0FACFH
8489   7A8E A7                  ANA A
8490   7A8F C2 B2 7A            JNZ L1901
8491   7A92 CD B5 45            CALL L1418
8492   7A95 E1                  POP H
8493   7A96 7C                  MOV A,H
8494   7A97 A7                  ANA A
8495   7A98 CA F8 14            JZ L1161
8496   7A9B F9                  SPHL
8497   7A9C C3 3F 71            JMP L1902
8498   7A9F 3A 58 F6    L1898:  LDA 0F658H
8499   7AA2 A7                  ANA A
8500   7AA3 CA B2 7A            JZ L1901
8501   7AA6 CD C7 7A            CALL L1900
8502   7AA9 CD 73 5A            CALL L1397
8503   7AAC CD B5 45            CALL L1418
8504   7AAF C3 FD 5C            JMP L1658
8505   7AB2 21 B6 FA    L1901:  LXI H,0FAB6H
8506   7AB5 22 33 F6            SHLD 0F633H
8507   7AB8 2A 7F F6            LHLD 0F67FH
8508   7ABB F9                  SPHL
8509   7ABC CD F6 F5            CALL L1899
8510   7ABF CD 49 3F            CALL L1107
8511   7AC2 21 BC 54            LXI H,54BCH
8512   7AC5 E5                  PUSH H
8513   7AC6 F6 AF               ORI 0AFH
8514   7AC8 CD 10 6A            CALL L1903
8515   7ACB AF                  XRA A
8516   7ACC 32 5D F6            STA 0F65DH
8517   7ACF 3A 43 FF            LDA 0FF43H
8518   7AD2 A7                  ANA A
8519   7AD3 C8                  RZ
8520   7AD4 21 61 F6            LXI H,0F661H
8521   7AD7 D7                  RST 2
8522   7AD8 D4 30 34            CNC L0093
8523   7ADB C3 C8 17            JMP L0489
8524   7ADE 31 E6 F5    L1894:  LXI SP,0F5E6H
8525   7AE1 CD D3 7B            CALL L1895
8526   7AE4 06 97               MVI B,97H
8527   7AE6 11 F0 F5            LXI D,0F5F0H
8528   7AE9 21 5A 03            LXI H,035AH
8529   7AEC CD 1A 25            CALL L0463
8530   7AEF CD B8 7B            CALL L1904
8531   7AF2 3E 0C               MVI A,0CH
8532   7AF4 32 37 F9            STA 0F937H
8533   7AF7 3E 64               MVI A,64H
8534   7AF9 32 38 F9            STA 0F938H
8535   7AFC 21 69 58            LXI H,5869H
8536   7AFF CD 9F 57            CALL L1148
8537   7B02 CD B3 69            CALL L0574
8538   7B05 06 58               MVI B,58H
8539   7B07 11 11 69            LXI D,6911H
8540   7B0A 21 69 F9            LXI H,0F969H
8541   7B0D CD 42 34            CALL L0540
8542   7B10 06 D1               MVI B,0D1H
8543   7B12 CD D1 4E            CALL L1363
8544   7B15 36 FF               MVI M,0FFH
8545   7B17 CD 05 F6            CALL L1896
8546   7B1A C2 35 7B            JNZ L1905
8547   7B1D 3D                  DCR A
8548   7B1E 32 2A F6            STA 0F62AH
8549   7B21 21 C1 F9            LXI H,0F9C1H
8550   7B24 36 F0               MVI M,0F0H
8551   7B26 23                  INX H
8552   7B27 23                  INX H
8553   7B28 23                  INX H
8554   7B29 11 AD FA            LXI D,0FAADH
8555   7B2C 06 06               MVI B,06H
8556   7B2E CD 42 34            CALL L0540
8557   7B31 36 20               MVI M,20H
8558   7B33 23                  INX H
8559   7B34 70                  MOV M,B
8560   7B35 AF          L1905:  XRA A
8561   7B36 32 8E F7            STA 0F78EH
8562   7B39 32 B9 FC            STA 0FCB9H
8563   7B3C CD 62 1A            CALL L0537
8564   7B3F 32 39 F9            STA 0F939H
8565   7B42 3E 3A               MVI A,3AH
8566   7B44 32 87 F6            STA 0F687H
8567   7B47 21 E6 FB            LXI H,0FBE6H
8568   7B4A 22 EB FB            SHLD 0FBEBH
8569   7B4D 22 7F F6            SHLD 0F67FH
8570   7B50 22 79 FB            SHLD 0FB79H
8571   7B53 3E 01               MVI A,01H
8572   7B55 32 C5 FB            STA 0FBC5H
8573   7B58 CD 1D 7C            CALL L1132
8574   7B5B CD 49 3F            CALL L1107
8575   7B5E 2A C7 FA            LHLD 0FAC7H
8576   7B61 AF                  XRA A
8577   7B62 77                  MOV M,A
8578   7B63 23                  INX H
8579   7B64 22 83 F6            SHLD 0F683H
8580   7B67 22 A1 F9            SHLD 0F9A1H
8581   7B6A 77                  MOV M,A
8582   7B6B 23                  INX H
8583   7B6C 77                  MOV M,A
8584   7B6D 23                  INX H
8585   7B6E 22 C0 FB            SHLD 0FBC0H
8586   7B71 22 AC F9            SHLD 0F9ACH
8587   7B74 36 1A               MVI M,1AH
8588   7B76 23                  INX H
8589   7B77 22 C2 FB            SHLD 0FBC2H
8590   7B7A 22 C4 FB            SHLD 0FBC4H
8591   7B7D 21 A0 F9            LXI H,0F9A0H
8592   7B80 22 93 FA            SHLD 0FA93H
8593   7B83 CD D0 20            CALL L0697
8594   7B86 CD F6 69            CALL L1906
8595   7B89 21 00 00            LXI H,0000H
8596   7B8C 22 34 F9            SHLD 0F934H
8597   7B8F 21 F3 7B            LXI H,7BF3H
8598   7B92 CD 19 70            CALL L0528
8599   7B95 C3 BC 54            JMP L0721
8600   7B98 21 96 7C    L1720:  LXI H,7C96H
8601   7B9B CD 8A 27            CALL L0084
8602   7B9E 2A C4 FB    L1457:  LHLD 0FBC4H
8603   7BA1 EB                  XCHG
8604   7BA2 2A 7F F6            LHLD 0F67FH
8605   7BA5 7D                  MOV A,L
8606   7BA6 93                  SUB E
8607   7BA7 6F                  MOV L,A
8608   7BA8 7C                  MOV A,H
8609   7BA9 9A                  SBB D
8610   7BAA 67                  MOV H,A
8611   7BAB 01 F2 FF            LXI B,0FFF2H
8612   7BAE 09                  DAD B
8613   7BAF CD AD 39            CALL L0360
8614   7BB2 21 8A 7C            LXI H,7C8AH
8615   7BB5 C3 8A 27            JMP L0084
8616   7BB8 21 E0 FA    L1904:  LXI H,0FAE0H
8617   7BBB 01 02 24            LXI B,2402H
8618   7BBE 11 E0 7C            LXI D,7CE0H
8619   7BC1 73          L1907:  MOV M,E
8620   7BC2 23                  INX H
8621   7BC3 72                  MOV M,D
8622   7BC4 23                  INX H
8623   7BC5 05                  DCR B
8624   7BC6 C2 C1 7B            JNZ L1907
8625   7BC9 06 12               MVI B,12H
8626   7BCB 11 E2 08            LXI D,08E2H
8627   7BCE 0D                  DCR C
8628   7BCF C2 C1 7B            JNZ L1907
8629   7BD2 C9                  RET
8630   7BD3 21 00 C0    L1895:  LXI H,0C000H
8631   7BD6 7E          L1909:  MOV A,M
8632   7BD7 2F                  CMA
8633   7BD8 77                  MOV M,A
8634   7BD9 BE                  CMP M
8635   7BDA 2F                  CMA
8636   7BDB 77                  MOV M,A
8637   7BDC 7C                  MOV A,H
8638   7BDD C2 EA 7B            JNZ L1908
8639   7BE0 2C                  INR L
8640   7BE1 C2 D6 7B            JNZ L1909
8641   7BE4 D6 20               SUI 20H
8642   7BE6 67                  MOV H,A
8643   7BE7 FA D6 7B            JM L1909
8644   7BEA 2E 00       L1908:  MVI L,00H
8645   7BEC C6 20               ADI 20H
8646   7BEE 67                  MOV H,A
8647   7BEF 22 C7 FA            SHLD 0FAC7H
8648   7BF2 C9                  RET
8649   7BF3 00                  NOP
8650   7BF4 00                  NOP
8651   7BF5 00                  NOP
8652   7BF6 00                  NOP
8653   7BF7 00                  NOP
8654   7BF8 00                  NOP
8655   7BF9 01 00 00            LXI B,0000H
8656   7BFC 01 CF 9D            LXI B,9DCFH
8657   7BFF CF                  RST 1
8658   7C00 DD                  UNRECOGNIZED
8659   7C01 CD 35 11            CALL L0200
8660   7C04 C2 4D 04    L1874:  JNZ L0002
8661   7C07 FE 10               CPI 10H
8662   7C09 D2 E2 08            JNC L0214
8663   7C0C 22 AB FB            SHLD 0FBABH
8664   7C0F F5                  PUSH PSW
8665   7C10 CD F0 4D            CALL L0653
8666   7C13 F1                  POP PSW
8667   7C14 CD 1D 7C            CALL L1132
8668   7C17 CD 0B 3F            CALL L1910
8669   7C1A C3 0B 08            JMP L0700
8670   7C1D F5          L1132:  PUSH PSW
8671   7C1E 2A F4 F5            LHLD 0F5F4H
8672   7C21 11 F5 FE            LXI D,0FEF5H
8673   7C24 19          L1911:  DAD D
8674   7C25 3D                  DCR A
8675   7C26 F2 24 7C            JP L1911
8676   7C29 EB                  XCHG
8677   7C2A 2A 7F F6            LHLD 0F67FH
8678   7C2D 44                  MOV B,H
8679   7C2E 4D                  MOV C,L
8680   7C2F 2A 79 FB            LHLD 0FB79H
8681   7C32 7D                  MOV A,L
8682   7C33 91                  SUB C
8683   7C34 6F                  MOV L,A
8684   7C35 7C                  MOV A,H
8685   7C36 98                  SBB B
8686   7C37 67                  MOV H,A
8687   7C38 F1                  POP PSW
8688   7C39 E5                  PUSH H
8689   7C3A F5                  PUSH PSW
8690   7C3B 01 8C 00            LXI B,008CH
8691   7C3E 09                  DAD B
8692   7C3F 44                  MOV B,H
8693   7C40 4D                  MOV C,L
8694   7C41 2A C4 FB            LHLD 0FBC4H
8695   7C44 09                  DAD B
8696   7C45 DF                  RST 3
8697   7C46 D2 F3 3E            JNC L0470
8698   7C49 F1                  POP PSW
8699   7C4A 32 94 FC            STA 0FC94H
8700   7C4D 6B                  MOV L,E
8701   7C4E 62                  MOV H,D
8702   7C4F 22 95 FC            SHLD 0FC95H
8703   7C52 2B                  DCX H
8704   7C53 2B                  DCX H
8705   7C54 22 79 FB            SHLD 0FB79H
8706   7C57 C1                  POP B
8707   7C58 7D                  MOV A,L
8708   7C59 91                  SUB C
8709   7C5A 6F                  MOV L,A
8710   7C5B 7C                  MOV A,H
8711   7C5C 98                  SBB B
8712   7C5D 67                  MOV H,A
8713   7C5E 22 7F F6            SHLD 0F67FH
8714   7C61 2B                  DCX H
8715   7C62 2B                  DCX H
8716   7C63 C1                  POP B
8717   7C64 F9                  SPHL
8718   7C65 C5                  PUSH B
8719   7C66 3A 94 FC            LDA 0FC94H
8720   7C69 6F                  MOV L,A
8721   7C6A 2C                  INR L
8722   7C6B 26 00               MVI H,00H
8723   7C6D 29                  DAD H
8724   7C6E 19                  DAD D
8725   7C6F EB                  XCHG
8726   7C70 D5                  PUSH D
8727   7C71 01 09 01            LXI B,0109H
8728   7C74 73          L1912:  MOV M,E
8729   7C75 23                  INX H
8730   7C76 72                  MOV M,D
8731   7C77 23                  INX H
8732   7C78 EB                  XCHG
8733   7C79 36 00               MVI M,00H
8734   7C7B 09                  DAD B
8735   7C7C EB                  XCHG
8736   7C7D 3D                  DCR A
8737   7C7E F2 74 7C            JP L1912
8738   7C81 E1                  POP H
8739   7C82 01 09 00            LXI B,0009H
8740   7C85 09                  DAD B
8741   7C86 22 99 FC            SHLD 0FC99H
8742   7C89 C9                  RET
8743   7C8A 20                  RIM
8744   7C8B 42                  MOV B,D
8745   7C8C 79                  MOV A,C
8746   7C8D 74                  MOV M,H
8747   7C8E 65                  MOV H,L
8748   7C8F 73                  MOV M,E
8749   7C90 20                  RIM
8750   7C91 66                  MOV H,M
8751   7C92 72                  MOV M,D
8752   7C93 65                  MOV H,L
8753   7C94 65                  MOV H,L
8754   7C95 00                  NOP
8755   7C96 4F                  MOV C,A
8756   7C97 4C                  MOV C,H
8757   7C98 49                  MOV C,C
8758   7C99 56                  MOV D,M
8759   7C9A 45                  MOV B,L
8760   7C9B 54                  MOV D,H
8761   7C9C 54                  MOV D,H
8762   7C9D 49                  MOV C,C
8763   7C9E 20                  RIM
8764   7C9F 4D                  MOV C,L
8765   7CA0 31 30 20            LXI SP,2030H
8766   7CA3 42                  MOV B,D
8767   7CA4 41                  MOV B,C
8768   7CA5 53                  MOV D,E
8769   7CA6 49                  MOV C,C
8770   7CA7 43                  MOV B,E
8771   7CA8 20                  RIM
8772   7CA9 31 2E 30            LXI SP,302EH
8773   7CAC 0D                  DCR C
8774   7CAD 0A                  LDAX B
8775   7CAE 28                  UNRECOGNIZED
8776   7CAF 43                  MOV B,E
8777   7CB0 29                  DAD H
8778   7CB1 20                  RIM
8779   7CB2 31 39 38            LXI SP,3839H
8780   7CB5 33                  INX SP
8781   7CB6 20                  RIM
8782   7CB7 4D                  MOV C,L
8783   7CB8 69                  MOV L,C
8784   7CB9 63                  MOV H,E
8785   7CBA 72                  MOV M,D
8786   7CBB 6F                  MOV L,A
8787   7CBC 73                  MOV M,E
8788   7CBD 6F                  MOV L,A
8789   7CBE 66                  MOV H,M
8790   7CBF 74                  MOV M,H
8791   7CC0 0D                  DCR C
8792   7CC1 0A                  LDAX B
8793   7CC2 00                  NOP
8794   7CC3 E3          L0010:  XTHL
8795   7CC4 F5                  PUSH PSW
8796   7CC5 7E                  MOV A,M
8797   7CC6 32 D0 FA            STA 0FAD0H
8798   7CC9 F1                  POP PSW
8799   7CCA 23                  INX H
8800   7CCB E3                  XTHL
8801   7CCC E5                  PUSH H
8802   7CCD C5                  PUSH B
8803   7CCE F5                  PUSH PSW
8804   7CCF 21 E0 FA            LXI H,0FAE0H
8805   7CD2 3A D0 FA            LDA 0FAD0H
8806   7CD5 4F                  MOV C,A
8807   7CD6 06 00               MVI B,00H
8808   7CD8 09                  DAD B
8809   7CD9 7E                  MOV A,M
8810   7CDA 23                  INX H
8811   7CDB 66                  MOV H,M
8812   7CDC 6F                  MOV L,A
8813   7CDD F1                  POP PSW
8814   7CDE C1                  POP B
8815   7CDF E3                  XTHL
8816   7CE0 C9                  RET
8817   7CE1 2A 40 F6    L1639:  LHLD 0F640H
8818   7CE4 22 EE F6            SHLD 0F6EEH
8819   7CE7 21 06 64            LXI H,6406H
8820   7CEA 22 59 F6            SHLD 0F659H
8821   7CED C3 BB 62            JMP L1565
8822   7CF0 E5          L1486:  PUSH H
8823   7CF1 21 98 69            LXI H,6998H
8824   7CF4 22 91 F8            SHLD 0F891H
8825   7CF7 E1                  POP H
8826   7CF8 C3 0B 08            JMP L0700
8827   7CFB 00                  NOP
8828   7CFC 00                  NOP
8829   7CFD 00                  NOP
8830   7CFE 00                  NOP
8831   7CFF 00                  NOP
8832   7D00 00                  NOP
8833   7D01 00                  NOP
8834   7D02 00                  NOP
8835   7D03 00                  NOP
8836   7D04 00                  NOP
8837   7D05 00                  NOP
8838   7D06 00                  NOP
8839   7D07 00                  NOP
8840   7D08 00                  NOP
8841   7D09 00                  NOP
8842   7D0A 00                  NOP
8843   7D0B 00                  NOP
8844   7D0C 00                  NOP
8845   7D0D 00                  NOP
8846   7D0E 00                  NOP
8847   7D0F 00                  NOP
8848   7D10 00                  NOP
8849   7D11 00                  NOP
8850   7D12 00                  NOP
8851   7D13 00                  NOP
8852   7D14 00                  NOP
8853   7D15 00                  NOP
8854   7D16 00                  NOP
8855   7D17 00                  NOP
8856   7D18 00                  NOP
8857   7D19 00                  NOP
8858   7D1A 00                  NOP
8859   7D1B 00                  NOP
8860   7D1C 00                  NOP
8861   7D1D 00                  NOP
8862   7D1E 00                  NOP
8863   7D1F 00                  NOP
8864   7D20 00                  NOP
8865   7D21 00                  NOP
8866   7D22 00                  NOP
8867   7D23 00                  NOP
8868   7D24 00                  NOP
8869   7D25 00                  NOP
8870   7D26 00                  NOP
8871   7D27 00                  NOP
8872   7D28 00                  NOP
8873   7D29 00                  NOP
8874   7D2A 00                  NOP
8875   7D2B 00                  NOP
8876   7D2C 00                  NOP
8877   7D2D 00                  NOP
8878   7D2E 00                  NOP
8879   7D2F 00                  NOP
8880   7D30 00                  NOP
8881   7D31 00                  NOP
8882   7D32 00                  NOP
8883   7D33 00                  NOP
8884   7D34 00                  NOP
8885   7D35 00                  NOP
8886   7D36 00                  NOP
8887   7D37 00                  NOP
8888   7D38 00                  NOP
8889   7D39 00                  NOP
8890   7D3A 00                  NOP
8891   7D3B 00                  NOP
8892   7D3C 00                  NOP
8893   7D3D 00                  NOP
8894   7D3E 00                  NOP
8895   7D3F 00                  NOP
8896   7D40 00                  NOP
8897   7D41 00                  NOP
8898   7D42 00                  NOP
8899   7D43 00                  NOP
8900   7D44 00                  NOP
8901   7D45 00                  NOP
8902   7D46 00                  NOP
8903   7D47 00                  NOP
8904   7D48 00                  NOP
8905   7D49 00                  NOP
8906   7D4A 00                  NOP
8907   7D4B 00                  NOP
8908   7D4C 00                  NOP
8909   7D4D 00                  NOP
8910   7D4E 00                  NOP
8911   7D4F 00                  NOP
8912   7D50 00                  NOP
8913   7D51 00                  NOP
8914   7D52 00                  NOP
8915   7D53 00                  NOP
8916   7D54 00                  NOP
8917   7D55 00                  NOP
8918   7D56 00                  NOP
8919   7D57 00                  NOP
8920   7D58 00                  NOP
8921   7D59 00                  NOP
8922   7D5A 00                  NOP
8923   7D5B 00                  NOP
8924   7D5C 00                  NOP
8925   7D5D 00                  NOP
8926   7D5E 00                  NOP
8927   7D5F 00                  NOP
8928   7D60 00                  NOP
8929   7D61 00                  NOP
8930   7D62 00                  NOP
8931   7D63 00                  NOP
8932   7D64 00                  NOP
8933   7D65 00                  NOP
8934   7D66 00                  NOP
8935   7D67 00                  NOP
8936   7D68 00                  NOP
8937   7D69 00                  NOP
8938   7D6A 00                  NOP
8939   7D6B 00                  NOP
8940   7D6C 00                  NOP
8941   7D6D 00                  NOP
8942   7D6E 00                  NOP
8943   7D6F 00                  NOP
8944   7D70 00                  NOP
8945   7D71 00                  NOP
8946   7D72 00                  NOP
8947   7D73 00                  NOP
8948   7D74 00                  NOP
8949   7D75 00                  NOP
8950   7D76 00                  NOP
8951   7D77 00                  NOP
8952   7D78 00                  NOP
8953   7D79 00                  NOP
8954   7D7A 00                  NOP
8955   7D7B 00                  NOP
8956   7D7C 00                  NOP
8957   7D7D 00                  NOP
8958   7D7E 00                  NOP
8959   7D7F 00                  NOP
8960   7D80 00                  NOP
8961   7D81 00                  NOP
8962   7D82 00                  NOP
8963   7D83 00                  NOP
8964   7D84 00                  NOP
8965   7D85 00                  NOP
8966   7D86 00                  NOP
8967   7D87 00                  NOP
8968   7D88 00                  NOP
8969   7D89 00                  NOP
8970   7D8A 00                  NOP
8971   7D8B 00                  NOP
8972   7D8C 00                  NOP
8973   7D8D 00                  NOP
8974   7D8E 00                  NOP
8975   7D8F 00                  NOP
8976   7D90 00                  NOP
8977   7D91 00                  NOP
8978   7D92 00                  NOP
8979   7D93 00                  NOP
8980   7D94 00                  NOP
8981   7D95 00                  NOP
8982   7D96 00                  NOP
8983   7D97 00                  NOP
8984   7D98 00                  NOP
8985   7D99 00                  NOP
8986   7D9A 00                  NOP
8987   7D9B 00                  NOP
8988   7D9C 00                  NOP
8989   7D9D 00                  NOP
8990   7D9E 00                  NOP
8991   7D9F 00                  NOP
8992   7DA0 00                  NOP
8993   7DA1 00                  NOP
8994   7DA2 00                  NOP
8995   7DA3 00                  NOP
8996   7DA4 00                  NOP
8997   7DA5 00                  NOP
8998   7DA6 00                  NOP
8999   7DA7 00                  NOP
9000   7DA8 00                  NOP
9001   7DA9 00                  NOP
9002   7DAA 00                  NOP
9003   7DAB 00                  NOP
9004   7DAC 00                  NOP
9005   7DAD 00                  NOP
9006   7DAE 00                  NOP
9007   7DAF 00                  NOP
9008   7DB0 00                  NOP
9009   7DB1 00                  NOP
9010   7DB2 00                  NOP
9011   7DB3 00                  NOP
9012   7DB4 00                  NOP
9013   7DB5 00                  NOP
9014   7DB6 00                  NOP
9015   7DB7 00                  NOP
9016   7DB8 00                  NOP
9017   7DB9 00                  NOP
9018   7DBA 00                  NOP
9019   7DBB 00                  NOP
9020   7DBC 00                  NOP
9021   7DBD 00                  NOP
9022   7DBE 00                  NOP
9023   7DBF 00                  NOP
9024   7DC0 00                  NOP
9025   7DC1 00                  NOP
9026   7DC2 00                  NOP
9027   7DC3 00                  NOP
9028   7DC4 00                  NOP
9029   7DC5 00                  NOP
9030   7DC6 00                  NOP
9031   7DC7 00                  NOP
9032   7DC8 00                  NOP
9033   7DC9 00                  NOP
9034   7DCA 00                  NOP
9035   7DCB 00                  NOP
9036   7DCC 00                  NOP
9037   7DCD 00                  NOP
9038   7DCE 00                  NOP
9039   7DCF 00                  NOP
9040   7DD0 00                  NOP
9041   7DD1 00                  NOP
9042   7DD2 00                  NOP
9043   7DD3 00                  NOP
9044   7DD4 00                  NOP
9045   7DD5 00                  NOP
9046   7DD6 00                  NOP
9047   7DD7 00                  NOP
9048   7DD8 00                  NOP
9049   7DD9 00                  NOP
9050   7DDA 00                  NOP
9051   7DDB 00                  NOP
9052   7DDC 00                  NOP
9053   7DDD 00                  NOP
9054   7DDE 00                  NOP
9055   7DDF 00                  NOP
9056   7DE0 00                  NOP
9057   7DE1 00                  NOP
9058   7DE2 00                  NOP
9059   7DE3 00                  NOP
9060   7DE4 00                  NOP
9061   7DE5 00                  NOP
9062   7DE6 00                  NOP
9063   7DE7 00                  NOP
9064   7DE8 00                  NOP
9065   7DE9 00                  NOP
9066   7DEA 00                  NOP
9067   7DEB 00                  NOP
9068   7DEC 00                  NOP
9069   7DED 00                  NOP
9070   7DEE 00                  NOP
9071   7DEF 00                  NOP
9072   7DF0 00                  NOP
9073   7DF1 00                  NOP
9074   7DF2 00                  NOP
9075   7DF3 00                  NOP
9076   7DF4 00                  NOP
9077   7DF5 00                  NOP
9078   7DF6 00                  NOP
9079   7DF7 00                  NOP
9080   7DF8 00                  NOP
9081   7DF9 00                  NOP
9082   7DFA 00                  NOP
9083   7DFB 00                  NOP
9084   7DFC 00                  NOP
9085   7DFD 00                  NOP
9086   7DFE 00                  NOP
9087   7DFF 00                  NOP
9088   7E00 00                  NOP
9089   7E01 00                  NOP
9090   7E02 00                  NOP
9091   7E03 00                  NOP
9092   7E04 00                  NOP
9093   7E05 00                  NOP
9094   7E06 00                  NOP
9095   7E07 00                  NOP
9096   7E08 00                  NOP
9097   7E09 00                  NOP
9098   7E0A 00                  NOP
9099   7E0B 00                  NOP
9100   7E0C 00                  NOP
9101   7E0D 00                  NOP
9102   7E0E 00                  NOP
9103   7E0F 00                  NOP
9104   7E10 00                  NOP
9105   7E11 00                  NOP
9106   7E12 00                  NOP
9107   7E13 00                  NOP
9108   7E14 00                  NOP
9109   7E15 00                  NOP
9110   7E16 00                  NOP
9111   7E17 00                  NOP
9112   7E18 00                  NOP
9113   7E19 00                  NOP
9114   7E1A 00                  NOP
9115   7E1B 00                  NOP
9116   7E1C 00                  NOP
9117   7E1D 00                  NOP
9118   7E1E 00                  NOP
9119   7E1F 00                  NOP
9120   7E20 00                  NOP
9121   7E21 00                  NOP
9122   7E22 00                  NOP
9123   7E23 00                  NOP
9124   7E24 00                  NOP
9125   7E25 00                  NOP
9126   7E26 00                  NOP
9127   7E27 00                  NOP
9128   7E28 00                  NOP
9129   7E29 00                  NOP
9130   7E2A 00                  NOP
9131   7E2B 00                  NOP
9132   7E2C 00                  NOP
9133   7E2D 00                  NOP
9134   7E2E 00                  NOP
9135   7E2F 00                  NOP
9136   7E30 00                  NOP
9137   7E31 00                  NOP
9138   7E32 00                  NOP
9139   7E33 00                  NOP
9140   7E34 00                  NOP
9141   7E35 00                  NOP
9142   7E36 00                  NOP
9143   7E37 00                  NOP
9144   7E38 00                  NOP
9145   7E39 00                  NOP
9146   7E3A 00                  NOP
9147   7E3B 00                  NOP
9148   7E3C 00                  NOP
9149   7E3D 00                  NOP
9150   7E3E 00                  NOP
9151   7E3F 00                  NOP
9152   7E40 00                  NOP
9153   7E41 00                  NOP
9154   7E42 00                  NOP
9155   7E43 00                  NOP
9156   7E44 00                  NOP
9157   7E45 00                  NOP
9158   7E46 00                  NOP
9159   7E47 00                  NOP
9160   7E48 00                  NOP
9161   7E49 00                  NOP
9162   7E4A 00                  NOP
9163   7E4B 00                  NOP
9164   7E4C 00                  NOP
9165   7E4D 00                  NOP
9166   7E4E 00                  NOP
9167   7E4F 00                  NOP
9168   7E50 00                  NOP
9169   7E51 00                  NOP
9170   7E52 00                  NOP
9171   7E53 00                  NOP
9172   7E54 00                  NOP
9173   7E55 00                  NOP
9174   7E56 00                  NOP
9175   7E57 00                  NOP
9176   7E58 00                  NOP
9177   7E59 00                  NOP
9178   7E5A 00                  NOP
9179   7E5B 00                  NOP
9180   7E5C 00                  NOP
9181   7E5D 00                  NOP
9182   7E5E 00                  NOP
9183   7E5F 00                  NOP
9184   7E60 00                  NOP
9185   7E61 00                  NOP
9186   7E62 00                  NOP
9187   7E63 00                  NOP
9188   7E64 00                  NOP
9189   7E65 00                  NOP
9190   7E66 00                  NOP
9191   7E67 00                  NOP
9192   7E68 00                  NOP
9193   7E69 00                  NOP
9194   7E6A 00                  NOP
9195   7E6B 00                  NOP
9196   7E6C 00                  NOP
9197   7E6D 00                  NOP
9198   7E6E 00                  NOP
9199   7E6F 00                  NOP
9200   7E70 00                  NOP
9201   7E71 00                  NOP
9202   7E72 00                  NOP
9203   7E73 00                  NOP
9204   7E74 00                  NOP
9205   7E75 00                  NOP
9206   7E76 00                  NOP
9207   7E77 00                  NOP
9208   7E78 00                  NOP
9209   7E79 00                  NOP
9210   7E7A 00                  NOP
9211   7E7B 00                  NOP
9212   7E7C 00                  NOP
9213   7E7D 00                  NOP
9214   7E7E 00                  NOP
9215   7E7F 00                  NOP
9216   7E80 00                  NOP
9217   7E81 00                  NOP
9218   7E82 00                  NOP
9219   7E83 00                  NOP
9220   7E84 00                  NOP
9221   7E85 00                  NOP
9222   7E86 00                  NOP
9223   7E87 00                  NOP
9224   7E88 00                  NOP
9225   7E89 00                  NOP
9226   7E8A 00                  NOP
9227   7E8B 00                  NOP
9228   7E8C 00                  NOP
9229   7E8D 00                  NOP
9230   7E8E 00                  NOP
9231   7E8F 00                  NOP
9232   7E90 00                  NOP
9233   7E91 00                  NOP
9234   7E92 00                  NOP
9235   7E93 00                  NOP
9236   7E94 00                  NOP
9237   7E95 00                  NOP
9238   7E96 00                  NOP
9239   7E97 00                  NOP
9240   7E98 00                  NOP
9241   7E99 00                  NOP
9242   7E9A 00                  NOP
9243   7E9B 00                  NOP
9244   7E9C 00                  NOP
9245   7E9D 00                  NOP
9246   7E9E 00                  NOP
9247   7E9F 00                  NOP
9248   7EA0 00                  NOP
9249   7EA1 00                  NOP
9250   7EA2 00                  NOP
9251   7EA3 00                  NOP
9252   7EA4 00                  NOP
9253   7EA5 00                  NOP
9254   7EA6 00                  NOP
9255   7EA7 00                  NOP
9256   7EA8 00                  NOP
9257   7EA9 00                  NOP
9258   7EAA 00                  NOP
9259   7EAB 00                  NOP
9260   7EAC 00                  NOP
9261   7EAD 00                  NOP
9262   7EAE 00                  NOP
9263   7EAF 00                  NOP
9264   7EB0 00                  NOP
9265   7EB1 00                  NOP
9266   7EB2 00                  NOP
9267   7EB3 00                  NOP
9268   7EB4 00                  NOP
9269   7EB5 00                  NOP
9270   7EB6 00                  NOP
9271   7EB7 00                  NOP
9272   7EB8 00                  NOP
9273   7EB9 00                  NOP
9274   7EBA 00                  NOP
9275   7EBB 00                  NOP
9276   7EBC 00                  NOP
9277   7EBD 00                  NOP
9278   7EBE 00                  NOP
9279   7EBF 00                  NOP
9280   7EC0 00                  NOP
9281   7EC1 00                  NOP
9282   7EC2 00                  NOP
9283   7EC3 00                  NOP
9284   7EC4 00                  NOP
9285   7EC5 00                  NOP
9286   7EC6 00                  NOP
9287   7EC7 00                  NOP
9288   7EC8 00                  NOP
9289   7EC9 00                  NOP
9290   7ECA 00                  NOP
9291   7ECB 00                  NOP
9292   7ECC 00                  NOP
9293   7ECD 00                  NOP
9294   7ECE 00                  NOP
9295   7ECF 00                  NOP
9296   7ED0 00                  NOP
9297   7ED1 00                  NOP
9298   7ED2 00                  NOP
9299   7ED3 00                  NOP
9300   7ED4 00                  NOP
9301   7ED5 00                  NOP
9302   7ED6 00                  NOP
9303   7ED7 00                  NOP
9304   7ED8 00                  NOP
9305   7ED9 00                  NOP
9306   7EDA 00                  NOP
9307   7EDB 00                  NOP
9308   7EDC 00                  NOP
9309   7EDD 00                  NOP
9310   7EDE 00                  NOP
9311   7EDF 00                  NOP
9312   7EE0 00                  NOP
9313   7EE1 00                  NOP
9314   7EE2 00                  NOP
9315   7EE3 00                  NOP
9316   7EE4 00                  NOP
9317   7EE5 00                  NOP
9318   7EE6 00                  NOP
9319   7EE7 00                  NOP
9320   7EE8 00                  NOP
9321   7EE9 00                  NOP
9322   7EEA 00                  NOP
9323   7EEB 00                  NOP
9324   7EEC 00                  NOP
9325   7EED 00                  NOP
9326   7EEE 00                  NOP
9327   7EEF 00                  NOP
9328   7EF0 00                  NOP
9329   7EF1 00                  NOP
9330   7EF2 00                  NOP
9331   7EF3 00                  NOP
9332   7EF4 00                  NOP
9333   7EF5 00                  NOP
9334   7EF6 00                  NOP
9335   7EF7 00                  NOP
9336   7EF8 00                  NOP
9337   7EF9 00                  NOP
9338   7EFA 00                  NOP
9339   7EFB 00                  NOP
9340   7EFC 00                  NOP
9341   7EFD 00                  NOP
9342   7EFE 00                  NOP
9343   7EFF 00                  NOP
9344   7F00 00                  NOP
9345   7F01 00                  NOP
9346   7F02 00                  NOP
9347   7F03 00                  NOP
9348   7F04 00                  NOP
9349   7F05 00                  NOP
9350   7F06 00                  NOP
9351   7F07 00                  NOP
9352   7F08 00                  NOP
9353   7F09 00                  NOP
9354   7F0A 00                  NOP
9355   7F0B 00                  NOP
9356   7F0C 00                  NOP
9357   7F0D 00                  NOP
9358   7F0E 00                  NOP
9359   7F0F 00                  NOP
9360   7F10 00                  NOP
9361   7F11 00                  NOP
9362   7F12 00                  NOP
9363   7F13 00                  NOP
9364   7F14 00                  NOP
9365   7F15 00                  NOP
9366   7F16 00                  NOP
9367   7F17 00                  NOP
9368   7F18 00                  NOP
9369   7F19 00                  NOP
9370   7F1A 00                  NOP
9371   7F1B 00                  NOP
9372   7F1C 00                  NOP
9373   7F1D 00                  NOP
9374   7F1E 00                  NOP
9375   7F1F 00                  NOP
9376   7F20 00                  NOP
9377   7F21 00                  NOP
9378   7F22 00                  NOP
9379   7F23 00                  NOP
9380   7F24 00                  NOP
9381   7F25 00                  NOP
9382   7F26 00                  NOP
9383   7F27 00                  NOP
9384   7F28 00                  NOP
9385   7F29 00                  NOP
9386   7F2A 00                  NOP
9387   7F2B 00                  NOP
9388   7F2C 00                  NOP
9389   7F2D 00                  NOP
9390   7F2E 00                  NOP
9391   7F2F 00                  NOP
9392   7F30 00                  NOP
9393   7F31 00                  NOP
9394   7F32 00                  NOP
9395   7F33 00                  NOP
9396   7F34 00                  NOP
9397   7F35 00                  NOP
9398   7F36 00                  NOP
9399   7F37 00                  NOP
9400   7F38 00                  NOP
9401   7F39 00                  NOP
9402   7F3A 00                  NOP
9403   7F3B 00                  NOP
9404   7F3C 00                  NOP
9405   7F3D 00                  NOP
9406   7F3E 00                  NOP
9407   7F3F 00                  NOP
9408   7F40 00                  NOP
9409   7F41 00                  NOP
9410   7F42 00                  NOP
9411   7F43 00                  NOP
9412   7F44 00                  NOP
9413   7F45 00                  NOP
9414   7F46 00                  NOP
9415   7F47 00                  NOP
9416   7F48 00                  NOP
9417   7F49 00                  NOP
9418   7F4A 00                  NOP
9419   7F4B 00                  NOP
9420   7F4C 00                  NOP
9421   7F4D 00                  NOP
9422   7F4E 00                  NOP
9423   7F4F 00                  NOP
9424   7F50 00                  NOP
9425   7F51 00                  NOP
9426   7F52 00                  NOP
9427   7F53 00                  NOP
9428   7F54 00                  NOP
9429   7F55 00                  NOP
9430   7F56 00                  NOP
9431   7F57 00                  NOP
9432   7F58 00                  NOP
9433   7F59 00                  NOP
9434   7F5A 00                  NOP
9435   7F5B 00                  NOP
9436   7F5C 00                  NOP
9437   7F5D 00                  NOP
9438   7F5E 00                  NOP
9439   7F5F 00                  NOP
9440   7F60 00                  NOP
9441   7F61 00                  NOP
9442   7F62 00                  NOP
9443   7F63 00                  NOP
9444   7F64 00                  NOP
9445   7F65 00                  NOP
9446   7F66 00                  NOP
9447   7F67 00                  NOP
9448   7F68 00                  NOP
9449   7F69 00                  NOP
9450   7F6A 00                  NOP
9451   7F6B 00                  NOP
9452   7F6C 00                  NOP
9453   7F6D 00                  NOP
9454   7F6E 00                  NOP
9455   7F6F 00                  NOP
9456   7F70 00                  NOP
9457   7F71 00                  NOP
9458   7F72 00                  NOP
9459   7F73 00                  NOP
9460   7F74 00                  NOP
9461   7F75 00                  NOP
9462   7F76 00                  NOP
9463   7F77 00                  NOP
9464   7F78 00                  NOP
9465   7F79 00                  NOP
9466   7F7A 00                  NOP
9467   7F7B 00                  NOP
9468   7F7C 00                  NOP
9469   7F7D 00                  NOP
9470   7F7E 00                  NOP
9471   7F7F 00                  NOP
9472   7F80 00                  NOP
9473   7F81 00                  NOP
9474   7F82 00                  NOP
9475   7F83 00                  NOP
9476   7F84 00                  NOP
9477   7F85 00                  NOP
9478   7F86 00                  NOP
9479   7F87 00                  NOP
9480   7F88 00                  NOP
9481   7F89 00                  NOP
9482   7F8A 00                  NOP
9483   7F8B 00                  NOP
9484   7F8C 00                  NOP
9485   7F8D 00                  NOP
9486   7F8E 00                  NOP
9487   7F8F 00                  NOP
9488   7F90 00                  NOP
9489   7F91 00                  NOP
9490   7F92 00                  NOP
9491   7F93 00                  NOP
9492   7F94 00                  NOP
9493   7F95 00                  NOP
9494   7F96 00                  NOP
9495   7F97 00                  NOP
9496   7F98 00                  NOP
9497   7F99 00                  NOP
9498   7F9A 00                  NOP
9499   7F9B 00                  NOP
9500   7F9C 00                  NOP
9501   7F9D 00                  NOP
9502   7F9E 00                  NOP
9503   7F9F 00                  NOP
9504   7FA0 00                  NOP
9505   7FA1 00                  NOP
9506   7FA2 00                  NOP
9507   7FA3 00                  NOP
9508   7FA4 00                  NOP
9509   7FA5 00                  NOP
9510   7FA6 00                  NOP
9511   7FA7 00                  NOP
9512   7FA8 00                  NOP
9513   7FA9 00                  NOP
9514   7FAA 00                  NOP
9515   7FAB 00                  NOP
9516   7FAC 00                  NOP
9517   7FAD 00                  NOP
9518   7FAE 00                  NOP
9519   7FAF 00                  NOP
9520   7FB0 00                  NOP
9521   7FB1 00                  NOP
9522   7FB2 00                  NOP
9523   7FB3 00                  NOP
9524   7FB4 00                  NOP
9525   7FB5 00                  NOP
9526   7FB6 00                  NOP
9527   7FB7 00                  NOP
9528   7FB8 00                  NOP
9529   7FB9 00                  NOP
9530   7FBA 00                  NOP
9531   7FBB 00                  NOP
9532   7FBC 00                  NOP
9533   7FBD 00                  NOP
9534   7FBE 00                  NOP
9535   7FBF 00                  NOP
9536   7FC0 00                  NOP
9537   7FC1 00                  NOP
9538   7FC2 00                  NOP
9539   7FC3 00                  NOP
9540   7FC4 00                  NOP
9541   7FC5 00                  NOP
9542   7FC6 00                  NOP
9543   7FC7 00                  NOP
9544   7FC8 00                  NOP
9545   7FC9 00                  NOP
9546   7FCA 00                  NOP
9547   7FCB 00                  NOP
9548   7FCC 00                  NOP
9549   7FCD 00                  NOP
9550   7FCE 00                  NOP
9551   7FCF 00                  NOP
9552   7FD0 00                  NOP
9553   7FD1 00                  NOP
9554   7FD2 00                  NOP
9555   7FD3 00                  NOP
9556   7FD4 00                  NOP
9557   7FD5 00                  NOP
9558   7FD6 00                  NOP
9559   7FD7 00                  NOP
9560   7FD8 00                  NOP
9561   7FD9 00                  NOP
9562   7FDA 00                  NOP
9563   7FDB 00                  NOP
9564   7FDC 00                  NOP
9565   7FDD 00                  NOP
9566   7FDE 00                  NOP
9567   7FDF 00                  NOP
9568   7FE0 00                  NOP
9569   7FE1 00                  NOP
9570   7FE2 00                  NOP
9571   7FE3 00                  NOP
9572   7FE4 00                  NOP
9573   7FE5 00                  NOP
9574   7FE6 00                  NOP
9575   7FE7 00                  NOP
9576   7FE8 00                  NOP
9577   7FE9 00                  NOP
9578   7FEA 00                  NOP
9579   7FEB 00                  NOP
9580   7FEC 00                  NOP
9581   7FED 00                  NOP
9582   7FEE 00                  NOP
9583   7FEF 00                  NOP
9584   7FF0 00                  NOP
9585   7FF1 00                  NOP
9586   7FF2 00                  NOP
9587   7FF3 00                  NOP
9588   7FF4 00                  NOP
9589   7FF5 00                  NOP
9590   7FF6 00                  NOP
9591   7FF7 00                  NOP
9592   7FF8 00                  NOP
9593   7FF9 00                  NOP
9594   7FFA 00                  NOP
9595   7FFB 00                  NOP
9596   7FFC 00                  NOP
9597   7FFD 00                  NOP
9598   7FFE 00                  NOP
9599   7FFF 00                  NOP

---------------------------------------------
LIST OF LABELS
Sorted by address:      Sorted by name:
---------------------------------------------

L1877:  0000            L0001:  7A23
L1600:  0013            L0002:  044D
L0066:  0018            L0003:  085F
L1157:  001E            L0004:  4B12
L0067:  00FC            L0005:  F602
L0173:  0408            L0006:  1070
L0069:  040C            L0007:  F5F9
L0068:  0420            L0008:  33B5
L1360:  0429            L0009:  6ADC
L0156:  042F            L0010:  7CC3
L0071:  0441            L0011:  1AFB
L0255:  0447            L0012:  5441
L0002:  044D            L0013:  4D49
L0843:  0450            L0014:  4145
L1133:  0453            L0015:  5445
L1261:  0456            L0016:  4E55
L0206:  0459            L0017:  5345
L0386:  045C            L0018:  4D45
L0307:  045F            L0019:  4E49
L0133:  0462            L0020:  4B53
L0072:  0464            L0021:  4F4C
L0074:  047A            L0022:  414F
L0075:  0491            L0023:  5245
L0070:  0494            L0024:  4946
L0077:  04BD            L0025:  5250
L0078:  04CC            L0026:  4645
L0081:  04E2            L0027:  4E4F
L0082:  04E4            L0028:  5349
L0083:  04E7            L0029:  494C
L1127:  04FD            L0030:  454C
L0178:  0508            L0031:  4153
L0366:  0509            L0032:  5941
L0089:  0518            L0033:  4D4F
L0091:  053D            L0034:  4D44
L0097:  0576            L0035:  534C
L0099:  0598            L0036:  4545
L0103:  05D9            L0037:  4F43
L0101:  05E1            L0038:  544F
L0616:  05F7            L0039:  5841
L0104:  05FB            L0040:  4C41
L0106:  0605            L0041:  4E45
L0357:  0611            L0042:  4241
L0107:  0622            L0043:  D54F
L0109:  062B            L0044:  5253
L0194:  062D            L0045:  4548
L0096:  062F            L0046:  444F
L0110:  0632            L0047:  BDBE
L0094:  064D            L0048:  4F50
L0114:  0655            L0049:  444E
L0115:  0685            L0050:  474F
L0116:  069E            L0051:  534F
L0117:  06A0            L0052:  4E41
L0121:  06B0            L0053:  434F
L0119:  06BF            L0054:  464F
L0120:  06C8            L0055:  4E53
L0118:  06D0            L0056:  4244
L0122:  06E2            L0057:  5248
L0123:  06F0            L0058:  4749
L0111:  06F1            L0059:  4449
L0124:  06FF            L0060:  3D09
L0125:  0702            L0061:  B234
L0126:  070C            L0062:  D637
L0127:  070D            L0063:  E737
L0112:  0716            L0064:  143C
L0113:  071D            L0065:  F60F
L0131:  0741            L0066:  0018
L0130:  075F            L0067:  00FC
L0135:  0798            L0068:  0420
L0143:  07BE            L0069:  040C
L0136:  07CF            L0070:  0494
L0140:  07F1            L0071:  0441
L0148:  07F2            L0072:  0464
L0145:  07F8            L0073:  4092
L0150:  07FE            L0074:  047A
L1143:  0807            L0075:  0491
L0700:  080B            L0076:  3F54
L0543:  0818            L0077:  04BD
L0079:  0832            L0078:  04CC
L0155:  0841            L0079:  0832
L0220:  0846            L0080:  4B86
L0202:  0847            L0081:  04E2
L0003:  085F            L0082:  04E4
L0158:  0873            L0083:  04E7
L0159:  088D            L0084:  278A
L0160:  0893            L0085:  39A5
L0162:  08A2            L0086:  4B65
L0161:  08A8            L0087:  4F0C
L0164:  08C3            L0088:  45F8
L0165:  08CE            L0089:  0518
L1256:  08DD            L0090:  08F2
L1129:  08DE            L0091:  053D
L0214:  08E2            L0092:  41F6
L0108:  08E7            L0093:  3430
L0090:  08F2            L0094:  064D
L0203:  08F3            L0095:  4EE3
L0168:  08F6            L0096:  062F
L0167:  0913            L0097:  0576
L0916:  0915            L0098:  0954
L0171:  093C            L0099:  0598
L0219:  093D            L0100:  1275
L0209:  0940            L0101:  05E1
L0098:  0954            L0102:  3ECC
L1123:  0959            L0103:  05D9
L0174:  0979            L0104:  05FB
L0175:  098E            L0105:  3F04
L0177:  099F            L0106:  0605
L0261:  09A4            L0107:  0622
L0129:  09A5            L0108:  08E7
L0172:  09A7            L0109:  062B
L0179:  09AB            L0110:  0632
L0180:  09AE            L0111:  06F1
L0128:  09CA            L0112:  0716
L0181:  09DD            L0113:  071D
L0271:  09DE            L0114:  0655
L0183:  09ED            L0115:  0685
L0185:  09F8            L0116:  069E
L0189:  0A23            L0117:  06A0
L0187:  0A24            L0118:  06D0
L0188:  0A2C            L0119:  06BF
L0186:  0A30            L0120:  06C8
L0193:  0A4F            L0121:  06B0
L0192:  0A62            L0122:  06E2
L0199:  0A6D            L0123:  06F0
L0197:  0A85            L0124:  06FF
L0196:  0A9B            L0125:  0702
L0201:  0AA8            L0126:  070C
L0204:  0AA9            L0127:  070D
L0205:  0AC7            L0128:  09CA
L0207:  0AE2            L0129:  09A5
L0208:  0AE7            L0130:  075F
L0210:  0AEC            L0131:  0741
L0211:  0B01            L0132:  3EDB
L0212:  0B0F            L0133:  0462
L0215:  0B32            L0134:  0DB2
L0222:  0B3A            L0135:  0798
L0218:  0B41            L0136:  07CF
L0221:  0B43            L0137:  34DA
L0223:  0B67            L0138:  1119
L0248:  0B6C            L0139:  33F4
L0236:  0BB2            L0140:  07F1
L0237:  0BC0            L0141:  3593
L0235:  0BC9            L0142:  3460
L0232:  0BCD            L0143:  07BE
L0230:  0BD4            L0144:  343E
L0241:  0BF1            L0145:  07F8
L0242:  0BF9            L0146:  3503
L0240:  0BFF            L0147:  3416
L0229:  0C08            L0148:  07F2
L0246:  0C2A            L0149:  0DB3
L0245:  0C2D            L0150:  07FE
L0243:  0C32            L0151:  6A9D
L0247:  0C36            L0152:  4004
L0231:  0C3B            L0153:  4007
L0227:  0C40            L0154:  13FC
L0274:  0C8E            L0155:  0841
L0258:  0CA0            L0156:  042F
L0252:  0CBB            L0157:  10FB
L0257:  0CDB            L0158:  0873
L0262:  0CE5            L0159:  088D
L0275:  0CED            L0160:  0893
L0263:  0CEF            L0161:  08A8
L0264:  0D15            L0162:  08A2
L0269:  0D32            L0163:  40CD
L0268:  0D35            L0164:  08C3
L0267:  0D44            L0165:  08CE
L0273:  0D56            L0166:  111A
L0277:  0D74            L0167:  0913
L0265:  0D89            L0168:  08F6
L0278:  0DA2            L0169:  4D3C
L0790:  0DAB            L0170:  3F08
L0334:  0DB0            L0171:  093C
L0134:  0DB2            L0172:  09A7
L0149:  0DB3            L0173:  0408
L0285:  0DB5            L0174:  0979
L0343:  0DC1            L0175:  098E
L0281:  0DE3            L0176:  3FA3
L0289:  0DFF            L0177:  099F
L0284:  0E21            L0178:  0508
L0288:  0E29            L0179:  09AB
L0280:  0E30            L0180:  09AE
L0287:  0E32            L0181:  09DD
L0283:  0E4C            L0182:  4746
L0286:  0E58            L0183:  09ED
L0290:  0E8C            L0184:  10DE
L0291:  0EA8            L0185:  09F8
L0294:  0EB8            L0186:  0A30
L0293:  0EBB            L0187:  0A24
L0300:  0EC6            L0188:  0A2C
L0301:  0ECB            L0189:  0A23
L0302:  0ED1            L0190:  290E
L0295:  0EDF            L0191:  2720
L0296:  0EF4            L0192:  0A62
L0292:  0EF7            L0193:  0A4F
L0305:  0EF9            L0194:  062D
L0297:  0EFF            L0195:  1AC8
L0279:  0F23            L0196:  0A9B
L0312:  0F58            L0197:  0A85
L0314:  0F67            L0198:  1AEB
L0322:  0F99            L0199:  0A6D
L0324:  0F9C            L0200:  1135
L0321:  0FAA            L0201:  0AA8
L0339:  0FCD            L0202:  0847
L0310:  0FD3            L0203:  08F3
L0309:  0FE1            L0204:  0AA9
L0495:  0FEF            L0205:  0AC7
L0532:  0FF0            L0206:  0459
L0333:  0FF9            L0207:  0AE2
L0337:  101C            L0208:  0AE7
L0340:  1031            L0209:  0940
L0338:  1035            L0210:  0AEC
L0350:  1038            L0211:  0B01
L0993:  103E            L0212:  0B0F
L0311:  105B            L0213:  408F
L0342:  106D            L0214:  08E2
L0006:  1070            L0215:  0B32
L0346:  1099            L0216:  E52B
L0347:  10A4            L0217:  33EA
L0348:  10AF            L0218:  0B41
L0349:  10BC            L0219:  093D
L0794:  10C6            L0220:  0846
L0313:  10D8            L0221:  0B43
L0184:  10DE            L0222:  0B3A
L0251:  10ED            L0223:  0B67
L0157:  10FB            L0224:  4EF2
L0138:  1119            L0225:  1D28
L0166:  111A            L0226:  4B99
L0356:  111D            L0227:  0C40
L0354:  1126            L0228:  495F
L0244:  1134            L0229:  0C08
L0200:  1135            L0230:  0BD4
L0352:  1138            L0231:  0C3B
L1348:  1147            L0232:  0BCD
L0364:  1151            L0233:  39C1
L0361:  118C            L0234:  2744
L0359:  119B            L0235:  0BC9
L0358:  119C            L0236:  0BB2
L0363:  11A9            L0237:  0BC0
L0362:  11B1            L0238:  4B9F
L0371:  11BD            L0239:  278D
L0367:  11C0            L0240:  0BFF
L0368:  11D4            L0241:  0BF1
L0370:  11E6            L0242:  0BF9
L0369:  11E8            L0243:  0C32
L0375:  1224            L0244:  1134
L0376:  1228            L0245:  0C2D
L0374:  122D            L0246:  0C2A
L0377:  1232            L0247:  0C36
L0372:  123A            L0248:  0B6C
L0373:  1249            L0249:  1C36
L0378:  1252            L0250:  4F22
L0379:  1259            L0251:  10ED
L0381:  1265            L0252:  0CBB
L0100:  1275            L0253:  35B2
L0382:  1279            L0254:  2747
L0384:  12A0            L0255:  0447
L0383:  12AA            L0256:  4EF0
L1218:  12D4            L0257:  0CDB
L0388:  12DD            L0258:  0CA0
L0391:  12F3            L0259:  2745
L0392:  12F4            L0260:  45F2
L0405:  12F9            L0261:  09A4
L0390:  1309            L0262:  0CE5
L0395:  133F            L0263:  0CEF
L0393:  1346            L0264:  0D15
L0400:  1354            L0265:  0D89
L0398:  1361            L0266:  4F14
L0410:  13A2            L0267:  0D44
L0407:  13A8            L0268:  0D35
L0409:  13AE            L0269:  0D32
L0608:  13B8            L0270:  2748
L0402:  13BE            L0271:  09DE
L0406:  13C9            L0272:  3819
L0399:  13CB            L0273:  0D56
L0401:  13D9            L0274:  0C8E
L0397:  13E4            L0275:  0CED
L0154:  13FC            L0276:  4071
L0419:  140B            L0277:  0D74
L0418:  141B            L0278:  0DA2
L0424:  143A            L0279:  0F23
L0064:  143C            L0280:  0E30
L0413:  1450            L0281:  0DE3
L0423:  1462            L0282:  28A5
L0421:  146D            L0283:  0E4C
L0422:  1475            L0284:  0E21
L0425:  147D            L0285:  0DB5
L0610:  1484            L0286:  0E58
L0732:  1496            L0287:  0E32
L0435:  149D            L0288:  0E29
L0427:  14A0            L0289:  0DFF
L0728:  14A5            L0290:  0E8C
L0431:  14AB            L0291:  0EA8
L0428:  14B4            L0292:  0EF7
L0430:  14B6            L0293:  0EBB
L0481:  14BC            L0294:  0EB8
L0484:  14CD            L0295:  0EDF
L0445:  14E9            L0296:  0EF4
L0478:  14F5            L0297:  0EFF
L1161:  14F8            L0298:  345D
L0389:  14F9            L0299:  340B
L0450:  1521            L0300:  0EC6
L0449:  152C            L0301:  0ECB
L0452:  152F            L0302:  0ED1
L0439:  154C            L0303:  33FB
L0440:  1567            L0304:  351C
L0451:  1580            L0305:  0EF9
L0442:  158B            L0306:  37E5
L0454:  15AB            L0307:  045F
L0462:  1600            L0308:  40CE
L0461:  1614            L0309:  0FE1
L0456:  162C            L0310:  0FD3
L0469:  1663            L0311:  105B
L0468:  1674            L0312:  0F58
L0448:  1680            L0313:  10D8
L0474:  16AD            L0314:  0F67
L0471:  16B2            L0315:  37B4
L0476:  16C0            L0316:  18CC
L0475:  16CB            L0317:  18EC
L0482:  16F3            L0318:  191F
L0479:  170A            L0319:  1D64
L0477:  1721            L0320:  1D82
L0485:  1729            L0321:  0FAA
L0455:  1735            L0322:  0F99
L0458:  1744            L0323:  4C52
L0460:  1754            L0324:  0F9C
L0487:  175A            L0325:  4803
L0490:  178E            L0326:  34E9
L0465:  17C4            L0327:  2A10
L0489:  17C8            L0328:  4BB8
L0496:  17FA            L0329:  2946
L0498:  180B            L0330:  4E5A
L0497:  1810            L0331:  1D59
L0499:  182C            L0332:  503A
L0502:  1836            L0333:  0FF9
L0508:  1885            L0334:  0DB0
L0507:  1887            L0335:  33CF
L0459:  188F            L0336:  3457
L0443:  18A2            L0337:  101C
L0467:  18A5            L0338:  1035
L0511:  18A8            L0339:  0FCD
L0510:  18C8            L0340:  1031
L0316:  18CC            L0341:  33E3
L0513:  18D7            L0342:  106D
L0520:  18E8            L0343:  0DC1
L0317:  18EC            L0344:  37B8
L0517:  18F7            L0345:  3757
L0518:  1912            L0346:  1099
L0318:  191F            L0347:  10A4
L0522:  192C            L0348:  10AF
L0512:  1957            L0349:  10BC
L0521:  1959            L0350:  1038
L0516:  1960            L0351:  2A9B
L0524:  1963            L0352:  1138
L0519:  1964            L0353:  F671
L0515:  196A            L0354:  1126
L0531:  197D            L0355:  F66E
L0535:  19CA            L0356:  111D
L0534:  19CD            L0357:  0611
L0533:  19EB            L0358:  119C
L0529:  19F8            L0359:  119B
L0538:  19FA            L0360:  39AD
L0527:  1A0E            L0361:  118C
L0530:  1A36            L0362:  11B1
L0539:  1A61            L0363:  11A9
L0537:  1A62            L0364:  1151
L0526:  1A71            L0365:  5BA2
L0541:  1A75            L0366:  0509
L0545:  1A78            L0367:  11C0
L0568:  1A7E            L0368:  11D4
L0569:  1A8F            L0369:  11E8
L0546:  1A92            L0370:  11E6
L0544:  1AA0            L0371:  11BD
L0542:  1AB6            L0372:  123A
L0195:  1AC8            L0373:  1249
L0198:  1AEB            L0374:  122D
L0011:  1AFB            L0375:  1224
L0552:  1B2E            L0376:  1228
L0554:  1B3B            L0377:  1232
L0553:  1B51            L0378:  1252
L0555:  1B55            L0379:  1259
L0557:  1B74            L0380:  27BB
L0551:  1B77            L0381:  1265
L0403:  1B7A            L0382:  1279
L0563:  1B8D            L0383:  12AA
L0561:  1B9C            L0384:  12A0
L0565:  1BA3            L0385:  3471
L0564:  1BA9            L0386:  045C
L0566:  1BB4            L0387:  37CD
L0567:  1BB6            L0388:  12DD
L0560:  1BBF            L0389:  14F9
L0572:  1C01            L0390:  1309
L0570:  1C11            L0391:  12F3
L0571:  1C17            L0392:  12F4
L0578:  1C23            L0393:  1346
L0249:  1C36            L0394:  2116
L0580:  1C5B            L0395:  133F
L0579:  1C5D            L0396:  6F60
L0583:  1C78            L0397:  13E4
L0585:  1C7A            L0398:  1361
L0582:  1C85            L0399:  13CB
L0581:  1C9B            L0400:  1354
L0584:  1CA2            L0401:  13D9
L0586:  1CAD            L0402:  13BE
L0587:  1CB8            L0403:  1B7A
L0588:  1CC3            L0404:  6F2E
L0589:  1CC8            L0405:  12F9
L0595:  1CD5            L0406:  13C9
L0592:  1CEB            L0407:  13A8
L0593:  1CF0            L0408:  1E29
L0575:  1CF7            L0409:  13AE
L0596:  1D1D            L0410:  13A2
L0225:  1D28            L0411:  4266
L0597:  1D38            L0412:  4284
L0331:  1D59            L0413:  1450
L0600:  1D5E            L0414:  4225
L0319:  1D64            L0415:  423E
L0599:  1D7B            L0416:  422A
L0320:  1D82            L0417:  6F73
L0602:  1DAE            L0418:  141B
L0601:  1DAF            L0419:  140B
L0604:  1DBE            L0420:  4076
L0606:  1DDD            L0421:  146D
L0605:  1DE4            L0422:  1475
L0607:  1E05            L0423:  1462
L0408:  1E29            L0424:  143A
L0612:  1E32            L0425:  147D
L0611:  1E34            L0426:  6A6D
L1337:  1E46            L0427:  14A0
L0613:  1E5C            L0428:  14B4
L0617:  1E85            L0429:  6C6F
L0614:  1E92            L0430:  14B6
L1344:  1EA4            L0431:  14AB
L0619:  1EC3            L0432:  6C30
L0622:  1ED3            L0433:  6D2D
L0620:  1EDB            L0434:  6D14
L0628:  1F0F            L0435:  149D
L0633:  1F12            L0436:  6C45
L0629:  1F1E            L0437:  5015
L0631:  1F30            L0438:  42F9
L0632:  1F4C            L0439:  154C
L0635:  1F73            L0440:  1567
L0453:  1F90            L0441:  21E7
L0639:  1F97            L0442:  158B
L0641:  1FA2            L0443:  18A2
L0681:  1FAA            L0444:  5018
L0637:  1FAB            L0445:  14E9
L1541:  1FC9            L0446:  2060
L0638:  1FD6            L0447:  501E
L0624:  1FE8            L0448:  1680
L0644:  2023            L0449:  152C
L0634:  204B            L0450:  1521
L0623:  2052            L0451:  1580
L0680:  205A            L0452:  152F
L0446:  2060            L0453:  1F90
L0648:  2071            L0454:  15AB
L0615:  2077            L0455:  1735
L0647:  207A            L0456:  162C
L0636:  2080            L0457:  4D27
L0649:  2084            L0458:  1744
L0650:  2091            L0459:  188F
L0630:  20A6            L0460:  1754
L0625:  20B5            L0461:  1614
L0652:  20C3            L0462:  1600
L0697:  20D0            L0463:  251A
L1537:  20FD            L0464:  4E56
L0642:  2104            L0465:  17C4
L0914:  2113            L0466:  688D
L0394:  2116            L0467:  18A5
L0658:  2121            L0468:  1674
L0656:  2128            L0469:  1663
L0655:  214D            L0470:  3EF3
L0654:  2165            L0471:  16B2
L0659:  2168            L0472:  25E6
L0657:  2172            L0473:  262B
L0661:  2186            L0474:  16AD
L0662:  2188            L0475:  16CB
L0660:  219A            L0476:  16C0
L0627:  21AC            L0477:  1721
L0665:  21D2            L0478:  14F5
L0664:  21D5            L0479:  170A
L1431:  21DE            L0480:  26AA
L0441:  21E7            L0481:  14BC
L0626:  2211            L0482:  16F3
L0645:  2219            L0483:  2620
L0643:  2224            L0484:  14CD
L0668:  222D            L0485:  1729
L1128:  223A            L0486:  260D
L0669:  224B            L0487:  175A
L1345:  2260            L0488:  4B23
L0672:  2270            L0489:  17C8
L0679:  2291            L0490:  178E
L0674:  2293            L0491:  6C25
L1343:  22A4            L0492:  6B62
L0670:  22B5            L0493:  6AAE
L0675:  22B9            L0494:  4FEA
L0676:  22CC            L0495:  0FEF
L0677:  231E            L0496:  17FA
L0684:  234A            L0497:  1810
L1338:  235F            L0498:  180B
L0688:  2369            L0499:  182C
L0689:  237E            L0500:  6C0D
L0694:  2382            L0501:  6C0E
L0695:  238F            L0502:  1836
L0691:  2395            L0503:  6BE8
L1880:  23E5            L0504:  5208
L0698:  23EB            L0505:  4C4F
L0701:  23ED            L0506:  5021
L0699:  23FE            L0507:  1887
L0692:  240A            L0508:  1885
L1873:  2424            L0509:  50E4
L0686:  242E            L0510:  18C8
L0708:  244B            L0511:  18A8
L0706:  2450            L0512:  1957
L1336:  2469            L0513:  18D7
L0685:  247F            L0514:  2766
L0709:  248B            L0515:  196A
L0713:  24A3            L0516:  1960
L0710:  24BF            L0517:  18F7
L0717:  24DF            L0518:  1912
L0715:  24F2            L0519:  1964
L0714:  2509            L0520:  18E8
L0719:  250C            L0521:  1959
L0716:  2515            L0522:  192C
L0682:  2518            L0523:  2736
L0463:  251A            L0524:  1963
L1480:  2523            L0525:  7018
L0720:  2545            L0526:  1A71
L0711:  254B            L0527:  1A0E
L0705:  2568            L0528:  7019
L0723:  256A            L0529:  19F8
L0718:  257C            L0530:  1A36
L0724:  25A5            L0531:  197D
L0687:  25BF            L0532:  0FF0
L0703:  25C0            L0533:  19EB
L0725:  25CB            L0534:  19CD
L0671:  25D4            L0535:  19CA
L0726:  25DA            L0536:  28EF
L0727:  25DC            L0537:  1A62
L0673:  25E3            L0538:  19FA
L0472:  25E6            L0539:  1A61
L0678:  25E9            L0540:  3442
L0729:  25FB            L0541:  1A75
L0486:  260D            L0542:  1AB6
L0730:  2615            L0543:  0818
L0483:  2620            L0544:  1AA0
L0704:  2628            L0545:  1A78
L0473:  262B            L0546:  1A92
L0712:  262E            L0547:  3F7C
L0731:  2631            L0548:  3F8E
L0690:  2640            L0549:  3F95
L0733:  2655            L0550:  F5FF
L0734:  265E            L0551:  1B77
L0737:  2682            L0552:  1B2E
L0736:  268E            L0553:  1B51
L0740:  2696            L0554:  1B3B
L0738:  26A1            L0555:  1B55
L0739:  26A3            L0556:  3FAE
L0735:  26A6            L0557:  1B74
L0480:  26AA            L0558:  739C
L0693:  26B6            L0559:  7080
L0696:  26BC            L0560:  1BBF
L0741:  26BF            L0561:  1B9C
L0744:  26FB            L0562:  41FE
L0191:  2720            L0563:  1B8D
L0771:  2734            L0564:  1BA9
L0523:  2736            L0565:  1BA3
L0748:  2739            L0566:  1BB4
L0234:  2744            L0567:  1BB6
L0259:  2745            L0568:  1A7E
L0254:  2747            L0569:  1A8F
L0270:  2748            L0570:  1C11
L0751:  274B            L0571:  1C17
L0750:  275A            L0572:  1C01
L0514:  2766            L0573:  57C1
L0084:  278A            L0574:  69B3
L0239:  278D            L0575:  1CF7
L0753:  2794            L0576:  7166
L0747:  27A1            L0577:  7167
L0380:  27BB            L0578:  1C23
L0754:  27BD            L0579:  1C5D
L0795:  27CA            L0580:  1C5B
L0765:  27CD            L0581:  1C9B
L0759:  27F6            L0582:  1C85
L0757:  280C            L0583:  1C78
L0756:  2813            L0584:  1CA2
L0763:  2834            L0585:  1C7A
L0760:  2835            L0586:  1CAD
L0755:  2860            L0587:  1CB8
L0758:  2861            L0588:  1CC3
L0761:  2881            L0589:  1CC8
L0282:  28A5            L0590:  F667
L0767:  28DD            L0591:  F66C
L0749:  28E5            L0592:  1CEB
L0768:  28E6            L0593:  1CF0
L0536:  28EF            L0594:  F66A
L0746:  28F2            L0595:  1CD5
L0766:  28F5            L0596:  1D1D
L0743:  28F6            L0597:  1D38
L0769:  290C            L0598:  4258
L0190:  290E            L0599:  1D7B
L0770:  2920            L0600:  1D5E
L0774:  292C            L0601:  1DAF
L1316:  293E            L0602:  1DAE
L0776:  2942            L0603:  6FB4
L0329:  2946            L0604:  1DBE
L0772:  2960            L0605:  1DE4
L0773:  2963            L0606:  1DDD
L0775:  296C            L0607:  1E05
L0777:  297B            L0608:  13B8
L0780:  2988            L0609:  4B6E
L1301:  298B            L0610:  1484
L0779:  2994            L0611:  1E34
L0778:  2A08            L0612:  1E32
L0781:  2A0B            L0613:  1E5C
L0327:  2A10            L0614:  1E92
L0783:  2A2C            L0615:  2077
L0787:  2A6F            L0616:  05F7
L0786:  2A72            L0617:  1E85
L0788:  2A84            L0618:  4D5B
L0785:  2A87            L0619:  1EC3
L0784:  2A90            L0620:  1EDB
L0351:  2A9B            L0621:  4DD9
L0789:  2AC2            L0622:  1ED3
L0791:  2AF3            L0623:  2052
L0792:  2B0B            L0624:  1FE8
L0782:  2B16            L0625:  20B5
L0793:  2B22            L0626:  2211
L0872:  2B42            L0627:  21AC
L1144:  2B4E            L0628:  1F0F
L0892:  2B51            L0629:  1F1E
L0796:  2B57            L0630:  20A6
L0800:  2B6E            L0631:  1F30
L0799:  2B7B            L0632:  1F4C
L0802:  2BB4            L0633:  1F12
L0840:  2BB7            L0634:  204B
L0808:  2BBD            L0635:  1F73
L0807:  2BCC            L0636:  2080
L0810:  2BD7            L0637:  1FAB
L0814:  2BEA            L0638:  1FD6
L0812:  2BF0            L0639:  1F97
L0804:  2C00            L0640:  68BF
L0931:  2C05            L0641:  1FA2
L0815:  2C0C            L0642:  2104
L0803:  2C1F            L0643:  2224
L0832:  2C27            L0644:  2023
L0816:  2C28            L0645:  2219
L0806:  2C33            L0646:  4BDD
L0817:  2C3D            L0647:  207A
L0818:  2C43            L0648:  2071
L0819:  2C5F            L0649:  2084
L0811:  2C6D            L0650:  2091
L0851:  2C70            L0651:  502D
L0821:  2C74            L0652:  20C3
L0820:  2C76            L0653:  4DF0
L0801:  2C86            L0654:  2165
L0824:  2CA9            L0655:  214D
L0827:  2CB3            L0656:  2128
L0826:  2CB8            L0657:  2172
L0825:  2CBB            L0658:  2121
L0805:  2CCB            L0659:  2168
L0828:  2CCE            L0660:  219A
L0822:  2CD3            L0661:  2186
L0890:  2CD8            L0662:  2188
L0829:  2CFF            L0663:  689F
L0830:  2D19            L0664:  21D5
L0905:  2D24            L0665:  21D2
L0834:  2D41            L0666:  4BD9
L0833:  2D4B            L0667:  6881
L0837:  2D51            L0668:  222D
L0838:  2D58            L0669:  224B
L0835:  2D5F            L0670:  22B5
L0836:  2D6E            L0671:  25D4
L0862:  2D81            L0672:  2270
L0831:  2D88            L0673:  25E3
L0842:  2D8E            L0674:  2293
L0841:  2D91            L0675:  22B9
L0882:  2DA0            L0676:  22CC
L0845:  2DCA            L0677:  231E
L0844:  2DCD            L0678:  25E9
L0847:  2DE3            L0679:  2291
L0846:  2DEE            L0680:  205A
L0858:  2DFC            L0681:  1FAA
L0861:  2DFE            L0682:  2518
L0849:  2E0C            L0683:  68FB
L0848:  2E11            L0684:  234A
L0850:  2E38            L0685:  247F
L0855:  2E64            L0686:  242E
L0856:  2E76            L0687:  25BF
L0854:  2E7F            L0688:  2369
L0853:  2E85            L0689:  237E
L0852:  2E94            L0690:  2640
L0859:  2E9F            L0691:  2395
L0860:  2EA4            L0692:  240A
L0857:  2EA8            L0693:  26B6
L0813:  2EB6            L0694:  2382
L0823:  2EBF            L0695:  238F
L0878:  2EC8            L0696:  26BC
L0880:  2EE2            L0697:  20D0
L0866:  2EE8            L0698:  23EB
L0874:  2F22            L0699:  23FE
L0873:  2F2B            L0700:  080B
L0883:  2F72            L0701:  23ED
L0885:  2FA2            L0702:  4D74
L1087:  2FA8            L0703:  25C0
L0887:  2FC6            L0704:  2628
L0894:  3055            L0705:  2568
L1088:  307D            L0706:  2450
L0897:  30A1            L0707:  54B6
L0896:  30A4            L0708:  244B
L0899:  30C6            L0709:  248B
L0902:  3109            L0710:  24BF
L0903:  314C            L0711:  254B
L1105:  315B            L0712:  262E
L0886:  316D            L0713:  24A3
L0864:  3173            L0714:  2509
L0888:  3179            L0715:  24F2
L0863:  317C            L0716:  2515
L0884:  3188            L0717:  24DF
L0870:  318E            L0718:  257C
L0876:  3191            L0719:  250C
L0907:  3194            L0720:  2545
L0895:  319A            L0721:  54BC
L0875:  319D            L0722:  4205
L0901:  31A3            L0723:  256A
L0904:  31A6            L0724:  25A5
L0879:  31AB            L0725:  25CB
L0867:  31BC            L0726:  25DA
L0900:  31C4            L0727:  25DC
L0877:  31D0            L0728:  14A5
L0889:  31E2            L0729:  25FB
L0908:  31F0            L0730:  2615
L0893:  3207            L0731:  2631
L0868:  320D            L0732:  1496
L0909:  3210            L0733:  2655
L0910:  3213            L0734:  265E
L0881:  321E            L0735:  26A6
L0871:  3224            L0736:  268E
L0911:  3227            L0737:  2682
L0912:  322A            L0738:  26A1
L0008:  33B5            L0739:  26A3
L0926:  33C0            L0740:  2696
L0919:  33C1            L0741:  26BF
L0745:  33C2            L0742:  4239
L0809:  33C6            L0743:  28F6
L0335:  33CF            L0744:  26FB
L0865:  33D6            L0745:  33C2
L0341:  33E3            L0746:  28F2
L0217:  33EA            L0747:  27A1
L0139:  33F4            L0748:  2739
L0303:  33FB            L0749:  28E5
L0299:  340B            L0750:  275A
L0147:  3416            L0751:  274B
L1137:  3420            L0752:  342B
L0762:  3429            L0753:  2794
L0752:  342B            L0754:  27BD
L0093:  3430            L0755:  2860
L1138:  3432            L0756:  2813
L0797:  343A            L0757:  280C
L0144:  343E            L0758:  2861
L0918:  3441            L0759:  27F6
L0540:  3442            L0760:  2835
L0839:  344B            L0761:  2881
L0798:  3454            L0762:  3429
L0336:  3457            L0763:  2834
L0298:  345D            L0764:  3ECF
L0142:  3460            L0765:  27CD
L0921:  3463            L0766:  28F5
L0385:  3471            L0767:  28DD
L0922:  3489            L0768:  28E6
L1141:  349B            L0769:  290C
L0923:  34A8            L0770:  2920
L0906:  34AB            L0771:  2734
L0925:  34C3            L0772:  2960
L0924:  34D0            L0773:  2963
L0137:  34DA            L0774:  292C
L0326:  34E9            L0775:  296C
L0977:  34EC            L0776:  2942
L0942:  34EE            L0777:  297B
L1000:  34F2            L0778:  2A08
L0961:  34FF            L0779:  2994
L0146:  3503            L0780:  2988
L0928:  3519            L0781:  2A0B
L0304:  351C            L0782:  2B16
L0976:  351D            L0783:  2A2C
L0939:  353E            L0784:  2A90
L0933:  3547            L0785:  2A87
L0934:  3564            L0786:  2A72
L0936:  3575            L0787:  2A6F
L0937:  3579            L0788:  2A84
L0935:  357A            L0789:  2AC2
L0938:  3583            L0790:  0DAB
L0141:  3593            L0791:  2AF3
L0891:  359B            L0792:  2B0B
L0898:  35A8            L0793:  2B22
L0929:  35AD            L0794:  10C6
L0941:  35AF            L0795:  27CA
L0253:  35B2            L0796:  2B57
L0927:  35B7            L0797:  343A
L0943:  35CF            L0798:  3454
L0946:  35D6            L0799:  2B7B
L0944:  35E4            L0800:  2B6E
L0945:  35E5            L0801:  2C86
L0947:  3616            L0802:  2BB4
L0869:  362D            L0803:  2C1F
L0948:  363F            L0804:  2C00
L0950:  3653            L0805:  2CCB
L0949:  3661            L0806:  2C33
L0951:  366E            L0807:  2BCC
L0955:  3676            L0808:  2BBD
L0952:  3681            L0809:  33C6
L0954:  368C            L0810:  2BD7
L0953:  3690            L0811:  2C6D
L1265:  36B1            L0812:  2BF0
L0959:  36BC            L0813:  2EB6
L0958:  36CA            L0814:  2BEA
L0956:  36CE            L0815:  2C0C
L1140:  36DD            L0816:  2C28
L0960:  36E0            L0817:  2C3D
L1100:  36FE            L0818:  2C43
L0965:  3710            L0819:  2C5F
L0964:  371E            L0820:  2C76
L0974:  3724            L0821:  2C74
L0966:  372E            L0822:  2CD3
L0963:  3738            L0823:  2EBF
L0969:  373A            L0824:  2CA9
L0968:  3749            L0825:  2CBB
L0345:  3757            L0826:  2CB8
L0973:  3770            L0827:  2CB3
L0972:  377B            L0828:  2CCE
L0971:  377C            L0829:  2CFF
L0962:  3793            L0830:  2D19
L0975:  379A            L0831:  2D88
L0967:  379B            L0832:  2C27
L0932:  379F            L0833:  2D4B
L0920:  37A9            L0834:  2D41
L0315:  37B4            L0835:  2D5F
L0344:  37B8            L0836:  2D6E
L0387:  37CD            L0837:  2D51
L0970:  37DC            L0838:  2D58
L0306:  37E5            L0839:  344B
L0978:  3800            L0840:  2BB7
L1049:  3813            L0841:  2D91
L1033:  3815            L0842:  2D8E
L1262:  3817            L0843:  0450
L0272:  3819            L0844:  2DCD
L0979:  3830            L0845:  2DCA
L0982:  3840            L0846:  2DEE
L0984:  3856            L0847:  2DE3
L0985:  3862            L0848:  2E11
L0983:  3863            L0849:  2E0C
L0986:  387C            L0850:  2E38
L0987:  387D            L0851:  2C70
L0996:  3889            L0852:  2E94
L0995:  389E            L0853:  2E85
L0994:  38A3            L0854:  2E7F
L0991:  38AA            L0855:  2E64
L0997:  38C1            L0856:  2E76
L0999:  38D5            L0857:  2EA8
L0998:  38DA            L0858:  2DFC
L0981:  38DD            L0859:  2E9F
L1001:  38F0            L0860:  2EA4
L0988:  38F3            L0861:  2DFE
L0989:  3902            L0862:  2D81
L0990:  3903            L0863:  317C
L0992:  390A            L0864:  3173
L0980:  3919            L0865:  33D6
L1002:  3926            L0866:  2EE8
L1003:  3931            L0867:  31BC
L1009:  395B            L0868:  320D
L1006:  3961            L0869:  362D
L1005:  3963            L0870:  318E
L1004:  3966            L0871:  3224
L1007:  397A            L0872:  2B42
L1008:  398D            L0873:  2F2B
L1010:  39A0            L0874:  2F22
L0085:  39A5            L0875:  319D
L0360:  39AD            L0876:  3191
L0233:  39C1            L0877:  31D0
L1296:  39C2            L0878:  2EC8
L1013:  39CC            L0879:  31AB
L1011:  39DE            L0880:  2EE2
L1034:  39FA            L0881:  321E
L1018:  3A17            L0882:  2DA0
L1019:  3A35            L0883:  2F72
L1020:  3A38            L0884:  3188
L1021:  3A41            L0885:  2FA2
L1016:  3A48            L0886:  316D
L1022:  3A62            L0887:  2FC6
L1025:  3A71            L0888:  3179
L1062:  3A81            L0889:  31E2
L1027:  3A8D            L0890:  2CD8
L1028:  3A8F            L0891:  359B
L1015:  3A9B            L0892:  2B51
L1026:  3A9C            L0893:  3207
L1014:  3AA3            L0894:  3055
L1048:  3ABF            L0895:  319A
L1056:  3AC8            L0896:  30A4
L1035:  3AD2            L0897:  30A1
L1036:  3AD7            L0898:  35A8
L1040:  3AD8            L0899:  30C6
L1039:  3B09            L0900:  31C4
L1038:  3B0B            L0901:  31A3
L1037:  3B13            L0902:  3109
L1029:  3B1B            L0903:  314C
L1042:  3B37            L0904:  31A6
L1044:  3B5A            L0905:  2D24
L1050:  3B65            L0906:  34AB
L1052:  3B80            L0907:  3194
L1053:  3B91            L0908:  31F0
L1055:  3B9C            L0909:  3210
L1030:  3BA5            L0910:  3213
L1041:  3BAB            L0911:  3227
L1057:  3BDD            L0912:  322A
L1058:  3BE4            L0913:  6813
L1060:  3C0A            L0914:  2113
L1061:  3C14            L0915:  9064
L1032:  3C1D            L0916:  0915
L1063:  3C1E            L0917:  7076
L1059:  3C26            L0918:  3441
L1064:  3C29            L0919:  33C1
L1046:  3C2D            L0920:  37A9
L1045:  3C34            L0921:  3463
L1065:  3C39            L0922:  3489
L1031:  3C41            L0923:  34A8
L1023:  3C49            L0924:  34D0
L1067:  3C52            L0925:  34C3
L1047:  3C5C            L0926:  33C0
L1066:  3C5D            L0927:  35B7
L1054:  3C60            L0928:  3519
L1068:  3C68            L0929:  35AD
L1024:  3C70            L0930:  3CDD
L1071:  3C7D            L0931:  2C05
L1069:  3C8C            L0932:  379F
L1070:  3C8D            L0933:  3547
L1017:  3C9C            L0934:  3564
L1074:  3CA2            L0935:  357A
L1073:  3CB5            L0936:  3575
L1072:  3CCD            L0937:  3579
L0930:  3CDD            L0938:  3583
L1012:  3CEA            L0939:  353E
L1051:  3D06            L0940:  FF9C
L0060:  3D09            L0941:  35AF
L1076:  3D16            L0942:  34EE
L1075:  3D28            L0943:  35CF
L1043:  3D2E            L0944:  35E4
L1077:  3D40            L0945:  35E5
L1079:  3D44            L0946:  35D6
L1078:  3D55            L0947:  3616
L1085:  3DB7            L0948:  363F
L1083:  3DBB            L0949:  3661
L1080:  3DD5            L0950:  3653
L1089:  3DDB            L0951:  366E
L1081:  3DE0            L0952:  3681
L1091:  3DE8            L0953:  3690
L1090:  3DEB            L0954:  368C
L1084:  3DEE            L0955:  3676
L1096:  3DFD            L0956:  36CE
L1092:  3E0D            L0957:  48C4
L1086:  3E2C            L0958:  36CA
L1097:  3E3F            L0959:  36BC
L1094:  3E5E            L0960:  36E0
L1095:  3E7A            L0961:  34FF
L1098:  3E8D            L0962:  3793
L1099:  3E9F            L0963:  3738
L1093:  3EAB            L0964:  371E
L1082:  3EB8            L0965:  3710
L0102:  3ECC            L0966:  372E
L0764:  3ECF            L0967:  379B
L1102:  3ED2            L0968:  3749
L0132:  3EDB            L0969:  373A
L1101:  3EE4            L0970:  37DC
L0470:  3EF3            L0971:  377C
L0105:  3F04            L0972:  377B
L0170:  3F08            L0973:  3770
L1910:  3F0B            L0974:  3724
L1104:  3F13            L0975:  379A
L1107:  3F49            L0976:  351D
L0076:  3F54            L0977:  34EC
L0547:  3F7C            L0978:  3800
L1108:  3F8C            L0979:  3830
L0548:  3F8E            L0980:  3919
L0549:  3F95            L0981:  38DD
L1110:  3F9C            L0982:  3840
L0176:  3FA3            L0983:  3863
L0556:  3FAE            L0984:  3856
L1112:  3FBD            L0985:  3862
L1113:  3FC2            L0986:  387C
L1109:  3FC4            L0987:  387D
L1122:  3FCD            L0988:  38F3
L1114:  3FD6            L0989:  3902
L1111:  3FD8            L0990:  3903
L1103:  3FE5            L0991:  38AA
L1115:  3FEB            L0992:  390A
L1116:  3FFA            L0993:  103E
L0152:  4004            L0994:  38A3
L0153:  4007            L0995:  389E
L1875:  4020            L0996:  3889
L1120:  4021            L0997:  38C1
L1121:  4027            L0998:  38DA
L1117:  402E            L0999:  38D5
L1119:  4030            L1000:  34F2
L1118:  4051            L1001:  38F0
L1106:  405B            L1002:  3926
L1124:  4070            L1003:  3931
L0276:  4071            L1004:  3966
L0420:  4076            L1005:  3963
L1125:  4085            L1006:  3961
L0213:  408F            L1007:  397A
L0073:  4092            L1008:  398D
L1126:  40A6            L1009:  395B
L0163:  40CD            L1010:  39A0
L0308:  40CE            L1011:  39DE
L1131:  4115            L1012:  3CEA
L1130:  411C            L1013:  39CC
L0014:  4145            L1014:  3AA3
L0022:  414F            L1015:  3A9B
L1393:  4152            L1016:  3A48
L0031:  4153            L1017:  3C9C
L1392:  4157            L1018:  3A17
L1135:  4173            L1019:  3A35
L1134:  4197            L1020:  3A38
L1139:  41C0            L1021:  3A41
L1136:  41D2            L1022:  3A62
L1142:  41E4            L1023:  3C49
L0092:  41F6            L1024:  3C70
L0562:  41FE            L1025:  3A71
L0722:  4205            L1026:  3A9C
L1151:  4209            L1027:  3A8D
L1478:  420D            L1028:  3A8F
L1159:  4211            L1029:  3B1B
L1146:  4216            L1030:  3BA5
L1444:  421B            L1031:  3C41
L1394:  4220            L1032:  3C1D
L0414:  4225            L1033:  3815
L0416:  422A            L1034:  39FA
L1152:  422F            L1035:  3AD2
L1619:  4234            L1036:  3AD7
L0742:  4239            L1037:  3B13
L0415:  423E            L1038:  3B0B
L0042:  4241            L1039:  3B09
L1156:  4243            L1040:  3AD8
L0056:  4244            L1041:  3BAB
L1160:  4245            L1042:  3B37
L1153:  424A            L1043:  3D2E
L1145:  424C            L1044:  3B5A
L1147:  4253            L1045:  3C34
L0598:  4258            L1046:  3C2D
L0411:  4266            L1047:  3C5C
L1395:  4281            L1048:  3ABF
L0412:  4284            L1049:  3813
L1149:  429A            L1050:  3B65
L1158:  42AD            L1051:  3D06
L1154:  42BB            L1052:  3B80
L1155:  42C7            L1053:  3B91
L1312:  42ED            L1054:  3C60
L0438:  42F9            L1055:  3B9C
L1162:  430A            L1056:  3AC8
L1214:  4310            L1057:  3BDD
L1164:  431F            L1058:  3BE4
L1184:  432D            L1059:  3C26
L0053:  434F            L1060:  3C0A
L1168:  4353            L1061:  3C14
L1174:  4358            L1062:  3A81
L1186:  4382            L1063:  3C1E
L1188:  4389            L1064:  3C29
L1180:  4392            L1065:  3C39
L1177:  4393            L1066:  3C5D
L1167:  43DA            L1067:  3C52
L1176:  43F1            L1068:  3C68
L1178:  4406            L1069:  3C8C
L1175:  4425            L1070:  3C8D
L1171:  4433            L1071:  3C7D
L1181:  443C            L1072:  3CCD
L1198:  4441            L1073:  3CB5
L0059:  4449            L1074:  3CA2
L0049:  444E            L1075:  3D28
L0046:  444F            L1076:  3D16
L1172:  4457            L1077:  3D40
L1183:  445B            L1078:  3D55
L1185:  4460            L1079:  3D44
L1201:  4476            L1080:  3DD5
L1187:  4478            L1081:  3DE0
L1173:  4491            L1082:  3EB8
L1193:  449C            L1083:  3DBB
L1192:  449F            L1084:  3DEE
L1195:  44C4            L1085:  3DB7
L1194:  44C7            L1086:  3E2C
L1190:  44DC            L1087:  2FA8
L1169:  44E9            L1088:  307D
L1199:  44EF            L1089:  3DDB
L1189:  44F5            L1090:  3DEB
L1203:  44F7            L1091:  3DE8
L1200:  44FA            L1092:  3E0D
L1204:  450E            L1093:  3EAB
L1170:  451D            L1094:  3E5E
L1191:  4523            L1095:  3E7A
L1196:  4543            L1096:  3DFD
L0036:  4545            L1097:  3E3F
L0045:  4548            L1098:  3E8D
L0030:  454C            L1099:  3E9F
L1205:  4557            L1100:  36FE
L1208:  4562            L1101:  3EE4
L1197:  4566            L1102:  3ED2
L1210:  4581            L1103:  3FE5
L1202:  4587            L1104:  3F13
L1211:  4596            L1105:  315B
L1150:  45A1            L1106:  405B
L1418:  45B5            L1107:  3F49
L1213:  45BA            L1108:  3F8C
L1212:  45BC            L1109:  3FC4
L1416:  45D3            L1110:  3F9C
L1216:  45D8            L1111:  3FD8
L1215:  45DA            L1112:  3FBD
L0260:  45F2            L1113:  3FC2
L0088:  45F8            L1114:  3FD6
L0026:  4645            L1115:  3FEB
L0054:  464F            L1116:  3FFA
L1221:  4651            L1117:  402E
L1219:  4657            L1118:  4051
L1224:  4660            L1119:  4030
L1223:  4677            L1120:  4021
L1225:  467A            L1121:  4027
L1220:  4683            L1122:  3FCD
L1226:  468B            L1123:  0959
L1222:  468F            L1124:  4070
L1229:  469B            L1125:  4085
L1228:  46A9            L1126:  40A6
L1230:  46B2            L1127:  04FD
L1227:  46B8            L1128:  223A
L1217:  46BA            L1129:  08DE
L1231:  46DF            L1130:  411C
L1236:  46E8            L1131:  4115
L1235:  4705            L1132:  7C1D
L1234:  470A            L1133:  0453
L1233:  4710            L1134:  4197
L1237:  4732            L1135:  4173
L0182:  4746            L1136:  41D2
L0058:  4749            L1137:  3420
L0050:  474F            L1138:  3432
L1239:  475D            L1139:  41C0
L1241:  475E            L1140:  36DD
L1240:  4768            L1141:  349B
L1242:  4784            L1142:  41E4
L1244:  47A7            L1143:  0807
L1250:  47C4            L1144:  2B4E
L1248:  47D9            L1145:  424C
L1247:  47DD            L1146:  4216
L1246:  47F7            L1147:  4253
L0325:  4803            L1148:  579F
L1252:  4807            L1149:  429A
L1251:  480C            L1150:  45A1
L1254:  483E            L1151:  4209
L1249:  484D            L1152:  422F
L1253:  4850            L1153:  424A
L1255:  4862            L1154:  42BB
L1245:  4864            L1155:  42C7
L1257:  486A            L1156:  4243
L1243:  488A            L1157:  001E
L1260:  4890            L1158:  42AD
L1259:  48AB            L1159:  4211
L0957:  48C4            L1160:  4245
L1258:  48CA            L1161:  14F8
L1266:  48EA            L1162:  430A
L1264:  48F2            L1163:  70B4
L1267:  490D            L1164:  431F
L1263:  4928            L1165:  715A
L1269:  492D            L1166:  70C8
L0024:  4946            L1167:  43DA
L0029:  494C            L1168:  4353
L1270:  4953            L1169:  44E9
L1271:  4958            L1170:  451D
L1268:  495B            L1171:  4433
L0228:  495F            L1172:  4457
L1300:  496E            L1173:  4491
L1272:  4977            L1174:  4358
L1273:  4982            L1175:  4425
L1284:  498D            L1176:  43F1
L1277:  4991            L1177:  4393
L1276:  49A2            L1178:  4406
L1285:  49A6            L1179:  FF3E
L1274:  49AA            L1180:  4392
L1282:  49AD            L1181:  443C
L1287:  49ED            L1182:  60ED
L1286:  49F5            L1183:  445B
L1288:  49F9            L1184:  432D
L1280:  49FC            L1185:  4460
L1283:  4A1B            L1186:  4382
L1290:  4A26            L1187:  4478
L1291:  4A32            L1188:  4389
L1289:  4A51            L1189:  44F5
L1294:  4A6C            L1190:  44DC
L1293:  4A71            L1191:  4523
L1302:  4A90            L1192:  449F
L1298:  4AA4            L1193:  449C
L1297:  4AA5            L1194:  44C7
L1281:  4ABE            L1195:  44C4
L1299:  4AC2            L1196:  4543
L1295:  4AC7            L1197:  4566
L1279:  4AD2            L1198:  4441
L1275:  4AD5            L1199:  44EF
L1303:  4B00            L1200:  44FA
L1278:  4B08            L1201:  4476
L0004:  4B12            L1202:  4587
L0488:  4B23            L1203:  44F7
L1307:  4B29            L1204:  450E
L1306:  4B38            L1205:  4557
L1308:  4B49            L1206:  70DD
L1309:  4B4C            L1207:  7098
L1311:  4B4D            L1208:  4562
L0020:  4B53            L1209:  A62F
L1310:  4B5B            L1210:  4581
L0086:  4B65            L1211:  4596
L0609:  4B6E            L1212:  45BC
L1305:  4B78            L1213:  45BA
L0080:  4B86            L1214:  4310
L0226:  4B99            L1215:  45DA
L0238:  4B9F            L1216:  45D8
L1313:  4BA7            L1217:  46BA
L1314:  4BB3            L1218:  12D4
L0328:  4BB8            L1219:  4657
L1315:  4BCC            L1220:  4683
L0666:  4BD9            L1221:  4651
L0646:  4BDD            L1222:  468F
L1317:  4BEF            L1223:  4677
L1322:  4BF9            L1224:  4660
L1324:  4C16            L1225:  467A
L1318:  4C23            L1226:  468B
L1323:  4C26            L1227:  46B8
L1321:  4C2A            L1228:  46A9
L1320:  4C40            L1229:  469B
L0040:  4C41            L1230:  46B2
L1382:  4C4B            L1231:  46DF
L0505:  4C4F            L1232:  4E46
L0323:  4C52            L1233:  4710
L1326:  4C7C            L1234:  470A
L1355:  4C81            L1235:  4705
L1342:  4C8D            L1236:  46E8
L1328:  4CA5            L1237:  4732
L1330:  4CC0            L1238:  5BDA
L1329:  4CCA            L1239:  475D
L1331:  4CCB            L1240:  4768
L1340:  4CE0            L1241:  475E
L1350:  4D06            L1242:  4784
L1332:  4D13            L1243:  488A
L0457:  4D27            L1244:  47A7
L1334:  4D2B            L1245:  4864
L0169:  4D3C            L1246:  47F7
L0034:  4D44            L1247:  47DD
L0018:  4D45            L1248:  47D9
L0013:  4D49            L1249:  484D
L0033:  4D4F            L1250:  47C4
L0618:  4D5B            L1251:  480C
L1540:  4D6C            L1252:  4807
L1339:  4D6D            L1253:  4850
L0702:  4D74            L1254:  483E
L1346:  4DC7            L1255:  4862
L0621:  4DD9            L1256:  08DD
L1347:  4DE6            L1257:  486A
L1341:  4DEB            L1258:  48CA
L0653:  4DF0            L1259:  48AB
L1351:  4DFD            L1260:  4890
L1349:  4E08            L1261:  0456
L1304:  4E1E            L1262:  3817
L1352:  4E31            L1263:  4928
L0052:  4E41            L1264:  48F2
L0041:  4E45            L1265:  36B1
L1232:  4E46            L1266:  48EA
L0019:  4E49            L1267:  490D
L0027:  4E4F            L1268:  495B
L0055:  4E53            L1269:  492D
L0016:  4E55            L1270:  4953
L0464:  4E56            L1271:  4958
L0330:  4E5A            L1272:  4977
L1354:  4E82            L1273:  4982
L1359:  4E93            L1274:  49AA
L1361:  4EA0            L1275:  4AD5
L1358:  4EB2            L1276:  49A2
L1357:  4EBD            L1277:  4991
L1335:  4EC6            L1278:  4B08
L1333:  4ECF            L1279:  4AD2
L1363:  4ED1            L1280:  49FC
L1364:  4ED2            L1281:  4ABE
L1362:  4ED9            L1282:  49AD
L1353:  4EE1            L1283:  4A1B
L0095:  4EE3            L1284:  498D
L0256:  4EF0            L1285:  49A6
L0224:  4EF2            L1286:  49F5
L1366:  4F0A            L1287:  49ED
L0087:  4F0C            L1288:  49F9
L0266:  4F14            L1289:  4A51
L0250:  4F22            L1290:  4A26
L1367:  4F36            L1291:  4A32
L1369:  4F39            L1292:  D1EB
L0037:  4F43            L1293:  4A71
L1368:  4F49            L1294:  4A6C
L0021:  4F4C            L1295:  4AC7
L0048:  4F50            L1296:  39C2
L1370:  4F5E            L1297:  4AA5
L1377:  4F63            L1298:  4AA4
L1375:  4F77            L1299:  4AC2
L1372:  4F9C            L1300:  496E
L1376:  4FAB            L1301:  298B
L1371:  4FB1            L1302:  4A90
L1378:  4FBC            L1303:  4B00
L1373:  4FD1            L1304:  4E1E
L1379:  4FDC            L1305:  4B78
L0494:  4FEA            L1306:  4B38
L1381:  4FEB            L1307:  4B29
L1380:  4FFD            L1308:  4B49
L1374:  500B            L1309:  4B4C
L0437:  5015            L1310:  4B5B
L0444:  5018            L1311:  4B4D
L1365:  501B            L1312:  42ED
L0447:  501E            L1313:  4BA7
L0506:  5021            L1314:  4BB3
L1325:  5024            L1315:  4BCC
L1327:  5027            L1316:  293E
L1356:  502A            L1317:  4BEF
L0651:  502D            L1318:  4C23
L0332:  503A            L1319:  503C
L1319:  503C            L1320:  4C40
L1385:  504C            L1321:  4C2A
L1383:  5057            L1322:  4BF9
L1384:  5062            L1323:  4C26
L1386:  506F            L1324:  4C16
L1388:  507E            L1325:  5024
L1390:  508F            L1326:  4C7C
L1389:  509E            L1327:  5027
L1387:  50A3            L1328:  4CA5
L1391:  50A7            L1329:  4CCA
L0509:  50E4            L1330:  4CC0
L1443:  5107            L1331:  4CCB
L1400:  5115            L1332:  4D13
L1398:  5120            L1333:  4ECF
L1396:  5179            L1334:  4D2B
L1402:  517E            L1335:  4EC6
L1401:  5188            L1336:  2469
L1411:  51D2            L1337:  1E46
L1407:  51ED            L1338:  235F
L0504:  5208            L1339:  4D6D
L1408:  5209            L1340:  4CE0
L1412:  5220            L1341:  4DEB
L1410:  522A            L1342:  4C8D
L1415:  522E            L1343:  22A4
L1409:  5244            L1344:  1EA4
L0023:  5245            L1345:  2260
L0057:  5248            L1346:  4DC7
L0025:  5250            L1347:  4DE6
L0044:  5253            L1348:  1147
L1417:  5274            L1349:  4E08
L1403:  528C            L1350:  4D06
L1404:  529E            L1351:  4DFD
L1405:  52AA            L1352:  4E31
L1419:  52B3            L1353:  4EE1
L1420:  52BB            L1354:  4E82
L1421:  52C2            L1355:  4C81
L0017:  5345            L1356:  502A
L0028:  5349            L1357:  4EBD
L0035:  534C            L1358:  4EB2
L1429:  534E            L1359:  4E93
L0051:  534F            L1360:  0429
L1424:  5372            L1361:  4EA0
L1422:  5375            L1362:  4ED9
L1426:  538E            L1363:  4ED1
L1427:  539B            L1364:  4ED2
L1425:  53B4            L1365:  501B
L1428:  53BB            L1366:  4F0A
L1435:  53EC            L1367:  4F36
L1432:  5400            L1368:  4F49
L1430:  5408            L1369:  4F39
L1413:  540E            L1370:  4F5E
L1438:  5421            L1371:  4FB1
L1440:  543B            L1372:  4F9C
L0012:  5441            L1373:  4FD1
L0015:  5445            L1374:  500B
L1437:  5447            L1375:  4F77
L0038:  544F            L1376:  4FAB
L1441:  545A            L1377:  4F63
L0707:  54B6            L1378:  4FBC
L0721:  54BC            L1379:  4FDC
L1449:  5512            L1380:  4FFD
L1452:  551D            L1381:  4FEB
L1450:  552C            L1382:  4C4B
L1455:  5536            L1383:  5057
L1453:  5548            L1384:  5062
L1462:  555C            L1385:  504C
L1465:  557F            L1386:  506F
L1467:  5582            L1387:  50A3
L1461:  55B3            L1388:  507E
L1464:  55BC            L1389:  509E
L1463:  55C1            L1390:  508F
L1471:  5600            L1391:  50A7
L1470:  5607            L1392:  4157
L1469:  5610            L1393:  4152
L1460:  561C            L1394:  4220
L1472:  5631            L1395:  4281
L1476:  563A            L1396:  5179
L1475:  5643            L1397:  5A73
L1474:  5646            L1398:  5120
L1481:  5694            L1399:  69C7
L1451:  5695            L1400:  5115
L1489:  569A            L1401:  5188
L1487:  56C6            L1402:  517E
L1488:  56D2            L1403:  528C
L1491:  56D9            L1404:  529E
L1454:  56EE            L1405:  52AA
L1456:  570A            L1406:  5A7D
L1493:  5717            L1407:  51ED
L1447:  5734            L1408:  5209
L1531:  5737            L1409:  5244
L1495:  5766            L1410:  522A
L1448:  577B            L1411:  51D2
L1492:  5783            L1412:  5220
L1490:  5785            L1413:  540E
L1496:  5790            L1414:  6F8F
L1446:  579C            L1415:  522E
L1148:  579F            L1416:  45D3
L1500:  57A4            L1417:  5274
L1498:  57A6            L1418:  45B5
L1497:  57B6            L1419:  52B3
L1499:  57B7            L1420:  52BB
L0573:  57C1            L1421:  52C2
L1505:  57CC            L1422:  5375
L1473:  57D4            L1423:  64FF
L1503:  57D9            L1424:  5372
L1502:  57FB            L1425:  53B4
L1501:  57FC            L1426:  538E
L1479:  5806            L1427:  539B
L1477:  5807            L1428:  53BB
L0039:  5841            L1429:  534E
L1504:  5897            L1430:  5408
L1506:  58CC            L1431:  21DE
L1509:  58DE            L1432:  5400
L1508:  58F2            L1433:  684D
L1519:  591F            L1434:  606A
L1517:  592A            L1435:  53EC
L0032:  5941            L1436:  60A3
L1514:  5947            L1437:  5447
L1516:  595A            L1438:  5421
L1511:  5962            L1439:  60B6
L1525:  5963            L1440:  543B
L1521:  5965            L1441:  545A
L1520:  5976            L1442:  6090
L1522:  598D            L1443:  5107
L1518:  5990            L1444:  421B
L1524:  5997            L1445:  5A6D
L1529:  59B0            L1446:  579C
L1523:  59B9            L1447:  5734
L1535:  59BB            L1448:  577B
L1528:  59C2            L1449:  5512
L1526:  59D1            L1450:  552C
L1533:  5A66            L1451:  5695
L1445:  5A6D            L1452:  551D
L1397:  5A73            L1453:  5548
L1406:  5A7D            L1454:  56EE
L1459:  5A84            L1455:  5536
L1494:  5A8A            L1456:  570A
L1458:  5A90            L1457:  7B9E
L1466:  5AA8            L1458:  5A90
L1532:  5AB9            L1459:  5A84
L1468:  5ABE            L1460:  561C
L1510:  5AD1            L1461:  55B3
L1527:  5ADC            L1462:  555C
L1512:  5AE5            L1463:  55C1
L1534:  5AFF            L1464:  55BC
L1515:  5B04            L1465:  557F
L1536:  5B7A            L1466:  5AA8
L0365:  5BA2            L1467:  5582
L1545:  5BB4            L1468:  5ABE
L1238:  5BDA            L1469:  5610
L1538:  5BDD            L1470:  5607
L1543:  5C23            L1471:  5600
L1544:  5C35            L1472:  5631
L1507:  5C44            L1473:  57D4
L1546:  5C4F            L1474:  5646
L1483:  5C85            L1475:  5643
L1539:  5C91            L1476:  563A
L1548:  5CBF            L1477:  5807
L1658:  5CFD            L1478:  420D
L1556:  5DAA            L1479:  5806
L1567:  5DB5            L1480:  2523
L1562:  5DC3            L1481:  5694
L1612:  5DCD            L1482:  F624
L1568:  5E08            L1483:  5C85
L1569:  5E15            L1484:  69BC
L1555:  5E38            L1485:  699F
L1577:  5E4E            L1486:  7CF0
L1564:  5E66            L1487:  56C6
L1574:  5E7B            L1488:  56D2
L1580:  5E86            L1489:  569A
L1571:  5E95            L1490:  5785
L1584:  5E9D            L1491:  56D9
L1585:  5EA3            L1492:  5783
L1588:  5EAF            L1493:  5717
L1589:  5EB5            L1494:  5A8A
L1586:  5EBE            L1495:  5766
L1583:  5EC4            L1496:  5790
L1587:  5ECF            L1497:  57B6
L1590:  5EDA            L1498:  57A6
L1592:  5EF1            L1499:  57B7
L1594:  5F0C            L1500:  57A4
L1646:  5F49            L1501:  57FC
L1593:  5F50            L1502:  57FB
L1595:  5F53            L1503:  57D9
L1597:  5F56            L1504:  5897
L1563:  5F73            L1505:  57CC
L1576:  5F76            L1506:  58CC
L1604:  5F84            L1507:  5C44
L1603:  5F92            L1508:  58F2
L1616:  5F9B            L1509:  58DE
L1627:  5FA4            L1510:  5AD1
L1559:  5FAF            L1511:  5962
L1570:  5FC0            L1512:  5AE5
L1606:  5FD0            L1513:  6730
L1602:  5FD3            L1514:  5947
L1608:  5FE0            L1515:  5B04
L1609:  5FED            L1516:  595A
L1611:  6002            L1517:  592A
L1605:  600E            L1518:  5990
L1579:  6016            L1519:  591F
L1615:  601F            L1520:  5976
L1551:  602B            L1521:  5965
L1573:  6031            L1522:  598D
L1614:  6032            L1523:  59B9
L1582:  603D            L1524:  5997
L1613:  603E            L1525:  5963
L1617:  6064            L1526:  59D1
L1434:  606A            L1527:  5ADC
L1622:  6086            L1528:  59C2
L1442:  6090            L1529:  59B0
L1623:  6093            L1530:  8080
L1436:  60A3            L1531:  5737
L1624:  60AB            L1532:  5AB9
L1439:  60B6            L1533:  5A66
L1575:  60D6            L1534:  5AFF
L1182:  60ED            L1535:  59BB
L1558:  60FB            L1536:  5B7A
L1552:  6105            L1537:  20FD
L1625:  6124            L1538:  5BDD
L1626:  6134            L1539:  5C91
L1632:  617B            L1540:  4D6C
L1630:  618A            L1541:  1FC9
L1629:  618F            L1542:  697B
L1631:  61A8            L1543:  5C23
L1633:  61CB            L1544:  5C35
L1607:  61D2            L1545:  5BB4
L1628:  61D6            L1546:  5C4F
L1638:  61E7            L1547:  62D9
L1634:  6203            L1548:  5CBF
L1635:  6204            L1549:  684A
L1636:  6219            L1550:  66A6
L1554:  6221            L1551:  602B
L1637:  6240            L1552:  6105
L1641:  62AB            L1553:  630C
L1643:  62AF            L1554:  6221
L1654:  62B8            L1555:  5E38
L1565:  62BB            L1556:  5DAA
L1659:  62CB            L1557:  655E
L1566:  62CE            L1558:  60FB
L1648:  62D3            L1559:  5FAF
L1547:  62D9            L1560:  67BB
L1642:  62E3            L1561:  6819
L1647:  62E4            L1562:  5DC3
L1618:  62FF            L1563:  5F73
L1553:  630C            L1564:  5E66
L1645:  6313            L1565:  62BB
L1664:  6320            L1566:  62CE
L1640:  6323            L1567:  5DB5
L1649:  6332            L1568:  5E08
L1651:  635D            L1569:  5E15
L1650:  6374            L1570:  5FC0
L1653:  6398            L1571:  5E95
L1652:  639E            L1572:  6768
L1656:  63FA            L1573:  6031
L1655:  6406            L1574:  5E7B
L1660:  6409            L1575:  60D6
L1662:  6412            L1576:  5F76
L1657:  641E            L1577:  5E4E
L1663:  6447            L1578:  66BE
L1661:  645E            L1579:  6016
L1665:  6480            L1580:  5E86
L1667:  64B7            L1581:  6765
L1668:  64CB            L1582:  603D
L1666:  64D7            L1583:  5EC4
L1669:  64DA            L1584:  5E9D
L1423:  64FF            L1585:  5EA3
L1676:  650C            L1586:  5EBE
L1673:  6527            L1587:  5ECF
L1678:  6547            L1588:  5EAF
L1682:  655B            L1589:  5EB5
L1557:  655E            L1590:  5EDA
L1679:  6575            L1591:  6685
L1674:  657D            L1592:  5EF1
L1684:  6597            L1593:  5F50
L1671:  65A7            L1594:  5F0C
L1672:  65B7            L1595:  5F53
L1675:  65D2            L1596:  67C3
L1686:  65E2            L1597:  5F56
L1687:  65E9            L1598:  675E
L1685:  65F0            L1599:  6859
L1681:  65F9            L1600:  0013
L1688:  6607            L1601:  66EB
L1680:  660F            L1602:  5FD3
L1683:  6628            L1603:  5F92
L1670:  6632            L1604:  5F84
L1692:  6656            L1605:  600E
L1689:  665F            L1606:  5FD0
L1690:  666D            L1607:  61D2
L1691:  6673            L1608:  5FE0
L1677:  667E            L1609:  5FED
L1591:  6685            L1610:  672D
L1693:  668A            L1611:  6002
L1644:  66A1            L1612:  5DCD
L1550:  66A6            L1613:  603E
L1694:  66B3            L1614:  6032
L1578:  66BE            L1615:  601F
L1695:  66EA            L1616:  5F9B
L1601:  66EB            L1617:  6064
L1701:  66FD            L1618:  62FF
L1698:  6714            L1619:  4234
L1702:  6717            L1620:  6775
L1699:  671E            L1621:  6906
L1697:  6724            L1622:  6086
L1610:  672D            L1623:  6093
L1513:  6730            L1624:  60AB
L1703:  6737            L1625:  6124
L1696:  6747            L1626:  6134
L1700:  674E            L1627:  5FA4
L1704:  6752            L1628:  61D6
L1598:  675E            L1629:  618F
L1581:  6765            L1630:  618A
L1572:  6768            L1631:  61A8
L1620:  6775            L1632:  617B
L1705:  6781            L1633:  61CB
L1706:  678C            L1634:  6203
L1708:  6792            L1635:  6204
L1707:  67AA            L1636:  6219
L1560:  67BB            L1637:  6240
L1596:  67C3            L1638:  61E7
L1710:  67CE            L1639:  7CE1
L1709:  67E4            L1640:  6323
L1715:  67E7            L1641:  62AB
L1712:  67F4            L1642:  62E3
L1711:  680E            L1643:  62AF
L0913:  6813            L1644:  66A1
L1561:  6819            L1645:  6313
L1713:  682C            L1646:  5F49
L1714:  683B            L1647:  62E4
L1549:  684A            L1648:  62D3
L1433:  684D            L1649:  6332
L1716:  684F            L1650:  6374
L1599:  6859            L1651:  635D
L1717:  685F            L1652:  639E
L1718:  6870            L1653:  6398
L0667:  6881            L1654:  62B8
L0466:  688D            L1655:  6406
L0663:  689F            L1656:  63FA
L0640:  68BF            L1657:  641E
L1719:  68E3            L1658:  5CFD
L0683:  68FB            L1659:  62CB
L1621:  6906            L1660:  6409
L1542:  697B            L1661:  645E
L1485:  699F            L1662:  6412
L1721:  69AF            L1663:  6447
L0574:  69B3            L1664:  6320
L1484:  69BC            L1665:  6480
L1722:  69C2            L1666:  64D7
L1399:  69C7            L1667:  64B7
L1725:  69C9            L1668:  64CB
L1724:  69CF            L1669:  64DA
L1723:  69EC            L1670:  6632
L1906:  69F6            L1671:  65A7
L1903:  6A10            L1672:  65B7
L1733:  6A4B            L1673:  6527
L1730:  6A4C            L1674:  657D
L1731:  6A6B            L1675:  65D2
L0426:  6A6D            L1676:  650C
L1735:  6A6F            L1677:  667E
L1737:  6A92            L1678:  6547
L1734:  6A9A            L1679:  6575
L0151:  6A9D            L1680:  660F
L1738:  6AA9            L1681:  65F9
L0493:  6AAE            L1682:  655B
L1739:  6AB8            L1683:  6628
L1742:  6AD9            L1684:  6597
L0009:  6ADC            L1685:  65F0
L1745:  6B02            L1686:  65E2
L1744:  6B0B            L1687:  65E9
L1741:  6B2C            L1688:  6607
L1740:  6B3B            L1689:  665F
L1746:  6B4E            L1690:  666D
L0492:  6B62            L1691:  6673
L1747:  6B6A            L1692:  6656
L1751:  6B6D            L1693:  668A
L1750:  6B89            L1694:  66B3
L1749:  6B8C            L1695:  66EA
L1748:  6B8F            L1696:  6747
L1752:  6BA1            L1697:  6724
L1753:  6BA7            L1698:  6714
L1754:  6BAB            L1699:  671E
L1756:  6BB7            L1700:  674E
L1826:  6BC5            L1701:  66FD
L0503:  6BE8            L1702:  6717
L1755:  6BF5            L1703:  6737
L0500:  6C0D            L1704:  6752
L0501:  6C0E            L1705:  6781
L1757:  6C15            L1706:  678C
L0491:  6C25            L1707:  67AA
L0432:  6C30            L1708:  6792
L1760:  6C33            L1709:  67E4
L0436:  6C45            L1710:  67CE
L1759:  6C48            L1711:  680E
L1763:  6C4A            L1712:  67F4
L1762:  6C54            L1713:  682C
L1761:  6C5B            L1714:  683B
L1764:  6C5E            L1715:  67E7
L1765:  6C66            L1716:  684F
L0429:  6C6F            L1717:  685F
L1767:  6C71            L1718:  6870
L1773:  6C84            L1719:  68E3
L1771:  6C8D            L1720:  7B98
L1769:  6C9D            L1721:  69AF
L1770:  6CA4            L1722:  69C2
L1772:  6CB3            L1723:  69EC
L1775:  6CB8            L1724:  69CF
L1766:  6CC5            L1725:  69C9
L1777:  6CCE            L1726:  7072
L1783:  6CD7            L1727:  724D
L1778:  6CD8            L1728:  7245
L1776:  6CE4            L1729:  73BA
L1782:  6CED            L1730:  6A4C
L1780:  6CEE            L1731:  6A6B
L1779:  6CF7            L1732:  73D0
L1768:  6D00            L1733:  6A4B
L1774:  6D0D            L1734:  6A9A
L0434:  6D14            L1735:  6A6F
L1784:  6D20            L1736:  7376
L0433:  6D2D            L1737:  6A92
L1785:  6D39            L1738:  6AA9
L1792:  6D79            L1739:  6AB8
L1789:  6D7E            L1740:  6B3B
L1790:  6D8F            L1741:  6B2C
L1791:  6DBE            L1742:  6AD9
L1797:  6DC6            L1743:  F5FC
L1795:  6DCF            L1744:  6B0B
L1799:  6DD6            L1745:  6B02
L1796:  6DDB            L1746:  6B4E
L1798:  6DE7            L1747:  6B6A
L1787:  6DFA            L1748:  6B8F
L1793:  6E13            L1749:  6B8C
L1794:  6E1D            L1750:  6B89
L1800:  6E2E            L1751:  6B6D
L1802:  6E48            L1752:  6BA1
L1803:  6E52            L1753:  6BA7
L1801:  6E7D            L1754:  6BAB
L1806:  6E86            L1755:  6BF5
L1811:  6E9D            L1756:  6BB7
L1809:  6EA9            L1757:  6C15
L1812:  6EBD            L1758:  6F02
L1808:  6EC3            L1759:  6C48
L1810:  6EC5            L1760:  6C33
L1813:  6ED2            L1761:  6C5B
L1805:  6EE3            L1762:  6C54
L1804:  6EF2            L1763:  6C4A
L1814:  6EFD            L1764:  6C5E
L1836:  6EFF            L1765:  6C66
L1758:  6F02            L1766:  6CC5
L1788:  6F08            L1767:  6C71
L1807:  6F15            L1768:  6D00
L1815:  6F28            L1769:  6C9D
L0404:  6F2E            L1770:  6CA4
L1817:  6F47            L1771:  6C8D
L1819:  6F4F            L1772:  6CB3
L1816:  6F5A            L1773:  6C84
L1818:  6F5B            L1774:  6D0D
L0396:  6F60            L1775:  6CB8
L1820:  6F6E            L1776:  6CE4
L0417:  6F73            L1777:  6CCE
L1414:  6F8F            L1778:  6CD8
L1786:  6FA1            L1779:  6CF7
L0603:  6FB4            L1780:  6CEE
L1825:  6FC9            L1781:  7390
L1821:  6FD7            L1782:  6CED
L1824:  6FD9            L1783:  6CD7
L1822:  6FE8            L1784:  6D20
L1827:  700B            L1785:  6D39
L0525:  7018            L1786:  6FA1
L0528:  7019            L1787:  6DFA
L1831:  702F            L1788:  6F08
L1830:  7032            L1789:  6D7E
L1828:  7041            L1790:  6D8F
L1829:  704C            L1791:  6DBE
L1726:  7072            L1792:  6D79
L0917:  7076            L1793:  6E13
L0559:  7080            L1794:  6E1D
L1833:  7095            L1795:  6DCF
L1207:  7098            L1796:  6DDB
L1835:  70A4            L1797:  6DC6
L1163:  70B4            L1798:  6DE7
L1166:  70C8            L1799:  6DD6
L1206:  70DD            L1800:  6E2E
L1837:  70EA            L1801:  6E7D
L1839:  7100            L1802:  6E48
L1843:  7109            L1803:  6E52
L1840:  711A            L1804:  6EF2
L1841:  7129            L1805:  6EE3
L1842:  713A            L1806:  6E86
L1902:  713F            L1807:  6F15
L1832:  7146            L1808:  6EC3
L1838:  714A            L1809:  6EA9
L1844:  7151            L1810:  6EC5
L1165:  715A            L1811:  6E9D
L0576:  7166            L1812:  6EBD
L0577:  7167            L1813:  6ED2
L1845:  7170            L1814:  6EFD
L1846:  7187            L1815:  6F28
L1849:  71B1            L1816:  6F5A
L1834:  71BC            L1817:  6F47
L1851:  71D1            L1818:  6F5B
L1852:  71D3            L1819:  6F4F
L1853:  71D5            L1820:  6F6E
L1854:  71EA            L1821:  6FD7
L1848:  720F            L1822:  6FE8
L1850:  7210            L1823:  7371
L1855:  7211            L1824:  6FD9
L1858:  7221            L1825:  6FC9
L1860:  7225            L1826:  6BC5
L1859:  7235            L1827:  700B
L1728:  7245            L1828:  7041
L1727:  724D            L1829:  704C
L1847:  7255            L1830:  7032
L1857:  7262            L1831:  702F
L1861:  7263            L1832:  7146
L1823:  7371            L1833:  7095
L1736:  7376            L1834:  71BC
L1862:  7381            L1835:  70A4
L1781:  7390            L1836:  6EFF
L0558:  739C            L1837:  70EA
L1863:  73A9            L1838:  714A
L1871:  73AD            L1839:  7100
L1729:  73BA            L1840:  711A
L1732:  73D0            L1841:  7129
L1866:  73DA            L1842:  713A
L1867:  73EC            L1843:  7109
L1864:  73F8            L1844:  7151
L1870:  73F9            L1845:  7170
L1869:  740E            L1846:  7187
L1872:  740F            L1847:  7255
L1865:  7415            L1848:  720F
L0001:  7A23            L1849:  71B1
L1893:  7A2A            L1850:  7210
L1897:  7A65            L1851:  71D1
L1898:  7A9F            L1852:  71D3
L1901:  7AB2            L1853:  71D5
L1900:  7AC7            L1854:  71EA
L1894:  7ADE            L1855:  7211
L1905:  7B35            L1856:  AFF6
L1720:  7B98            L1857:  7262
L1457:  7B9E            L1858:  7221
L1904:  7BB8            L1859:  7235
L1907:  7BC1            L1860:  7225
L1895:  7BD3            L1861:  7263
L1909:  7BD6            L1862:  7381
L1908:  7BEA            L1863:  73A9
L1874:  7C04            L1864:  73F8
L1132:  7C1D            L1865:  7415
L1911:  7C24            L1866:  73DA
L1912:  7C74            L1867:  73EC
L0010:  7CC3            L1868:  E000
L1639:  7CE1            L1869:  740E
L1486:  7CF0            L1870:  73F9
L1530:  8080            L1871:  73AD
L0915:  9064            L1872:  740F
L1881:  9FE2            L1873:  2424
L1209:  A62F            L1874:  7C04
L1856:  AFF6            L1875:  4020
L0061:  B234            L1876:  D2E2
L1892:  B2B1            L1877:  0000
L1891:  BBCB            L1878:  DED3
L0047:  BDBE            L1879:  EADF
L1890:  C5BA            L1880:  23E5
L1889:  CFC4            L1881:  9FE2
L1292:  D1EB            L1882:  D4D3
L1876:  D2E2            L1883:  DCDB
L1882:  D4D3            L1884:  FED0
L0043:  D54F            L1885:  F5EA
L0062:  D637            L1886:  EBFB
L1883:  DCDB            L1887:  EEED
L1878:  DED3            L1888:  E2E1
L1868:  E000            L1889:  CFC4
L1888:  E2E1            L1890:  C5BA
L0216:  E52B            L1891:  BBCB
L0063:  E737            L1892:  B2B1
L1879:  EADF            L1893:  7A2A
L1886:  EBFB            L1894:  7ADE
L1887:  EEED            L1895:  7BD3
L1885:  F5EA            L1896:  F605
L1899:  F5F6            L1897:  7A65
L0007:  F5F9            L1898:  7A9F
L1743:  F5FC            L1899:  F5F6
L0550:  F5FF            L1900:  7AC7
L0005:  F602            L1901:  7AB2
L1896:  F605            L1902:  713F
L0065:  F60F            L1903:  6A10
L1482:  F624            L1904:  7BB8
L0590:  F667            L1905:  7B35
L0594:  F66A            L1906:  69F6
L0591:  F66C            L1907:  7BC1
L0355:  F66E            L1908:  7BEA
L0353:  F671            L1909:  7BD6
L1884:  FED0            L1910:  3F0B
L1179:  FF3E            L1911:  7C24
L0940:  FF9C            L1912:  7C74
